

Microchip Technology PIC LITE Macro Assembler V1.37 build -260352376 
                                                                                               Wed Aug 17 12:08:12 2016

Microchip Technology Omniscient Code Generator v1.37 (Free mode) build 201603110536
     1                           	processor	16F1786
     2                           	opt	pw 120
     3                           	opt	lm
     4                           	psect	idataCOMMON,global,class=CODE,delta=2
     5                           	psect	idataBANK0,global,class=CODE,delta=2
     6                           	psect	idataBANK1,global,class=CODE,delta=2
     7                           	psect	stringtext,global,class=STRCODE,delta=2
     8                           	psect	cinit,global,class=CODE,merge=1,delta=2
     9                           	psect	bssCOMMON,global,class=COMMON,space=1,delta=1
    10                           	psect	dataCOMMON,global,class=COMMON,space=1,delta=1
    11                           	psect	bssBANK0,global,class=BANK0,space=1,delta=1
    12                           	psect	dataBANK0,global,class=BANK0,space=1,delta=1
    13                           	psect	bssBANK1,global,class=BANK1,space=1,delta=1
    14                           	psect	dataBANK1,global,class=BANK1,space=1,delta=1
    15                           	psect	bssBANK2,global,class=BANK2,space=1,delta=1
    16                           	psect	clrtext,global,class=CODE,delta=2
    17                           	psect	inittext,global,class=CODE,delta=2
    18                           	psect	cstackBANK2,global,class=BANK2,space=1,delta=1
    19                           	psect	cstackBANK1,global,class=BANK1,space=1,delta=1
    20                           	psect	cstackCOMMON,global,class=COMMON,space=1,delta=1
    21                           	psect	cstackBANK0,global,class=BANK0,space=1,delta=1
    22                           	psect	maintext,global,class=CODE,merge=1,split=1,delta=2
    23                           	psect	text1,local,class=CODE,merge=1,delta=2
    24                           	psect	text2,local,class=CODE,merge=1,delta=2
    25                           	psect	text3,local,class=CODE,merge=1,delta=2
    26                           	psect	text4,local,class=CODE,merge=1,delta=2
    27                           	psect	swtext1,local,class=CONST,delta=2
    28                           	psect	swtext2,local,class=CONST,delta=2
    29                           	psect	text5,local,class=CODE,merge=1,delta=2
    30                           	psect	text6,local,class=CODE,merge=1,delta=2
    31                           	psect	text7,local,class=CODE,merge=1,delta=2
    32                           	psect	text8,local,class=CODE,merge=1,delta=2
    33                           	psect	text9,local,class=CODE,merge=1,delta=2
    34                           	psect	text10,local,class=CODE,merge=1,delta=2
    35                           	psect	text11,local,class=CODE,merge=1,delta=2
    36                           	psect	text12,local,class=CODE,merge=1,delta=2
    37                           	psect	text13,local,class=CODE,merge=1,delta=2
    38                           	psect	text14,local,class=CODE,merge=1,delta=2
    39                           	psect	text15,local,class=CODE,merge=1,delta=2
    40                           	psect	text16,local,class=CODE,merge=1,delta=2
    41                           	psect	text17,local,class=CODE,merge=1,delta=2
    42                           	psect	text18,local,class=CODE,merge=1,delta=2
    43                           	psect	text19,local,class=CODE,merge=1,delta=2
    44                           	psect	text20,local,class=CODE,merge=1,delta=2
    45                           	psect	text21,local,class=CODE,merge=1,delta=2
    46                           	psect	text22,local,class=CODE,merge=1,delta=2
    47                           	psect	text23,local,class=CODE,merge=1,delta=2
    48                           	psect	text24,local,class=CODE,merge=1,delta=2
    49                           	psect	text25,local,class=CODE,merge=1,delta=2
    50                           	psect	text26,local,class=CODE,merge=1,delta=2
    51                           	psect	text27,local,class=CODE,merge=1,delta=2
    52                           	psect	text28,local,class=CODE,merge=1,delta=2
    53                           	psect	text29,local,class=CODE,merge=1,delta=2
    54                           	psect	text30,local,class=CODE,merge=1,delta=2
    55                           	psect	text31,local,class=CODE,merge=1,delta=2
    56                           	psect	text32,local,class=CODE,merge=1,delta=2
    57                           	psect	text33,local,class=CODE,merge=1,delta=2
    58                           	psect	text34,local,class=CODE,merge=1,delta=2
    59                           	psect	text35,local,class=CODE,merge=1,delta=2
    60                           	psect	text36,local,class=CODE,merge=1,delta=2
    61                           	psect	text37,local,class=CODE,merge=1,delta=2
    62                           	psect	text38,local,class=CODE,merge=1,delta=2
    63                           	psect	text39,local,class=CODE,merge=1,delta=2
    64                           	psect	text40,local,class=CODE,merge=1,delta=2
    65                           	psect	text41,local,class=CODE,merge=1,delta=2
    66                           	psect	text42,local,class=CODE,merge=1,delta=2
    67                           	psect	intentry,global,class=CODE,delta=2
    68                           	psect	text44,local,class=CODE,merge=1,delta=2
    69                           	psect	text45,local,class=CODE,merge=1,delta=2
    70                           	dabs	1,0x620,48
    71                           	dabs	1,0x5A0,80
    72                           	dabs	1,0x520,80
    73                           	dabs	1,0x4A0,80
    74                           	dabs	1,0x464,12
    75                           	dabs	1,0x22C4,0,_gGlucoseValue
    76                           	dabs	1,0x7E,2
    77  0000                     	;# 
    78  0001                     	;# 
    79  0002                     	;# 
    80  0003                     	;# 
    81  0004                     	;# 
    82  0005                     	;# 
    83  0006                     	;# 
    84  0007                     	;# 
    85  0008                     	;# 
    86  0009                     	;# 
    87  000A                     	;# 
    88  000B                     	;# 
    89  000C                     	;# 
    90  000D                     	;# 
    91  000E                     	;# 
    92  0010                     	;# 
    93  0011                     	;# 
    94  0012                     	;# 
    95  0013                     	;# 
    96  0014                     	;# 
    97  0015                     	;# 
    98  0016                     	;# 
    99  0016                     	;# 
   100  0017                     	;# 
   101  0018                     	;# 
   102  0019                     	;# 
   103  001A                     	;# 
   104  001B                     	;# 
   105  001C                     	;# 
   106  008C                     	;# 
   107  008D                     	;# 
   108  008E                     	;# 
   109  0090                     	;# 
   110  0091                     	;# 
   111  0092                     	;# 
   112  0093                     	;# 
   113  0094                     	;# 
   114  0095                     	;# 
   115  0096                     	;# 
   116  0097                     	;# 
   117  0098                     	;# 
   118  0099                     	;# 
   119  009A                     	;# 
   120  009B                     	;# 
   121  009B                     	;# 
   122  009C                     	;# 
   123  009D                     	;# 
   124  009E                     	;# 
   125  009F                     	;# 
   126  010C                     	;# 
   127  010D                     	;# 
   128  010E                     	;# 
   129  0111                     	;# 
   130  0112                     	;# 
   131  0113                     	;# 
   132  0114                     	;# 
   133  0115                     	;# 
   134  0116                     	;# 
   135  0117                     	;# 
   136  0118                     	;# 
   137  0119                     	;# 
   138  011A                     	;# 
   139  011B                     	;# 
   140  011C                     	;# 
   141  011D                     	;# 
   142  011D                     	;# 
   143  011D                     	;# 
   144  011E                     	;# 
   145  011F                     	;# 
   146  018C                     	;# 
   147  018D                     	;# 
   148  0191                     	;# 
   149  0191                     	;# 
   150  0192                     	;# 
   151  0193                     	;# 
   152  0193                     	;# 
   153  0193                     	;# 
   154  0194                     	;# 
   155  0195                     	;# 
   156  0196                     	;# 
   157  0197                     	;# 
   158  0199                     	;# 
   159  0199                     	;# 
   160  0199                     	;# 
   161  019A                     	;# 
   162  019A                     	;# 
   163  019A                     	;# 
   164  019B                     	;# 
   165  019B                     	;# 
   166  019B                     	;# 
   167  019B                     	;# 
   168  019B                     	;# 
   169  019C                     	;# 
   170  019C                     	;# 
   171  019C                     	;# 
   172  019D                     	;# 
   173  019D                     	;# 
   174  019D                     	;# 
   175  019E                     	;# 
   176  019E                     	;# 
   177  019E                     	;# 
   178  019F                     	;# 
   179  019F                     	;# 
   180  019F                     	;# 
   181  019F                     	;# 
   182  019F                     	;# 
   183  020C                     	;# 
   184  020D                     	;# 
   185  020E                     	;# 
   186  0210                     	;# 
   187  0211                     	;# 
   188  0211                     	;# 
   189  0212                     	;# 
   190  0212                     	;# 
   191  0213                     	;# 
   192  0213                     	;# 
   193  0214                     	;# 
   194  0214                     	;# 
   195  0215                     	;# 
   196  0215                     	;# 
   197  0215                     	;# 
   198  0215                     	;# 
   199  0216                     	;# 
   200  0216                     	;# 
   201  0217                     	;# 
   202  0217                     	;# 
   203  028C                     	;# 
   204  028D                     	;# 
   205  028E                     	;# 
   206  0291                     	;# 
   207  0291                     	;# 
   208  0292                     	;# 
   209  0293                     	;# 
   210  0298                     	;# 
   211  0298                     	;# 
   212  0299                     	;# 
   213  029A                     	;# 
   214  030C                     	;# 
   215  030D                     	;# 
   216  030E                     	;# 
   217  0311                     	;# 
   218  0311                     	;# 
   219  0312                     	;# 
   220  0313                     	;# 
   221  038C                     	;# 
   222  038D                     	;# 
   223  038E                     	;# 
   224  0390                     	;# 
   225  0391                     	;# 
   226  0392                     	;# 
   227  0393                     	;# 
   228  0394                     	;# 
   229  0395                     	;# 
   230  0396                     	;# 
   231  0397                     	;# 
   232  0398                     	;# 
   233  0399                     	;# 
   234  039D                     	;# 
   235  039E                     	;# 
   236  039F                     	;# 
   237  0511                     	;# 
   238  0513                     	;# 
   239  051A                     	;# 
   240  0811                     	;# 
   241  0812                     	;# 
   242  0813                     	;# 
   243  0814                     	;# 
   244  0815                     	;# 
   245  0816                     	;# 
   246  0817                     	;# 
   247  0818                     	;# 
   248  0819                     	;# 
   249  081A                     	;# 
   250  081B                     	;# 
   251  081C                     	;# 
   252  081D                     	;# 
   253  081E                     	;# 
   254  081F                     	;# 
   255  0820                     	;# 
   256  0821                     	;# 
   257  0821                     	;# 
   258  0822                     	;# 
   259  0823                     	;# 
   260  0823                     	;# 
   261  0824                     	;# 
   262  0825                     	;# 
   263  0825                     	;# 
   264  0826                     	;# 
   265  0827                     	;# 
   266  0827                     	;# 
   267  0828                     	;# 
   268  0829                     	;# 
   269  082A                     	;# 
   270  082B                     	;# 
   271  082C                     	;# 
   272  082D                     	;# 
   273  082E                     	;# 
   274  082F                     	;# 
   275  0831                     	;# 
   276  0832                     	;# 
   277  0833                     	;# 
   278  0834                     	;# 
   279  0835                     	;# 
   280  0836                     	;# 
   281  0837                     	;# 
   282  0838                     	;# 
   283  0839                     	;# 
   284  083A                     	;# 
   285  083B                     	;# 
   286  083C                     	;# 
   287  083D                     	;# 
   288  083E                     	;# 
   289  083F                     	;# 
   290  0840                     	;# 
   291  0841                     	;# 
   292  0841                     	;# 
   293  0842                     	;# 
   294  0843                     	;# 
   295  0843                     	;# 
   296  0844                     	;# 
   297  0845                     	;# 
   298  0845                     	;# 
   299  0846                     	;# 
   300  0847                     	;# 
   301  0847                     	;# 
   302  0848                     	;# 
   303  0849                     	;# 
   304  084A                     	;# 
   305  084B                     	;# 
   306  084C                     	;# 
   307  084D                     	;# 
   308  084E                     	;# 
   309  084F                     	;# 
   310  0851                     	;# 
   311  0852                     	;# 
   312  0853                     	;# 
   313  0854                     	;# 
   314  0855                     	;# 
   315  0856                     	;# 
   316  0857                     	;# 
   317  0858                     	;# 
   318  0859                     	;# 
   319  085A                     	;# 
   320  085B                     	;# 
   321  085C                     	;# 
   322  085D                     	;# 
   323  085E                     	;# 
   324  085F                     	;# 
   325  0860                     	;# 
   326  0861                     	;# 
   327  0861                     	;# 
   328  0862                     	;# 
   329  0863                     	;# 
   330  0863                     	;# 
   331  0864                     	;# 
   332  0865                     	;# 
   333  0865                     	;# 
   334  0866                     	;# 
   335  0867                     	;# 
   336  0867                     	;# 
   337  0868                     	;# 
   338  0869                     	;# 
   339  086A                     	;# 
   340  086B                     	;# 
   341  086C                     	;# 
   342  086D                     	;# 
   343  086E                     	;# 
   344  086F                     	;# 
   345  0FE4                     	;# 
   346  0FE5                     	;# 
   347  0FE6                     	;# 
   348  0FE7                     	;# 
   349  0FE8                     	;# 
   350  0FE9                     	;# 
   351  0FEA                     	;# 
   352  0FEB                     	;# 
   353  0FED                     	;# 
   354  0FEE                     	;# 
   355  0FEF                     	;# 
   356  0000                     	;# 
   357  0001                     	;# 
   358  0002                     	;# 
   359  0003                     	;# 
   360  0004                     	;# 
   361  0005                     	;# 
   362  0006                     	;# 
   363  0007                     	;# 
   364  0008                     	;# 
   365  0009                     	;# 
   366  000A                     	;# 
   367  000B                     	;# 
   368  000C                     	;# 
   369  000D                     	;# 
   370  000E                     	;# 
   371  0010                     	;# 
   372  0011                     	;# 
   373  0012                     	;# 
   374  0013                     	;# 
   375  0014                     	;# 
   376  0015                     	;# 
   377  0016                     	;# 
   378  0016                     	;# 
   379  0017                     	;# 
   380  0018                     	;# 
   381  0019                     	;# 
   382  001A                     	;# 
   383  001B                     	;# 
   384  001C                     	;# 
   385  008C                     	;# 
   386  008D                     	;# 
   387  008E                     	;# 
   388  0090                     	;# 
   389  0091                     	;# 
   390  0092                     	;# 
   391  0093                     	;# 
   392  0094                     	;# 
   393  0095                     	;# 
   394  0096                     	;# 
   395  0097                     	;# 
   396  0098                     	;# 
   397  0099                     	;# 
   398  009A                     	;# 
   399  009B                     	;# 
   400  009B                     	;# 
   401  009C                     	;# 
   402  009D                     	;# 
   403  009E                     	;# 
   404  009F                     	;# 
   405  010C                     	;# 
   406  010D                     	;# 
   407  010E                     	;# 
   408  0111                     	;# 
   409  0112                     	;# 
   410  0113                     	;# 
   411  0114                     	;# 
   412  0115                     	;# 
   413  0116                     	;# 
   414  0117                     	;# 
   415  0118                     	;# 
   416  0119                     	;# 
   417  011A                     	;# 
   418  011B                     	;# 
   419  011C                     	;# 
   420  011D                     	;# 
   421  011D                     	;# 
   422  011D                     	;# 
   423  011E                     	;# 
   424  011F                     	;# 
   425  018C                     	;# 
   426  018D                     	;# 
   427  0191                     	;# 
   428  0191                     	;# 
   429  0192                     	;# 
   430  0193                     	;# 
   431  0193                     	;# 
   432  0193                     	;# 
   433  0194                     	;# 
   434  0195                     	;# 
   435  0196                     	;# 
   436  0197                     	;# 
   437  0199                     	;# 
   438  0199                     	;# 
   439  0199                     	;# 
   440  019A                     	;# 
   441  019A                     	;# 
   442  019A                     	;# 
   443  019B                     	;# 
   444  019B                     	;# 
   445  019B                     	;# 
   446  019B                     	;# 
   447  019B                     	;# 
   448  019C                     	;# 
   449  019C                     	;# 
   450  019C                     	;# 
   451  019D                     	;# 
   452  019D                     	;# 
   453  019D                     	;# 
   454  019E                     	;# 
   455  019E                     	;# 
   456  019E                     	;# 
   457  019F                     	;# 
   458  019F                     	;# 
   459  019F                     	;# 
   460  019F                     	;# 
   461  019F                     	;# 
   462  020C                     	;# 
   463  020D                     	;# 
   464  020E                     	;# 
   465  0210                     	;# 
   466  0211                     	;# 
   467  0211                     	;# 
   468  0212                     	;# 
   469  0212                     	;# 
   470  0213                     	;# 
   471  0213                     	;# 
   472  0214                     	;# 
   473  0214                     	;# 
   474  0215                     	;# 
   475  0215                     	;# 
   476  0215                     	;# 
   477  0215                     	;# 
   478  0216                     	;# 
   479  0216                     	;# 
   480  0217                     	;# 
   481  0217                     	;# 
   482  028C                     	;# 
   483  028D                     	;# 
   484  028E                     	;# 
   485  0291                     	;# 
   486  0291                     	;# 
   487  0292                     	;# 
   488  0293                     	;# 
   489  0298                     	;# 
   490  0298                     	;# 
   491  0299                     	;# 
   492  029A                     	;# 
   493  030C                     	;# 
   494  030D                     	;# 
   495  030E                     	;# 
   496  0311                     	;# 
   497  0311                     	;# 
   498  0312                     	;# 
   499  0313                     	;# 
   500  038C                     	;# 
   501  038D                     	;# 
   502  038E                     	;# 
   503  0390                     	;# 
   504  0391                     	;# 
   505  0392                     	;# 
   506  0393                     	;# 
   507  0394                     	;# 
   508  0395                     	;# 
   509  0396                     	;# 
   510  0397                     	;# 
   511  0398                     	;# 
   512  0399                     	;# 
   513  039D                     	;# 
   514  039E                     	;# 
   515  039F                     	;# 
   516  0511                     	;# 
   517  0513                     	;# 
   518  051A                     	;# 
   519  0811                     	;# 
   520  0812                     	;# 
   521  0813                     	;# 
   522  0814                     	;# 
   523  0815                     	;# 
   524  0816                     	;# 
   525  0817                     	;# 
   526  0818                     	;# 
   527  0819                     	;# 
   528  081A                     	;# 
   529  081B                     	;# 
   530  081C                     	;# 
   531  081D                     	;# 
   532  081E                     	;# 
   533  081F                     	;# 
   534  0820                     	;# 
   535  0821                     	;# 
   536  0821                     	;# 
   537  0822                     	;# 
   538  0823                     	;# 
   539  0823                     	;# 
   540  0824                     	;# 
   541  0825                     	;# 
   542  0825                     	;# 
   543  0826                     	;# 
   544  0827                     	;# 
   545  0827                     	;# 
   546  0828                     	;# 
   547  0829                     	;# 
   548  082A                     	;# 
   549  082B                     	;# 
   550  082C                     	;# 
   551  082D                     	;# 
   552  082E                     	;# 
   553  082F                     	;# 
   554  0831                     	;# 
   555  0832                     	;# 
   556  0833                     	;# 
   557  0834                     	;# 
   558  0835                     	;# 
   559  0836                     	;# 
   560  0837                     	;# 
   561  0838                     	;# 
   562  0839                     	;# 
   563  083A                     	;# 
   564  083B                     	;# 
   565  083C                     	;# 
   566  083D                     	;# 
   567  083E                     	;# 
   568  083F                     	;# 
   569  0840                     	;# 
   570  0841                     	;# 
   571  0841                     	;# 
   572  0842                     	;# 
   573  0843                     	;# 
   574  0843                     	;# 
   575  0844                     	;# 
   576  0845                     	;# 
   577  0845                     	;# 
   578  0846                     	;# 
   579  0847                     	;# 
   580  0847                     	;# 
   581  0848                     	;# 
   582  0849                     	;# 
   583  084A                     	;# 
   584  084B                     	;# 
   585  084C                     	;# 
   586  084D                     	;# 
   587  084E                     	;# 
   588  084F                     	;# 
   589  0851                     	;# 
   590  0852                     	;# 
   591  0853                     	;# 
   592  0854                     	;# 
   593  0855                     	;# 
   594  0856                     	;# 
   595  0857                     	;# 
   596  0858                     	;# 
   597  0859                     	;# 
   598  085A                     	;# 
   599  085B                     	;# 
   600  085C                     	;# 
   601  085D                     	;# 
   602  085E                     	;# 
   603  085F                     	;# 
   604  0860                     	;# 
   605  0861                     	;# 
   606  0861                     	;# 
   607  0862                     	;# 
   608  0863                     	;# 
   609  0863                     	;# 
   610  0864                     	;# 
   611  0865                     	;# 
   612  0865                     	;# 
   613  0866                     	;# 
   614  0867                     	;# 
   615  0867                     	;# 
   616  0868                     	;# 
   617  0869                     	;# 
   618  086A                     	;# 
   619  086B                     	;# 
   620  086C                     	;# 
   621  086D                     	;# 
   622  086E                     	;# 
   623  086F                     	;# 
   624  0FE4                     	;# 
   625  0FE5                     	;# 
   626  0FE6                     	;# 
   627  0FE7                     	;# 
   628  0FE8                     	;# 
   629  0FE9                     	;# 
   630  0FEA                     	;# 
   631  0FEB                     	;# 
   632  0FED                     	;# 
   633  0FEE                     	;# 
   634  0FEF                     	;# 
   635  0000                     	;# 
   636  0001                     	;# 
   637  0002                     	;# 
   638  0003                     	;# 
   639  0004                     	;# 
   640  0005                     	;# 
   641  0006                     	;# 
   642  0007                     	;# 
   643  0008                     	;# 
   644  0009                     	;# 
   645  000A                     	;# 
   646  000B                     	;# 
   647  000C                     	;# 
   648  000D                     	;# 
   649  000E                     	;# 
   650  0010                     	;# 
   651  0011                     	;# 
   652  0012                     	;# 
   653  0013                     	;# 
   654  0014                     	;# 
   655  0015                     	;# 
   656  0016                     	;# 
   657  0016                     	;# 
   658  0017                     	;# 
   659  0018                     	;# 
   660  0019                     	;# 
   661  001A                     	;# 
   662  001B                     	;# 
   663  001C                     	;# 
   664  008C                     	;# 
   665  008D                     	;# 
   666  008E                     	;# 
   667  0090                     	;# 
   668  0091                     	;# 
   669  0092                     	;# 
   670  0093                     	;# 
   671  0094                     	;# 
   672  0095                     	;# 
   673  0096                     	;# 
   674  0097                     	;# 
   675  0098                     	;# 
   676  0099                     	;# 
   677  009A                     	;# 
   678  009B                     	;# 
   679  009B                     	;# 
   680  009C                     	;# 
   681  009D                     	;# 
   682  009E                     	;# 
   683  009F                     	;# 
   684  010C                     	;# 
   685  010D                     	;# 
   686  010E                     	;# 
   687  0111                     	;# 
   688  0112                     	;# 
   689  0113                     	;# 
   690  0114                     	;# 
   691  0115                     	;# 
   692  0116                     	;# 
   693  0117                     	;# 
   694  0118                     	;# 
   695  0119                     	;# 
   696  011A                     	;# 
   697  011B                     	;# 
   698  011C                     	;# 
   699  011D                     	;# 
   700  011D                     	;# 
   701  011D                     	;# 
   702  011E                     	;# 
   703  011F                     	;# 
   704  018C                     	;# 
   705  018D                     	;# 
   706  0191                     	;# 
   707  0191                     	;# 
   708  0192                     	;# 
   709  0193                     	;# 
   710  0193                     	;# 
   711  0193                     	;# 
   712  0194                     	;# 
   713  0195                     	;# 
   714  0196                     	;# 
   715  0197                     	;# 
   716  0199                     	;# 
   717  0199                     	;# 
   718  0199                     	;# 
   719  019A                     	;# 
   720  019A                     	;# 
   721  019A                     	;# 
   722  019B                     	;# 
   723  019B                     	;# 
   724  019B                     	;# 
   725  019B                     	;# 
   726  019B                     	;# 
   727  019C                     	;# 
   728  019C                     	;# 
   729  019C                     	;# 
   730  019D                     	;# 
   731  019D                     	;# 
   732  019D                     	;# 
   733  019E                     	;# 
   734  019E                     	;# 
   735  019E                     	;# 
   736  019F                     	;# 
   737  019F                     	;# 
   738  019F                     	;# 
   739  019F                     	;# 
   740  019F                     	;# 
   741  020C                     	;# 
   742  020D                     	;# 
   743  020E                     	;# 
   744  0210                     	;# 
   745  0211                     	;# 
   746  0211                     	;# 
   747  0212                     	;# 
   748  0212                     	;# 
   749  0213                     	;# 
   750  0213                     	;# 
   751  0214                     	;# 
   752  0214                     	;# 
   753  0215                     	;# 
   754  0215                     	;# 
   755  0215                     	;# 
   756  0215                     	;# 
   757  0216                     	;# 
   758  0216                     	;# 
   759  0217                     	;# 
   760  0217                     	;# 
   761  028C                     	;# 
   762  028D                     	;# 
   763  028E                     	;# 
   764  0291                     	;# 
   765  0291                     	;# 
   766  0292                     	;# 
   767  0293                     	;# 
   768  0298                     	;# 
   769  0298                     	;# 
   770  0299                     	;# 
   771  029A                     	;# 
   772  030C                     	;# 
   773  030D                     	;# 
   774  030E                     	;# 
   775  0311                     	;# 
   776  0311                     	;# 
   777  0312                     	;# 
   778  0313                     	;# 
   779  038C                     	;# 
   780  038D                     	;# 
   781  038E                     	;# 
   782  0390                     	;# 
   783  0391                     	;# 
   784  0392                     	;# 
   785  0393                     	;# 
   786  0394                     	;# 
   787  0395                     	;# 
   788  0396                     	;# 
   789  0397                     	;# 
   790  0398                     	;# 
   791  0399                     	;# 
   792  039D                     	;# 
   793  039E                     	;# 
   794  039F                     	;# 
   795  0511                     	;# 
   796  0513                     	;# 
   797  051A                     	;# 
   798  0811                     	;# 
   799  0812                     	;# 
   800  0813                     	;# 
   801  0814                     	;# 
   802  0815                     	;# 
   803  0816                     	;# 
   804  0817                     	;# 
   805  0818                     	;# 
   806  0819                     	;# 
   807  081A                     	;# 
   808  081B                     	;# 
   809  081C                     	;# 
   810  081D                     	;# 
   811  081E                     	;# 
   812  081F                     	;# 
   813  0820                     	;# 
   814  0821                     	;# 
   815  0821                     	;# 
   816  0822                     	;# 
   817  0823                     	;# 
   818  0823                     	;# 
   819  0824                     	;# 
   820  0825                     	;# 
   821  0825                     	;# 
   822  0826                     	;# 
   823  0827                     	;# 
   824  0827                     	;# 
   825  0828                     	;# 
   826  0829                     	;# 
   827  082A                     	;# 
   828  082B                     	;# 
   829  082C                     	;# 
   830  082D                     	;# 
   831  082E                     	;# 
   832  082F                     	;# 
   833  0831                     	;# 
   834  0832                     	;# 
   835  0833                     	;# 
   836  0834                     	;# 
   837  0835                     	;# 
   838  0836                     	;# 
   839  0837                     	;# 
   840  0838                     	;# 
   841  0839                     	;# 
   842  083A                     	;# 
   843  083B                     	;# 
   844  083C                     	;# 
   845  083D                     	;# 
   846  083E                     	;# 
   847  083F                     	;# 
   848  0840                     	;# 
   849  0841                     	;# 
   850  0841                     	;# 
   851  0842                     	;# 
   852  0843                     	;# 
   853  0843                     	;# 
   854  0844                     	;# 
   855  0845                     	;# 
   856  0845                     	;# 
   857  0846                     	;# 
   858  0847                     	;# 
   859  0847                     	;# 
   860  0848                     	;# 
   861  0849                     	;# 
   862  084A                     	;# 
   863  084B                     	;# 
   864  084C                     	;# 
   865  084D                     	;# 
   866  084E                     	;# 
   867  084F                     	;# 
   868  0851                     	;# 
   869  0852                     	;# 
   870  0853                     	;# 
   871  0854                     	;# 
   872  0855                     	;# 
   873  0856                     	;# 
   874  0857                     	;# 
   875  0858                     	;# 
   876  0859                     	;# 
   877  085A                     	;# 
   878  085B                     	;# 
   879  085C                     	;# 
   880  085D                     	;# 
   881  085E                     	;# 
   882  085F                     	;# 
   883  0860                     	;# 
   884  0861                     	;# 
   885  0861                     	;# 
   886  0862                     	;# 
   887  0863                     	;# 
   888  0863                     	;# 
   889  0864                     	;# 
   890  0865                     	;# 
   891  0865                     	;# 
   892  0866                     	;# 
   893  0867                     	;# 
   894  0867                     	;# 
   895  0868                     	;# 
   896  0869                     	;# 
   897  086A                     	;# 
   898  086B                     	;# 
   899  086C                     	;# 
   900  086D                     	;# 
   901  086E                     	;# 
   902  086F                     	;# 
   903  0FE4                     	;# 
   904  0FE5                     	;# 
   905  0FE6                     	;# 
   906  0FE7                     	;# 
   907  0FE8                     	;# 
   908  0FE9                     	;# 
   909  0FEA                     	;# 
   910  0FEB                     	;# 
   911  0FED                     	;# 
   912  0FEE                     	;# 
   913  0FEF                     	;# 
   914  0000                     	;# 
   915  0001                     	;# 
   916  0002                     	;# 
   917  0003                     	;# 
   918  0004                     	;# 
   919  0005                     	;# 
   920  0006                     	;# 
   921  0007                     	;# 
   922  0008                     	;# 
   923  0009                     	;# 
   924  000A                     	;# 
   925  000B                     	;# 
   926  000C                     	;# 
   927  000D                     	;# 
   928  000E                     	;# 
   929  0010                     	;# 
   930  0011                     	;# 
   931  0012                     	;# 
   932  0013                     	;# 
   933  0014                     	;# 
   934  0015                     	;# 
   935  0016                     	;# 
   936  0016                     	;# 
   937  0017                     	;# 
   938  0018                     	;# 
   939  0019                     	;# 
   940  001A                     	;# 
   941  001B                     	;# 
   942  001C                     	;# 
   943  008C                     	;# 
   944  008D                     	;# 
   945  008E                     	;# 
   946  0090                     	;# 
   947  0091                     	;# 
   948  0092                     	;# 
   949  0093                     	;# 
   950  0094                     	;# 
   951  0095                     	;# 
   952  0096                     	;# 
   953  0097                     	;# 
   954  0098                     	;# 
   955  0099                     	;# 
   956  009A                     	;# 
   957  009B                     	;# 
   958  009B                     	;# 
   959  009C                     	;# 
   960  009D                     	;# 
   961  009E                     	;# 
   962  009F                     	;# 
   963  010C                     	;# 
   964  010D                     	;# 
   965  010E                     	;# 
   966  0111                     	;# 
   967  0112                     	;# 
   968  0113                     	;# 
   969  0114                     	;# 
   970  0115                     	;# 
   971  0116                     	;# 
   972  0117                     	;# 
   973  0118                     	;# 
   974  0119                     	;# 
   975  011A                     	;# 
   976  011B                     	;# 
   977  011C                     	;# 
   978  011D                     	;# 
   979  011D                     	;# 
   980  011D                     	;# 
   981  011E                     	;# 
   982  011F                     	;# 
   983  018C                     	;# 
   984  018D                     	;# 
   985  0191                     	;# 
   986  0191                     	;# 
   987  0192                     	;# 
   988  0193                     	;# 
   989  0193                     	;# 
   990  0193                     	;# 
   991  0194                     	;# 
   992  0195                     	;# 
   993  0196                     	;# 
   994  0197                     	;# 
   995  0199                     	;# 
   996  0199                     	;# 
   997  0199                     	;# 
   998  019A                     	;# 
   999  019A                     	;# 
  1000  019A                     	;# 
  1001  019B                     	;# 
  1002  019B                     	;# 
  1003  019B                     	;# 
  1004  019B                     	;# 
  1005  019B                     	;# 
  1006  019C                     	;# 
  1007  019C                     	;# 
  1008  019C                     	;# 
  1009  019D                     	;# 
  1010  019D                     	;# 
  1011  019D                     	;# 
  1012  019E                     	;# 
  1013  019E                     	;# 
  1014  019E                     	;# 
  1015  019F                     	;# 
  1016  019F                     	;# 
  1017  019F                     	;# 
  1018  019F                     	;# 
  1019  019F                     	;# 
  1020  020C                     	;# 
  1021  020D                     	;# 
  1022  020E                     	;# 
  1023  0210                     	;# 
  1024  0211                     	;# 
  1025  0211                     	;# 
  1026  0212                     	;# 
  1027  0212                     	;# 
  1028  0213                     	;# 
  1029  0213                     	;# 
  1030  0214                     	;# 
  1031  0214                     	;# 
  1032  0215                     	;# 
  1033  0215                     	;# 
  1034  0215                     	;# 
  1035  0215                     	;# 
  1036  0216                     	;# 
  1037  0216                     	;# 
  1038  0217                     	;# 
  1039  0217                     	;# 
  1040  028C                     	;# 
  1041  028D                     	;# 
  1042  028E                     	;# 
  1043  0291                     	;# 
  1044  0291                     	;# 
  1045  0292                     	;# 
  1046  0293                     	;# 
  1047  0298                     	;# 
  1048  0298                     	;# 
  1049  0299                     	;# 
  1050  029A                     	;# 
  1051  030C                     	;# 
  1052  030D                     	;# 
  1053  030E                     	;# 
  1054  0311                     	;# 
  1055  0311                     	;# 
  1056  0312                     	;# 
  1057  0313                     	;# 
  1058  038C                     	;# 
  1059  038D                     	;# 
  1060  038E                     	;# 
  1061  0390                     	;# 
  1062  0391                     	;# 
  1063  0392                     	;# 
  1064  0393                     	;# 
  1065  0394                     	;# 
  1066  0395                     	;# 
  1067  0396                     	;# 
  1068  0397                     	;# 
  1069  0398                     	;# 
  1070  0399                     	;# 
  1071  039D                     	;# 
  1072  039E                     	;# 
  1073  039F                     	;# 
  1074  0511                     	;# 
  1075  0513                     	;# 
  1076  051A                     	;# 
  1077  0811                     	;# 
  1078  0812                     	;# 
  1079  0813                     	;# 
  1080  0814                     	;# 
  1081  0815                     	;# 
  1082  0816                     	;# 
  1083  0817                     	;# 
  1084  0818                     	;# 
  1085  0819                     	;# 
  1086  081A                     	;# 
  1087  081B                     	;# 
  1088  081C                     	;# 
  1089  081D                     	;# 
  1090  081E                     	;# 
  1091  081F                     	;# 
  1092  0820                     	;# 
  1093  0821                     	;# 
  1094  0821                     	;# 
  1095  0822                     	;# 
  1096  0823                     	;# 
  1097  0823                     	;# 
  1098  0824                     	;# 
  1099  0825                     	;# 
  1100  0825                     	;# 
  1101  0826                     	;# 
  1102  0827                     	;# 
  1103  0827                     	;# 
  1104  0828                     	;# 
  1105  0829                     	;# 
  1106  082A                     	;# 
  1107  082B                     	;# 
  1108  082C                     	;# 
  1109  082D                     	;# 
  1110  082E                     	;# 
  1111  082F                     	;# 
  1112  0831                     	;# 
  1113  0832                     	;# 
  1114  0833                     	;# 
  1115  0834                     	;# 
  1116  0835                     	;# 
  1117  0836                     	;# 
  1118  0837                     	;# 
  1119  0838                     	;# 
  1120  0839                     	;# 
  1121  083A                     	;# 
  1122  083B                     	;# 
  1123  083C                     	;# 
  1124  083D                     	;# 
  1125  083E                     	;# 
  1126  083F                     	;# 
  1127  0840                     	;# 
  1128  0841                     	;# 
  1129  0841                     	;# 
  1130  0842                     	;# 
  1131  0843                     	;# 
  1132  0843                     	;# 
  1133  0844                     	;# 
  1134  0845                     	;# 
  1135  0845                     	;# 
  1136  0846                     	;# 
  1137  0847                     	;# 
  1138  0847                     	;# 
  1139  0848                     	;# 
  1140  0849                     	;# 
  1141  084A                     	;# 
  1142  084B                     	;# 
  1143  084C                     	;# 
  1144  084D                     	;# 
  1145  084E                     	;# 
  1146  084F                     	;# 
  1147  0851                     	;# 
  1148  0852                     	;# 
  1149  0853                     	;# 
  1150  0854                     	;# 
  1151  0855                     	;# 
  1152  0856                     	;# 
  1153  0857                     	;# 
  1154  0858                     	;# 
  1155  0859                     	;# 
  1156  085A                     	;# 
  1157  085B                     	;# 
  1158  085C                     	;# 
  1159  085D                     	;# 
  1160  085E                     	;# 
  1161  085F                     	;# 
  1162  0860                     	;# 
  1163  0861                     	;# 
  1164  0861                     	;# 
  1165  0862                     	;# 
  1166  0863                     	;# 
  1167  0863                     	;# 
  1168  0864                     	;# 
  1169  0865                     	;# 
  1170  0865                     	;# 
  1171  0866                     	;# 
  1172  0867                     	;# 
  1173  0867                     	;# 
  1174  0868                     	;# 
  1175  0869                     	;# 
  1176  086A                     	;# 
  1177  086B                     	;# 
  1178  086C                     	;# 
  1179  086D                     	;# 
  1180  086E                     	;# 
  1181  086F                     	;# 
  1182  0FE4                     	;# 
  1183  0FE5                     	;# 
  1184  0FE6                     	;# 
  1185  0FE7                     	;# 
  1186  0FE8                     	;# 
  1187  0FE9                     	;# 
  1188  0FEA                     	;# 
  1189  0FEB                     	;# 
  1190  0FED                     	;# 
  1191  0FEE                     	;# 
  1192  0FEF                     	;_gGlucoseValue
  1193                           
  1194                           	psect	idataCOMMON
  1195  0003                     __pidataCOMMON:	
  1196                           
  1197                           ;initializer for _gYmmoldecimalchar
  1198  0003  3406               	retlw	6
  1199                           
  1200                           	psect	idataBANK0
  1201  1DB0                     __pidataBANK0:	
  1202                           
  1203                           ;initializer for _Days
  1204  1DB0  3401               	retlw	1
  1205                           
  1206                           ;initializer for _Hours
  1207  1DB1  340A               	retlw	10
  1208                           
  1209                           ;initializer for _Minutes
  1210  1DB2  340A               	retlw	10
  1211                           
  1212                           ;initializer for _Month
  1213  1DB3  3401               	retlw	1
  1214                           
  1215                           ;initializer for _Year
  1216  1DB4  340D               	retlw	13
  1217                           
  1218                           ;initializer for _gYmmolchar
  1219  1DB5  3407               	retlw	7
  1220                           
  1221                           	psect	idataBANK1
  1222  1DE8                     __pidataBANK1:	
  1223                           
  1224                           ;initializer for _gStripIdleTime
  1225  1DE8  3490               	retlw	144
  1226  1DE9  34D0               	retlw	208
  1227  1DEA  3403               	retlw	3
  1228  1DEB  3400               	retlw	0
  1229                           
  1230                           ;initializer for _gcountIdleTime
  1231  1DEC  34C0               	retlw	192
  1232  1DED  34D4               	retlw	212
  1233  1DEE  3401               	retlw	1
  1234  1DEF  3400               	retlw	0
  1235                           
  1236                           ;initializer for _gtimeOutCount
  1237  1DF0  34A0               	retlw	160
  1238  1DF1  3486               	retlw	134
  1239  1DF2  3401               	retlw	1
  1240  1DF3  3400               	retlw	0
  1241                           
  1242                           ;initializer for _gYint
  1243  1DF4  3432               	retlw	50
  1244  1DF5  3400               	retlw	0
  1245                           
  1246                           ;initializer for _gcounter
  1247  1DF6  3440               	retlw	64
  1248  1DF7  341F               	retlw	31
  1249                           
  1250                           	psect	stringtext
  1251  0235                     __pstringtext:	
  1252  0235                     _ASCII:	
  1253  0235  3400               	retlw	0
  1254  0236  3400               	retlw	0
  1255  0237  3400               	retlw	0
  1256  0238  3400               	retlw	0
  1257  0239  3400               	retlw	0
  1258  023A  3400               	retlw	0
  1259  023B  3400               	retlw	0
  1260  023C  345F               	retlw	95
  1261  023D  3400               	retlw	0
  1262  023E  3400               	retlw	0
  1263  023F  3400               	retlw	0
  1264  0240  3407               	retlw	7
  1265  0241  3400               	retlw	0
  1266  0242  3407               	retlw	7
  1267  0243  3400               	retlw	0
  1268  0244  3414               	retlw	20
  1269  0245  347F               	retlw	127
  1270  0246  3414               	retlw	20
  1271  0247  347F               	retlw	127
  1272  0248  3414               	retlw	20
  1273  0249  3424               	retlw	36
  1274  024A  342A               	retlw	42
  1275  024B  347F               	retlw	127
  1276  024C  342A               	retlw	42
  1277  024D  3412               	retlw	18
  1278  024E  3423               	retlw	35
  1279  024F  3413               	retlw	19
  1280  0250  3408               	retlw	8
  1281  0251  3464               	retlw	100
  1282  0252  3462               	retlw	98
  1283  0253  3436               	retlw	54
  1284  0254  3449               	retlw	73
  1285  0255  3455               	retlw	85
  1286  0256  3422               	retlw	34
  1287  0257  3450               	retlw	80
  1288  0258  3400               	retlw	0
  1289  0259  3405               	retlw	5
  1290  025A  3403               	retlw	3
  1291  025B  3400               	retlw	0
  1292  025C  3400               	retlw	0
  1293  025D  3400               	retlw	0
  1294  025E  341C               	retlw	28
  1295  025F  3422               	retlw	34
  1296  0260  3441               	retlw	65
  1297  0261  3400               	retlw	0
  1298  0262  3400               	retlw	0
  1299  0263  3441               	retlw	65
  1300  0264  3422               	retlw	34
  1301  0265  341C               	retlw	28
  1302  0266  3400               	retlw	0
  1303  0267  3414               	retlw	20
  1304  0268  3408               	retlw	8
  1305  0269  343E               	retlw	62
  1306  026A  3408               	retlw	8
  1307  026B  3414               	retlw	20
  1308  026C  3408               	retlw	8
  1309  026D  3408               	retlw	8
  1310  026E  343E               	retlw	62
  1311  026F  3408               	retlw	8
  1312  0270  3408               	retlw	8
  1313  0271  3400               	retlw	0
  1314  0272  3450               	retlw	80
  1315  0273  3430               	retlw	48
  1316  0274  3400               	retlw	0
  1317  0275  3400               	retlw	0
  1318  0276  3408               	retlw	8
  1319  0277  3408               	retlw	8
  1320  0278  3408               	retlw	8
  1321  0279  3408               	retlw	8
  1322  027A  3408               	retlw	8
  1323  027B  3400               	retlw	0
  1324  027C  3460               	retlw	96
  1325  027D  3460               	retlw	96
  1326  027E  3400               	retlw	0
  1327  027F  3400               	retlw	0
  1328  0280  3420               	retlw	32
  1329  0281  3410               	retlw	16
  1330  0282  3408               	retlw	8
  1331  0283  3404               	retlw	4
  1332  0284  3402               	retlw	2
  1333  0285  343E               	retlw	62
  1334  0286  3451               	retlw	81
  1335  0287  3449               	retlw	73
  1336  0288  3445               	retlw	69
  1337  0289  343E               	retlw	62
  1338  028A  3400               	retlw	0
  1339  028B  3442               	retlw	66
  1340  028C  347F               	retlw	127
  1341  028D  3440               	retlw	64
  1342  028E  3400               	retlw	0
  1343  028F  3442               	retlw	66
  1344  0290  3461               	retlw	97
  1345  0291  3451               	retlw	81
  1346  0292  3449               	retlw	73
  1347  0293  3446               	retlw	70
  1348  0294  3421               	retlw	33
  1349  0295  3441               	retlw	65
  1350  0296  3445               	retlw	69
  1351  0297  344B               	retlw	75
  1352  0298  3431               	retlw	49
  1353  0299  3418               	retlw	24
  1354  029A  3414               	retlw	20
  1355  029B  3412               	retlw	18
  1356  029C  347F               	retlw	127
  1357  029D  3410               	retlw	16
  1358  029E  3427               	retlw	39
  1359  029F  3445               	retlw	69
  1360  02A0  3445               	retlw	69
  1361  02A1  3445               	retlw	69
  1362  02A2  3439               	retlw	57
  1363  02A3  343C               	retlw	60
  1364  02A4  344A               	retlw	74
  1365  02A5  3449               	retlw	73
  1366  02A6  3449               	retlw	73
  1367  02A7  3430               	retlw	48
  1368  02A8  3401               	retlw	1
  1369  02A9  3471               	retlw	113
  1370  02AA  3409               	retlw	9
  1371  02AB  3405               	retlw	5
  1372  02AC  3403               	retlw	3
  1373  02AD  3436               	retlw	54
  1374  02AE  3449               	retlw	73
  1375  02AF  3449               	retlw	73
  1376  02B0  3449               	retlw	73
  1377  02B1  3436               	retlw	54
  1378  02B2  3406               	retlw	6
  1379  02B3  3449               	retlw	73
  1380  02B4  3449               	retlw	73
  1381  02B5  3429               	retlw	41
  1382  02B6  341E               	retlw	30
  1383  02B7  3400               	retlw	0
  1384  02B8  3436               	retlw	54
  1385  02B9  3436               	retlw	54
  1386  02BA  3400               	retlw	0
  1387  02BB  3400               	retlw	0
  1388  02BC  3400               	retlw	0
  1389  02BD  3456               	retlw	86
  1390  02BE  3436               	retlw	54
  1391  02BF  3400               	retlw	0
  1392  02C0  3400               	retlw	0
  1393  02C1  3408               	retlw	8
  1394  02C2  3414               	retlw	20
  1395  02C3  3422               	retlw	34
  1396  02C4  3441               	retlw	65
  1397  02C5  3400               	retlw	0
  1398  02C6  3414               	retlw	20
  1399  02C7  3414               	retlw	20
  1400  02C8  3414               	retlw	20
  1401  02C9  3414               	retlw	20
  1402  02CA  3414               	retlw	20
  1403  02CB  3400               	retlw	0
  1404  02CC  3441               	retlw	65
  1405  02CD  3422               	retlw	34
  1406  02CE  3414               	retlw	20
  1407  02CF  3408               	retlw	8
  1408  02D0  3402               	retlw	2
  1409  02D1  3401               	retlw	1
  1410  02D2  3451               	retlw	81
  1411  02D3  3409               	retlw	9
  1412  02D4  3406               	retlw	6
  1413  02D5  3432               	retlw	50
  1414  02D6  3449               	retlw	73
  1415  02D7  3479               	retlw	121
  1416  02D8  3441               	retlw	65
  1417  02D9  343E               	retlw	62
  1418  02DA  347E               	retlw	126
  1419  02DB  3411               	retlw	17
  1420  02DC  3411               	retlw	17
  1421  02DD  3411               	retlw	17
  1422  02DE  347E               	retlw	126
  1423  02DF  347F               	retlw	127
  1424  02E0  3449               	retlw	73
  1425  02E1  3449               	retlw	73
  1426  02E2  3449               	retlw	73
  1427  02E3  3436               	retlw	54
  1428  02E4  343E               	retlw	62
  1429  02E5  3441               	retlw	65
  1430  02E6  3441               	retlw	65
  1431  02E7  3441               	retlw	65
  1432  02E8  3422               	retlw	34
  1433  02E9  347F               	retlw	127
  1434  02EA  3441               	retlw	65
  1435  02EB  3441               	retlw	65
  1436  02EC  3422               	retlw	34
  1437  02ED  341C               	retlw	28
  1438  02EE  347F               	retlw	127
  1439  02EF  3449               	retlw	73
  1440  02F0  3449               	retlw	73
  1441  02F1  3449               	retlw	73
  1442  02F2  3441               	retlw	65
  1443  02F3  347F               	retlw	127
  1444  02F4  3409               	retlw	9
  1445  02F5  3409               	retlw	9
  1446  02F6  3409               	retlw	9
  1447  02F7  3401               	retlw	1
  1448  02F8  343E               	retlw	62
  1449  02F9  3441               	retlw	65
  1450  02FA  3449               	retlw	73
  1451  02FB  3449               	retlw	73
  1452  02FC  347A               	retlw	122
  1453  02FD  347F               	retlw	127
  1454  02FE  3408               	retlw	8
  1455  02FF  3408               	retlw	8
  1456  0300  3408               	retlw	8
  1457  0301  347F               	retlw	127
  1458  0302  3400               	retlw	0
  1459  0303  3441               	retlw	65
  1460  0304  347F               	retlw	127
  1461  0305  3441               	retlw	65
  1462  0306  3400               	retlw	0
  1463  0307  3420               	retlw	32
  1464  0308  3440               	retlw	64
  1465  0309  3441               	retlw	65
  1466  030A  343F               	retlw	63
  1467  030B  3401               	retlw	1
  1468  030C  347F               	retlw	127
  1469  030D  3408               	retlw	8
  1470  030E  3414               	retlw	20
  1471  030F  3422               	retlw	34
  1472  0310  3441               	retlw	65
  1473  0311  347F               	retlw	127
  1474  0312  3440               	retlw	64
  1475  0313  3440               	retlw	64
  1476  0314  3440               	retlw	64
  1477  0315  3440               	retlw	64
  1478  0316  347F               	retlw	127
  1479  0317  3402               	retlw	2
  1480  0318  340C               	retlw	12
  1481  0319  3402               	retlw	2
  1482  031A  347F               	retlw	127
  1483  031B  347F               	retlw	127
  1484  031C  3404               	retlw	4
  1485  031D  3408               	retlw	8
  1486  031E  3410               	retlw	16
  1487  031F  347F               	retlw	127
  1488  0320  343E               	retlw	62
  1489  0321  3441               	retlw	65
  1490  0322  3441               	retlw	65
  1491  0323  3441               	retlw	65
  1492  0324  343E               	retlw	62
  1493  0325  347F               	retlw	127
  1494  0326  3409               	retlw	9
  1495  0327  3409               	retlw	9
  1496  0328  3409               	retlw	9
  1497  0329  3406               	retlw	6
  1498  032A  343E               	retlw	62
  1499  032B  3441               	retlw	65
  1500  032C  3451               	retlw	81
  1501  032D  3421               	retlw	33
  1502  032E  345E               	retlw	94
  1503  032F  347F               	retlw	127
  1504  0330  3409               	retlw	9
  1505  0331  3419               	retlw	25
  1506  0332  3429               	retlw	41
  1507  0333  3446               	retlw	70
  1508  0334  3446               	retlw	70
  1509  0335  3449               	retlw	73
  1510  0336  3449               	retlw	73
  1511  0337  3449               	retlw	73
  1512  0338  3431               	retlw	49
  1513  0339  3401               	retlw	1
  1514  033A  3401               	retlw	1
  1515  033B  347F               	retlw	127
  1516  033C  3401               	retlw	1
  1517  033D  3401               	retlw	1
  1518  033E  343F               	retlw	63
  1519  033F  3440               	retlw	64
  1520  0340  3440               	retlw	64
  1521  0341  3440               	retlw	64
  1522  0342  343F               	retlw	63
  1523  0343  341F               	retlw	31
  1524  0344  3420               	retlw	32
  1525  0345  3440               	retlw	64
  1526  0346  3420               	retlw	32
  1527  0347  341F               	retlw	31
  1528  0348  343F               	retlw	63
  1529  0349  3440               	retlw	64
  1530  034A  3438               	retlw	56
  1531  034B  3440               	retlw	64
  1532  034C  343F               	retlw	63
  1533  034D  3463               	retlw	99
  1534  034E  3414               	retlw	20
  1535  034F  3408               	retlw	8
  1536  0350  3414               	retlw	20
  1537  0351  3463               	retlw	99
  1538  0352  3407               	retlw	7
  1539  0353  3408               	retlw	8
  1540  0354  3470               	retlw	112
  1541  0355  3408               	retlw	8
  1542  0356  3407               	retlw	7
  1543  0357  3461               	retlw	97
  1544  0358  3451               	retlw	81
  1545  0359  3449               	retlw	73
  1546  035A  3445               	retlw	69
  1547  035B  3443               	retlw	67
  1548  035C  3400               	retlw	0
  1549  035D  347F               	retlw	127
  1550  035E  3441               	retlw	65
  1551  035F  3441               	retlw	65
  1552  0360  3400               	retlw	0
  1553  0361  3402               	retlw	2
  1554  0362  3404               	retlw	4
  1555  0363  3408               	retlw	8
  1556  0364  3410               	retlw	16
  1557  0365  3420               	retlw	32
  1558  0366  3400               	retlw	0
  1559  0367  3441               	retlw	65
  1560  0368  3441               	retlw	65
  1561  0369  347F               	retlw	127
  1562  036A  3400               	retlw	0
  1563  036B  3404               	retlw	4
  1564  036C  3402               	retlw	2
  1565  036D  3401               	retlw	1
  1566  036E  3402               	retlw	2
  1567  036F  3404               	retlw	4
  1568  0370  3440               	retlw	64
  1569  0371  3440               	retlw	64
  1570  0372  3440               	retlw	64
  1571  0373  3440               	retlw	64
  1572  0374  3440               	retlw	64
  1573  0375  3400               	retlw	0
  1574  0376  3401               	retlw	1
  1575  0377  3402               	retlw	2
  1576  0378  3404               	retlw	4
  1577  0379  3400               	retlw	0
  1578  037A  3420               	retlw	32
  1579  037B  3454               	retlw	84
  1580  037C  3454               	retlw	84
  1581  037D  3454               	retlw	84
  1582  037E  3478               	retlw	120
  1583  037F  347F               	retlw	127
  1584  0380  3448               	retlw	72
  1585  0381  3444               	retlw	68
  1586  0382  3444               	retlw	68
  1587  0383  3438               	retlw	56
  1588  0384  3438               	retlw	56
  1589  0385  3444               	retlw	68
  1590  0386  3444               	retlw	68
  1591  0387  3444               	retlw	68
  1592  0388  3420               	retlw	32
  1593  0389  3438               	retlw	56
  1594  038A  3444               	retlw	68
  1595  038B  3444               	retlw	68
  1596  038C  3448               	retlw	72
  1597  038D  347F               	retlw	127
  1598  038E  3438               	retlw	56
  1599  038F  3454               	retlw	84
  1600  0390  3454               	retlw	84
  1601  0391  3454               	retlw	84
  1602  0392  3418               	retlw	24
  1603  0393  3408               	retlw	8
  1604  0394  347E               	retlw	126
  1605  0395  3409               	retlw	9
  1606  0396  3401               	retlw	1
  1607  0397  3402               	retlw	2
  1608  0398  340C               	retlw	12
  1609  0399  3452               	retlw	82
  1610  039A  3452               	retlw	82
  1611  039B  3452               	retlw	82
  1612  039C  343E               	retlw	62
  1613  039D  347F               	retlw	127
  1614  039E  3408               	retlw	8
  1615  039F  3404               	retlw	4
  1616  03A0  3404               	retlw	4
  1617  03A1  3478               	retlw	120
  1618  03A2  3400               	retlw	0
  1619  03A3  3444               	retlw	68
  1620  03A4  347D               	retlw	125
  1621  03A5  3440               	retlw	64
  1622  03A6  3400               	retlw	0
  1623  03A7  3420               	retlw	32
  1624  03A8  3440               	retlw	64
  1625  03A9  3444               	retlw	68
  1626  03AA  343D               	retlw	61
  1627  03AB  3400               	retlw	0
  1628  03AC  347F               	retlw	127
  1629  03AD  3410               	retlw	16
  1630  03AE  3428               	retlw	40
  1631  03AF  3444               	retlw	68
  1632  03B0  3400               	retlw	0
  1633  03B1  3400               	retlw	0
  1634  03B2  3441               	retlw	65
  1635  03B3  347F               	retlw	127
  1636  03B4  3440               	retlw	64
  1637  03B5  3400               	retlw	0
  1638  03B6  347C               	retlw	124
  1639  03B7  3404               	retlw	4
  1640  03B8  3418               	retlw	24
  1641  03B9  3404               	retlw	4
  1642  03BA  3478               	retlw	120
  1643  03BB  347C               	retlw	124
  1644  03BC  3408               	retlw	8
  1645  03BD  3404               	retlw	4
  1646  03BE  3404               	retlw	4
  1647  03BF  3478               	retlw	120
  1648  03C0  3438               	retlw	56
  1649  03C1  3444               	retlw	68
  1650  03C2  3444               	retlw	68
  1651  03C3  3444               	retlw	68
  1652  03C4  3438               	retlw	56
  1653  03C5  347C               	retlw	124
  1654  03C6  3414               	retlw	20
  1655  03C7  3414               	retlw	20
  1656  03C8  3414               	retlw	20
  1657  03C9  3408               	retlw	8
  1658  03CA  3408               	retlw	8
  1659  03CB  3414               	retlw	20
  1660  03CC  3414               	retlw	20
  1661  03CD  3418               	retlw	24
  1662  03CE  347C               	retlw	124
  1663  03CF  347C               	retlw	124
  1664  03D0  3408               	retlw	8
  1665  03D1  3404               	retlw	4
  1666  03D2  3404               	retlw	4
  1667  03D3  3408               	retlw	8
  1668  03D4  3448               	retlw	72
  1669  03D5  3454               	retlw	84
  1670  03D6  3454               	retlw	84
  1671  03D7  3454               	retlw	84
  1672  03D8  3420               	retlw	32
  1673  03D9  3404               	retlw	4
  1674  03DA  343F               	retlw	63
  1675  03DB  3444               	retlw	68
  1676  03DC  3440               	retlw	64
  1677  03DD  3420               	retlw	32
  1678  03DE  343C               	retlw	60
  1679  03DF  3440               	retlw	64
  1680  03E0  3440               	retlw	64
  1681  03E1  3420               	retlw	32
  1682  03E2  347C               	retlw	124
  1683  03E3  341C               	retlw	28
  1684  03E4  3420               	retlw	32
  1685  03E5  3440               	retlw	64
  1686  03E6  3420               	retlw	32
  1687  03E7  341C               	retlw	28
  1688  03E8  343C               	retlw	60
  1689  03E9  3440               	retlw	64
  1690  03EA  3430               	retlw	48
  1691  03EB  3440               	retlw	64
  1692  03EC  343C               	retlw	60
  1693  03ED  3444               	retlw	68
  1694  03EE  3428               	retlw	40
  1695  03EF  3410               	retlw	16
  1696  03F0  3428               	retlw	40
  1697  03F1  3444               	retlw	68
  1698  03F2  340C               	retlw	12
  1699  03F3  3450               	retlw	80
  1700  03F4  3450               	retlw	80
  1701  03F5  3450               	retlw	80
  1702  03F6  343C               	retlw	60
  1703  03F7  3444               	retlw	68
  1704  03F8  3464               	retlw	100
  1705  03F9  3454               	retlw	84
  1706  03FA  344C               	retlw	76
  1707  03FB  3444               	retlw	68
  1708  03FC  3400               	retlw	0
  1709  03FD  3408               	retlw	8
  1710  03FE  3436               	retlw	54
  1711  03FF  3441               	retlw	65
  1712  0400  3400               	retlw	0
  1713  0401  3400               	retlw	0
  1714  0402  3400               	retlw	0
  1715  0403  347F               	retlw	127
  1716  0404  3400               	retlw	0
  1717  0405  3400               	retlw	0
  1718  0406  3400               	retlw	0
  1719  0407  3441               	retlw	65
  1720  0408  3436               	retlw	54
  1721  0409  3408               	retlw	8
  1722  040A  3400               	retlw	0
  1723  040B  3430               	retlw	48
  1724  040C  347C               	retlw	124
  1725  040D  347F               	retlw	127
  1726  040E  347C               	retlw	124
  1727  040F  3430               	retlw	48
  1728  0410  3478               	retlw	120
  1729  0411  3446               	retlw	70
  1730  0412  3441               	retlw	65
  1731  0413  3446               	retlw	70
  1732  0414  3478               	retlw	120
  1733  0415                     __end_of_ASCII:	
  1734  0415                     _LARGEnum:	
  1735  0415  34C0               	retlw	192
  1736  0416  3401               	retlw	1
  1737  0417  34C0               	retlw	192
  1738  0418  3401               	retlw	1
  1739  0419  34C0               	retlw	192
  1740  041A  3401               	retlw	1
  1741  041B  34C0               	retlw	192
  1742  041C  3401               	retlw	1
  1743  041D  34C0               	retlw	192
  1744  041E  3401               	retlw	1
  1745  041F  3400               	retlw	0
  1746  0420  3400               	retlw	0
  1747  0421  3400               	retlw	0
  1748  0422  3400               	retlw	0
  1749  0423  3400               	retlw	0
  1750  0424  3400               	retlw	0
  1751  0425  3400               	retlw	0
  1752  0426  3400               	retlw	0
  1753  0427  3400               	retlw	0
  1754  0428  3400               	retlw	0
  1755  0429  3400               	retlw	0
  1756  042A  3400               	retlw	0
  1757  042B  3400               	retlw	0
  1758  042C  340E               	retlw	14
  1759  042D  3400               	retlw	0
  1760  042E  340E               	retlw	14
  1761  042F  3400               	retlw	0
  1762  0430  340E               	retlw	14
  1763  0431  3400               	retlw	0
  1764  0432  3400               	retlw	0
  1765  0433  3400               	retlw	0
  1766  0434  3400               	retlw	0
  1767  0435  3400               	retlw	0
  1768  0436  3400               	retlw	0
  1769  0437  3400               	retlw	0
  1770  0438  3400               	retlw	0
  1771  0439  3400               	retlw	0
  1772  043A  3400               	retlw	0
  1773  043B  3400               	retlw	0
  1774  043C  3400               	retlw	0
  1775  043D  3400               	retlw	0
  1776  043E  3400               	retlw	0
  1777  043F  3400               	retlw	0
  1778  0440  3400               	retlw	0
  1779  0441  3400               	retlw	0
  1780  0442  3400               	retlw	0
  1781  0443  3400               	retlw	0
  1782  0444  3400               	retlw	0
  1783  0445  3400               	retlw	0
  1784  0446  3400               	retlw	0
  1785  0447  3400               	retlw	0
  1786  0448  3400               	retlw	0
  1787  0449  3400               	retlw	0
  1788  044A  3400               	retlw	0
  1789  044B  3400               	retlw	0
  1790  044C  3400               	retlw	0
  1791  044D  3400               	retlw	0
  1792  044E  3400               	retlw	0
  1793  044F  3400               	retlw	0
  1794  0450  3400               	retlw	0
  1795  0451  3400               	retlw	0
  1796  0452  3400               	retlw	0
  1797  0453  34FC               	retlw	252
  1798  0454  3403               	retlw	3
  1799  0455  34FE               	retlw	254
  1800  0456  3407               	retlw	7
  1801  0457  34FF               	retlw	255
  1802  0458  340F               	retlw	15
  1803  0459  3403               	retlw	3
  1804  045A  340C               	retlw	12
  1805  045B  3403               	retlw	3
  1806  045C  340C               	retlw	12
  1807  045D  34FF               	retlw	255
  1808  045E  340F               	retlw	15
  1809  045F  34FE               	retlw	254
  1810  0460  3407               	retlw	7
  1811  0461  34FC               	retlw	252
  1812  0462  3403               	retlw	3
  1813  0463  3400               	retlw	0
  1814  0464  3400               	retlw	0
  1815  0465  3400               	retlw	0
  1816  0466  3400               	retlw	0
  1817  0467  3400               	retlw	0
  1818  0468  3400               	retlw	0
  1819  0469  3430               	retlw	48
  1820  046A  3400               	retlw	0
  1821  046B  3438               	retlw	56
  1822  046C  3400               	retlw	0
  1823  046D  341C               	retlw	28
  1824  046E  3400               	retlw	0
  1825  046F  34FF               	retlw	255
  1826  0470  340F               	retlw	15
  1827  0471  34FF               	retlw	255
  1828  0472  340F               	retlw	15
  1829  0473  34FF               	retlw	255
  1830  0474  340F               	retlw	15
  1831  0475  3400               	retlw	0
  1832  0476  3400               	retlw	0
  1833  0477  3400               	retlw	0
  1834  0478  3400               	retlw	0
  1835  0479  3400               	retlw	0
  1836  047A  3400               	retlw	0
  1837  047B  340C               	retlw	12
  1838  047C  340C               	retlw	12
  1839  047D  340E               	retlw	14
  1840  047E  340E               	retlw	14
  1841  047F  340F               	retlw	15
  1842  0480  340F               	retlw	15
  1843  0481  3483               	retlw	131
  1844  0482  340F               	retlw	15
  1845  0483  34C3               	retlw	195
  1846  0484  340D               	retlw	13
  1847  0485  34FF               	retlw	255
  1848  0486  340C               	retlw	12
  1849  0487  347E               	retlw	126
  1850  0488  340C               	retlw	12
  1851  0489  343C               	retlw	60
  1852  048A  340C               	retlw	12
  1853  048B  3400               	retlw	0
  1854  048C  3400               	retlw	0
  1855  048D  3400               	retlw	0
  1856  048E  3400               	retlw	0
  1857  048F  3404               	retlw	4
  1858  0490  3403               	retlw	3
  1859  0491  340E               	retlw	14
  1860  0492  3407               	retlw	7
  1861  0493  340F               	retlw	15
  1862  0494  340F               	retlw	15
  1863  0495  3463               	retlw	99
  1864  0496  340C               	retlw	12
  1865  0497  3463               	retlw	99
  1866  0498  340C               	retlw	12
  1867  0499  34FF               	retlw	255
  1868  049A  340F               	retlw	15
  1869  049B  34FE               	retlw	254
  1870  049C  3407               	retlw	7
  1871  049D  349C               	retlw	156
  1872  049E  3403               	retlw	3
  1873  049F  3400               	retlw	0
  1874  04A0  3400               	retlw	0
  1875  04A1  3400               	retlw	0
  1876  04A2  3400               	retlw	0
  1877  04A3  34C0               	retlw	192
  1878  04A4  3401               	retlw	1
  1879  04A5  34E0               	retlw	224
  1880  04A6  3401               	retlw	1
  1881  04A7  34F8               	retlw	248
  1882  04A8  3401               	retlw	1
  1883  04A9  349C               	retlw	156
  1884  04AA  3401               	retlw	1
  1885  04AB  348E               	retlw	142
  1886  04AC  3401               	retlw	1
  1887  04AD  34FF               	retlw	255
  1888  04AE  340F               	retlw	15
  1889  04AF  34FF               	retlw	255
  1890  04B0  340F               	retlw	15
  1891  04B1  34FF               	retlw	255
  1892  04B2  340F               	retlw	15
  1893  04B3  3480               	retlw	128
  1894  04B4  3401               	retlw	1
  1895  04B5  3400               	retlw	0
  1896  04B6  3400               	retlw	0
  1897  04B7  3478               	retlw	120
  1898  04B8  3403               	retlw	3
  1899  04B9  347F               	retlw	127
  1900  04BA  3407               	retlw	7
  1901  04BB  347F               	retlw	127
  1902  04BC  340F               	retlw	15
  1903  04BD  3433               	retlw	51
  1904  04BE  340C               	retlw	12
  1905  04BF  3433               	retlw	51
  1906  04C0  340C               	retlw	12
  1907  04C1  34F3               	retlw	243
  1908  04C2  340F               	retlw	15
  1909  04C3  34E3               	retlw	227
  1910  04C4  3407               	retlw	7
  1911  04C5  34C3               	retlw	195
  1912  04C6  3403               	retlw	3
  1913  04C7  3400               	retlw	0
  1914  04C8  3400               	retlw	0
  1915  04C9  3400               	retlw	0
  1916  04CA  3400               	retlw	0
  1917  04CB  34F8               	retlw	248
  1918  04CC  3401               	retlw	1
  1919  04CD  34FE               	retlw	254
  1920  04CE  3407               	retlw	7
  1921  04CF  34FF               	retlw	255
  1922  04D0  340F               	retlw	15
  1923  04D1  3423               	retlw	35
  1924  04D2  340C               	retlw	12
  1925  04D3  3433               	retlw	51
  1926  04D4  340C               	retlw	12
  1927  04D5  34F7               	retlw	247
  1928  04D6  340F               	retlw	15
  1929  04D7  34E7               	retlw	231
  1930  04D8  3407               	retlw	7
  1931  04D9  34C6               	retlw	198
  1932  04DA  3403               	retlw	3
  1933  04DB  3400               	retlw	0
  1934  04DC  3400               	retlw	0
  1935  04DD  3400               	retlw	0
  1936  04DE  3400               	retlw	0
  1937  04DF  3403               	retlw	3
  1938  04E0  3400               	retlw	0
  1939  04E1  3403               	retlw	3
  1940  04E2  3400               	retlw	0
  1941  04E3  3403               	retlw	3
  1942  04E4  340E               	retlw	14
  1943  04E5  34C3               	retlw	195
  1944  04E6  340F               	retlw	15
  1945  04E7  34F3               	retlw	243
  1946  04E8  340F               	retlw	15
  1947  04E9  34FB               	retlw	251
  1948  04EA  3400               	retlw	0
  1949  04EB  340F               	retlw	15
  1950  04EC  3400               	retlw	0
  1951  04ED  3403               	retlw	3
  1952  04EE  3400               	retlw	0
  1953  04EF  3400               	retlw	0
  1954  04F0  3400               	retlw	0
  1955  04F1  3400               	retlw	0
  1956  04F2  3400               	retlw	0
  1957  04F3  349C               	retlw	156
  1958  04F4  3403               	retlw	3
  1959  04F5  34FE               	retlw	254
  1960  04F6  3407               	retlw	7
  1961  04F7  34FF               	retlw	255
  1962  04F8  340F               	retlw	15
  1963  04F9  3463               	retlw	99
  1964  04FA  340C               	retlw	12
  1965  04FB  3463               	retlw	99
  1966  04FC  340C               	retlw	12
  1967  04FD  34FF               	retlw	255
  1968  04FE  340F               	retlw	15
  1969  04FF  34FE               	retlw	254
  1970  0500  3407               	retlw	7
  1971  0501  349C               	retlw	156
  1972  0502  3403               	retlw	3
  1973  0503  3400               	retlw	0
  1974  0504  3400               	retlw	0
  1975  0505  3400               	retlw	0
  1976  0506  3400               	retlw	0
  1977  0507  343C               	retlw	60
  1978  0508  3406               	retlw	6
  1979  0509  347E               	retlw	126
  1980  050A  340E               	retlw	14
  1981  050B  34FF               	retlw	255
  1982  050C  340E               	retlw	14
  1983  050D  34C3               	retlw	195
  1984  050E  340C               	retlw	12
  1985  050F  3443               	retlw	67
  1986  0510  340C               	retlw	12
  1987  0511  34FF               	retlw	255
  1988  0512  340F               	retlw	15
  1989  0513  34FE               	retlw	254
  1990  0514  3407               	retlw	7
  1991  0515  34F8               	retlw	248
  1992  0516  3401               	retlw	1
  1993  0517  3400               	retlw	0
  1994  0518  3400               	retlw	0
  1995  0519                     __end_of_LARGEnum:	
  1996  0519                     _dpowers:	
  1997  0519  3401               	retlw	1
  1998  051A  3400               	retlw	0
  1999  051B  340A               	retlw	10
  2000  051C  3400               	retlw	0
  2001  051D  3464               	retlw	100
  2002  051E  3400               	retlw	0
  2003  051F  34E8               	retlw	232
  2004  0520  3403               	retlw	3
  2005  0521  3410               	retlw	16
  2006  0522  3427               	retlw	39
  2007  0523                     __end_of_dpowers:	
  2008  000B                     _INTCONbits	set	11
  2009  0011                     _PIR1bits	set	17
  2010  000D                     _PORTB	set	13
  2011  0018                     _T1CONbits	set	24
  2012  0017                     _TMR1H	set	23
  2013  0018                     _CARRY	set	24
  2014  005F                     _GIE	set	95
  2015  009D                     _ADCON0	set	157
  2016  009D                     _ADCON0bits	set	157
  2017  009E                     _ADCON1	set	158
  2018  009F                     _ADCON2	set	159
  2019  009C                     _ADRESH	set	156
  2020  009B                     _ADRESL	set	155
  2021  0095                     _OPTION_REG	set	149
  2022  0095                     _OPTION_REGbits	set	149
  2023  0099                     _OSCCON	set	153
  2024  0091                     _PIE1bits	set	145
  2025  008C                     _TRISA	set	140
  2026  008C                     _TRISAbits	set	140
  2027  008D                     _TRISB	set	141
  2028  008D                     _TRISBbits	set	141
  2029  008E                     _TRISC	set	142
  2030  008E                     _TRISCbits	set	142
  2031  04E9                     _GO_nDONE	set	1257
  2032  0118                     _DACCON0bits	set	280
  2033  0119                     _DACCON1	set	281
  2034  0117                     _FVRCONbits	set	279
  2035  010C                     _LATAbits	set	268
  2036  010D                     _LATBbits	set	269
  2037  010E                     _LATCbits	set	270
  2038  0869                     _LATB1	set	2153
  2039  086D                     _LATB5	set	2157
  2040  0191                     _EEADR	set	401
  2041  018C                     _ANSELA	set	396
  2042  018C                     _ANSELAbits	set	396
  2043  018D                     _ANSELB	set	397
  2044  018D                     _ANSELBbits	set	397
  2045  0195                     _EECON1	set	405
  2046  0196                     _EECON2	set	406
  2047  0193                     _EEDATA	set	403
  2048  0197                     _VREGCONbits	set	407
  2049  0CA8                     _RD	set	3240
  2050  0CA9                     _WR	set	3241
  2051  0CAA                     _WREN	set	3242
  2052  0396                     _IOCBFbits	set	918
  2053  0395                     _IOCBNbits	set	917
  2054  0511                     _OPA1CONbits	set	1297
  2055  0523                     STR_10:	
  2056  0523  340D               	retlw	13
  2057  0524  340A               	retlw	10
  2058  0525  3420               	retlw	32	;' '
  2059  0526  3454               	retlw	84	;'T'
  2060  0527  3465               	retlw	101	;'e'
  2061  0528  346D               	retlw	109	;'m'
  2062  0529  3470               	retlw	112	;'p'
  2063  052A  3465               	retlw	101	;'e'
  2064  052B  3472               	retlw	114	;'r'
  2065  052C  3461               	retlw	97	;'a'
  2066  052D  3474               	retlw	116	;'t'
  2067  052E  3475               	retlw	117	;'u'
  2068  052F  3472               	retlw	114	;'r'
  2069  0530  3465               	retlw	101	;'e'
  2070  0531  3420               	retlw	32	;' '
  2071  0532  3469               	retlw	105	;'i'
  2072  0533  346E               	retlw	110	;'n'
  2073  0534  3474               	retlw	116	;'t'
  2074  0535  343A               	retlw	58	;':'
  2075  0536  3420               	retlw	32	;' '
  2076  0537  3425               	retlw	37	;'%'
  2077  0538  3464               	retlw	100	;'d'
  2078  0539  3420               	retlw	32	;' '
  2079  053A  3464               	retlw	100	;'d'
  2080  053B  3465               	retlw	101	;'e'
  2081  053C  3467               	retlw	103	;'g'
  2082  053D  3400               	retlw	0
  2083  053E                     STR_7:	
  2084  053E  3425               	retlw	37	;'%'
  2085  053F  3430               	retlw	48	;'0'
  2086  0540  3433               	retlw	51	;'3'
  2087  0541  3464               	retlw	100	;'d'
  2088  0542  346D               	retlw	109	;'m'
  2089  0543  3467               	retlw	103	;'g'
  2090  0544  342F               	retlw	47	;'/'
  2091  0545  3464               	retlw	100	;'d'
  2092  0546  346C               	retlw	108	;'l'
  2093  0547  3425               	retlw	37	;'%'
  2094  0548  3430               	retlw	48	;'0'
  2095  0549  3432               	retlw	50	;'2'
  2096  054A  3464               	retlw	100	;'d'
  2097  054B  342F               	retlw	47	;'/'
  2098  054C  3425               	retlw	37	;'%'
  2099  054D  3430               	retlw	48	;'0'
  2100  054E  3432               	retlw	50	;'2'
  2101  054F  3464               	retlw	100	;'d'
  2102  0550  342F               	retlw	47	;'/'
  2103  0551  3425               	retlw	37	;'%'
  2104  0552  3430               	retlw	48	;'0'
  2105  0553  3432               	retlw	50	;'2'
  2106  0554  3464               	retlw	100	;'d'
  2107  0555  3400               	retlw	0
  2108  0556                     STR_9:	
  2109  0556  3425               	retlw	37	;'%'
  2110  0557  3464               	retlw	100	;'d'
  2111  0558  342E               	retlw	46	;'.'
  2112  0559  3425               	retlw	37	;'%'
  2113  055A  3464               	retlw	100	;'d'
  2114  055B  346D               	retlw	109	;'m'
  2115  055C  346D               	retlw	109	;'m'
  2116  055D  346F               	retlw	111	;'o'
  2117  055E  346C               	retlw	108	;'l'
  2118  055F  342F               	retlw	47	;'/'
  2119  0560  344C               	retlw	76	;'L'
  2120  0561  3420               	retlw	32	;' '
  2121  0562  3425               	retlw	37	;'%'
  2122  0563  3430               	retlw	48	;'0'
  2123  0564  3432               	retlw	50	;'2'
  2124  0565  3464               	retlw	100	;'d'
  2125  0566  343A               	retlw	58	;':'
  2126  0567  3425               	retlw	37	;'%'
  2127  0568  3430               	retlw	48	;'0'
  2128  0569  3432               	retlw	50	;'2'
  2129  056A  3464               	retlw	100	;'d'
  2130  056B  3400               	retlw	0
  2131  056C                     STR_14:	
  2132  056C  3420               	retlw	32	;' '
  2133  056D  3454               	retlw	84	;'T'
  2134  056E  3469               	retlw	105	;'i'
  2135  056F  346D               	retlw	109	;'m'
  2136  0570  3465               	retlw	101	;'e'
  2137  0571  343D               	retlw	61	;'='
  2138  0572  3420               	retlw	32	;' '
  2139  0573  3425               	retlw	37	;'%'
  2140  0574  3430               	retlw	48	;'0'
  2141  0575  3432               	retlw	50	;'2'
  2142  0576  3464               	retlw	100	;'d'
  2143  0577  343A               	retlw	58	;':'
  2144  0578  3425               	retlw	37	;'%'
  2145  0579  3430               	retlw	48	;'0'
  2146  057A  3432               	retlw	50	;'2'
  2147  057B  3464               	retlw	100	;'d'
  2148  057C  3420               	retlw	32	;' '
  2149  057D  3420               	retlw	32	;' '
  2150  057E  3400               	retlw	0
  2151  057F                     STR_13:	
  2152  057F  342E               	retlw	46	;'.'
  2153  0580  342E               	retlw	46	;'.'
  2154  0581  342E               	retlw	46	;'.'
  2155  0582  3446               	retlw	70	;'F'
  2156  0583  3461               	retlw	97	;'a'
  2157  0584  3475               	retlw	117	;'u'
  2158  0585  346C               	retlw	108	;'l'
  2159  0586  3474               	retlw	116	;'t'
  2160  0587  3479               	retlw	121	;'y'
  2161  0588  3420               	retlw	32	;' '
  2162  0589  3453               	retlw	83	;'S'
  2163  058A  3474               	retlw	116	;'t'
  2164  058B  3472               	retlw	114	;'r'
  2165  058C  3469               	retlw	105	;'i'
  2166  058D  3470               	retlw	112	;'p'
  2167  058E  342E               	retlw	46	;'.'
  2168  058F  342E               	retlw	46	;'.'
  2169  0590  3400               	retlw	0
  2170  0591                     STR_15:	
  2171  0591  342E               	retlw	46	;'.'
  2172  0592  342E               	retlw	46	;'.'
  2173  0593  342E               	retlw	46	;'.'
  2174  0594  3453               	retlw	83	;'S'
  2175  0595  3474               	retlw	116	;'t'
  2176  0596  3472               	retlw	114	;'r'
  2177  0597  3469               	retlw	105	;'i'
  2178  0598  3470               	retlw	112	;'p'
  2179  0599  3420               	retlw	32	;' '
  2180  059A  3449               	retlw	73	;'I'
  2181  059B  346E               	retlw	110	;'n'
  2182  059C  3473               	retlw	115	;'s'
  2183  059D  3465               	retlw	101	;'e'
  2184  059E  3472               	retlw	114	;'r'
  2185  059F  3474               	retlw	116	;'t'
  2186  05A0  3465               	retlw	101	;'e'
  2187  05A1  3464               	retlw	100	;'d'
  2188  05A2  3400               	retlw	0
  2189  05A3                     STR_17:	
  2190  05A3  3420               	retlw	32	;' '
  2191  05A4  3420               	retlw	32	;' '
  2192  05A5  3420               	retlw	32	;' '
  2193  05A6  3420               	retlw	32	;' '
  2194  05A7  3420               	retlw	32	;' '
  2195  05A8  3420               	retlw	32	;' '
  2196  05A9  3420               	retlw	32	;' '
  2197  05AA  3420               	retlw	32	;' '
  2198  05AB  3420               	retlw	32	;' '
  2199  05AC  3420               	retlw	32	;' '
  2200  05AD  3420               	retlw	32	;' '
  2201  05AE  3420               	retlw	32	;' '
  2202  05AF  3420               	retlw	32	;' '
  2203  05B0  3420               	retlw	32	;' '
  2204  05B1  3420               	retlw	32	;' '
  2205  05B2  3420               	retlw	32	;' '
  2206  05B3  3400               	retlw	0
  2207  05B4                     STR_12:	
  2208  05B4  3420               	retlw	32	;' '
  2209  05B5  3420               	retlw	32	;' '
  2210  05B6  3420               	retlw	32	;' '
  2211  05B7  3420               	retlw	32	;' '
  2212  05B8  3449               	retlw	73	;'I'
  2213  05B9  346E               	retlw	110	;'n'
  2214  05BA  3473               	retlw	115	;'s'
  2215  05BB  3465               	retlw	101	;'e'
  2216  05BC  3472               	retlw	114	;'r'
  2217  05BD  3474               	retlw	116	;'t'
  2218  05BE  3465               	retlw	101	;'e'
  2219  05BF  3464               	retlw	100	;'d'
  2220  05C0  3420               	retlw	32	;' '
  2221  05C1  3420               	retlw	32	;' '
  2222  05C2  3420               	retlw	32	;' '
  2223  05C3  3420               	retlw	32	;' '
  2224  05C4  3400               	retlw	0
  2225  05C5                     STR_11:	
  2226  05C5  3420               	retlw	32	;' '
  2227  05C6  3420               	retlw	32	;' '
  2228  05C7  3420               	retlw	32	;' '
  2229  05C8  3453               	retlw	83	;'S'
  2230  05C9  3461               	retlw	97	;'a'
  2231  05CA  346D               	retlw	109	;'m'
  2232  05CB  3470               	retlw	112	;'p'
  2233  05CC  346C               	retlw	108	;'l'
  2234  05CD  3465               	retlw	101	;'e'
  2235  05CE  3420               	retlw	32	;' '
  2236  05CF  344E               	retlw	78	;'N'
  2237  05D0  346F               	retlw	111	;'o'
  2238  05D1  3474               	retlw	116	;'t'
  2239  05D2  3420               	retlw	32	;' '
  2240  05D3  3420               	retlw	32	;' '
  2241  05D4  3420               	retlw	32	;' '
  2242  05D5  3400               	retlw	0
  2243  05D6                     STR_18:	
  2244  05D6  3453               	retlw	83	;'S'
  2245  05D7  3474               	retlw	116	;'t'
  2246  05D8  3472               	retlw	114	;'r'
  2247  05D9  3469               	retlw	105	;'i'
  2248  05DA  3470               	retlw	112	;'p'
  2249  05DB  344E               	retlw	78	;'N'
  2250  05DC  346F               	retlw	111	;'o'
  2251  05DD  3474               	retlw	116	;'t'
  2252  05DE  3449               	retlw	73	;'I'
  2253  05DF  346E               	retlw	110	;'n'
  2254  05E0  3473               	retlw	115	;'s'
  2255  05E1  3465               	retlw	101	;'e'
  2256  05E2  3472               	retlw	114	;'r'
  2257  05E3  3474               	retlw	116	;'t'
  2258  05E4  3465               	retlw	101	;'e'
  2259  05E5  3464               	retlw	100	;'d'
  2260  05E6  3400               	retlw	0
  2261  05E7                     STR_16:	
  2262  05E7  3450               	retlw	80	;'P'
  2263  05E8  346C               	retlw	108	;'l'
  2264  05E9  3461               	retlw	97	;'a'
  2265  05EA  3463               	retlw	99	;'c'
  2266  05EB  3465               	retlw	101	;'e'
  2267  05EC  3420               	retlw	32	;' '
  2268  05ED  3474               	retlw	116	;'t'
  2269  05EE  3468               	retlw	104	;'h'
  2270  05EF  3465               	retlw	101	;'e'
  2271  05F0  3420               	retlw	32	;' '
  2272  05F1  3453               	retlw	83	;'S'
  2273  05F2  3461               	retlw	97	;'a'
  2274  05F3  346D               	retlw	109	;'m'
  2275  05F4  3470               	retlw	112	;'p'
  2276  05F5  346C               	retlw	108	;'l'
  2277  05F6  3465               	retlw	101	;'e'
  2278  05F7  3400               	retlw	0
  2279  05F8                     STR_1:	
  2280  05F8  342E               	retlw	46	;'.'
  2281  05F9  342E               	retlw	46	;'.'
  2282  05FA  346D               	retlw	109	;'m'
  2283  05FB  346F               	retlw	111	;'o'
  2284  05FC  346E               	retlw	110	;'n'
  2285  05FD  3474               	retlw	116	;'t'
  2286  05FE  3468               	retlw	104	;'h'
  2287  05FF  3420               	retlw	32	;' '
  2288  0600  343D               	retlw	61	;'='
  2289  0601  3420               	retlw	32	;' '
  2290  0602  3425               	retlw	37	;'%'
  2291  0603  3430               	retlw	48	;'0'
  2292  0604  3432               	retlw	50	;'2'
  2293  0605  3464               	retlw	100	;'d'
  2294  0606  3400               	retlw	0
  2295  0607                     STR_8:	
  2296  0607  3441               	retlw	65	;'A'
  2297  0608  3444               	retlw	68	;'D'
  2298  0609  3443               	retlw	67	;'C'
  2299  060A  3420               	retlw	32	;' '
  2300  060B  343D               	retlw	61	;'='
  2301  060C  3420               	retlw	32	;' '
  2302  060D  3425               	retlw	37	;'%'
  2303  060E  3464               	retlw	100	;'d'
  2304  060F  3420               	retlw	32	;' '
  2305  0610  3420               	retlw	32	;' '
  2306  0611  3420               	retlw	32	;' '
  2307  0612  3420               	retlw	32	;' '
  2308  0613  3400               	retlw	0
  2309  0614                     STR_6:	
  2310  0614  3447               	retlw	71	;'G'
  2311  0615  344C               	retlw	76	;'L'
  2312  0616  3455               	retlw	85	;'U'
  2313  0617  3443               	retlw	67	;'C'
  2314  0618  344F               	retlw	79	;'O'
  2315  0619  344D               	retlw	77	;'M'
  2316  061A  3445               	retlw	69	;'E'
  2317  061B  3454               	retlw	84	;'T'
  2318  061C  3445               	retlw	69	;'E'
  2319  061D  3452               	retlw	82	;'R'
  2320  061E  3400               	retlw	0
  2321  061F                     STR_5:	
  2322  061F  3455               	retlw	85	;'U'
  2323  0620  344E               	retlw	78	;'N'
  2324  0621  3449               	retlw	73	;'I'
  2325  0622  3456               	retlw	86	;'V'
  2326  0623  3445               	retlw	69	;'E'
  2327  0624  3452               	retlw	82	;'R'
  2328  0625  3453               	retlw	83	;'S'
  2329  0626  3441               	retlw	65	;'A'
  2330  0627  344C               	retlw	76	;'L'
  2331  0628  3400               	retlw	0
  2332  0629                     STR_4:	
  2333  0629  344D               	retlw	77	;'M'
  2334  062A  3461               	retlw	97	;'a'
  2335  062B  346B               	retlw	107	;'k'
  2336  062C  3469               	retlw	105	;'i'
  2337  062D  346E               	retlw	110	;'n'
  2338  062E  3467               	retlw	103	;'g'
  2339  062F  3400               	retlw	0
  2340  0630                     STR_2:	
  2341  0630  344C               	retlw	76	;'L'
  2342  0631  3465               	retlw	101	;'e'
  2343  0632  3461               	retlw	97	;'a'
  2344  0633  3472               	retlw	114	;'r'
  2345  0634  346E               	retlw	110	;'n'
  2346  0635  3400               	retlw	0
  2347  0636                     STR_3:	
  2348  0636  3442               	retlw	66	;'B'
  2349  0637  3479               	retlw	121	;'y'
  2350  0638  3400               	retlw	0
  2351  05A3                     
  2352                           ; #config settings
  2353  0000                     
  2354                           	psect	cinit
  2355  01E8                     start_initialization:	
  2356  01E8                     __initialization:		;BIGRAM
  2357                           
  2358                           ; Clear objects allocated to BIGRAM
  2359  01E8  30C4               	movlw	low (0+8900)
  2360  01E9  0084               	movwf	4
  2361  01EA  3022               	movlw	high (0+8900)
  2362  01EB  0085               	movwf	5
  2363  01EC  302C               	movlw	44
  2364  01ED  00FE               	movwf	btemp
  2365  01EE  3001               	movlw	1
  2366  01EF  00FF               	movwf	btemp+1
  2367  01F0  319D  25CD  3181   	fcall	clear_ram0
  2368                           
  2369                           ; Clear objects allocated to COMMON
  2370  01F3  01F7               	clrf	__pbssCOMMON& (0+127)
  2371  01F4  01F8               	clrf	(__pbssCOMMON+1)& (0+127)
  2372  01F5  01F9               	clrf	(__pbssCOMMON+2)& (0+127)
  2373  01F6  01FA               	clrf	(__pbssCOMMON+3)& (0+127)
  2374  01F7  01FB               	clrf	(__pbssCOMMON+4)& (0+127)
  2375  01F8  01FC               	clrf	(__pbssCOMMON+5)& (0+127)
  2376                           
  2377                           ; Clear objects allocated to BANK0
  2378  01F9  01E4               	clrf	__pbssBANK0& (0+127)
  2379  01FA  01E5               	clrf	(__pbssBANK0+1)& (0+127)
  2380  01FB  01E6               	clrf	(__pbssBANK0+2)& (0+127)
  2381                           
  2382                           ; Clear objects allocated to BANK1
  2383  01FC  30A0               	movlw	low __pbssBANK1
  2384  01FD  0084               	movwf	4
  2385  01FE  3000               	movlw	high __pbssBANK1
  2386  01FF  0085               	movwf	5
  2387  0200  3033               	movlw	51
  2388  0201  00FE               	movwf	btemp
  2389  0202  3000               	movlw	0
  2390  0203  00FF               	movwf	btemp+1
  2391  0204  319D  25CD  3181   	fcall	clear_ram0
  2392                           
  2393                           ; Clear objects allocated to BANK2
  2394  0207  303D               	movlw	low __pbssBANK2
  2395  0208  0084               	movwf	4
  2396  0209  3001               	movlw	high __pbssBANK2
  2397  020A  0085               	movwf	5
  2398  020B  300C               	movlw	12
  2399  020C  00FE               	movwf	btemp
  2400  020D  3000               	movlw	0
  2401  020E  00FF               	movwf	btemp+1
  2402  020F  319D  25CD  3181   	fcall	clear_ram0
  2403                           
  2404                           ; Initialize objects allocated to COMMON
  2405  0212  3180  2003  3181   	fcall	__pidataCOMMON	;fetch initializer
  2406  0215  00FD               	movwf	__pdataCOMMON& (0+127)
  2407                           
  2408                           ; Initialize objects allocated to BANK0
  2409  0216  30B0               	movlw	low __pidataBANK0
  2410  0217  0084               	movwf	4
  2411  0218  309D               	movlw	(high __pidataBANK0)| (0+128)
  2412  0219  0085               	movwf	5
  2413  021A  305E               	movlw	low __pdataBANK0
  2414  021B  0086               	movwf	6
  2415  021C  3000               	movlw	high __pdataBANK0
  2416  021D  0087               	movwf	7
  2417  021E  3000               	movlw	0
  2418  021F  00FF               	movwf	btemp+1
  2419  0220  3006               	movlw	6
  2420  0221  319D  25C1  3181   	fcall	init_ram
  2421                           
  2422                           ; Initialize objects allocated to BANK1
  2423  0224  30E8               	movlw	low __pidataBANK1
  2424  0225  0084               	movwf	4
  2425  0226  309D               	movlw	(high __pidataBANK1)| (0+128)
  2426  0227  0085               	movwf	5
  2427  0228  30D3               	movlw	low __pdataBANK1
  2428  0229  0086               	movwf	6
  2429  022A  3000               	movlw	high __pdataBANK1
  2430  022B  0087               	movwf	7
  2431  022C  3000               	movlw	0
  2432  022D  00FF               	movwf	btemp+1
  2433  022E  3010               	movlw	16
  2434  022F  319D  25C1         	fcall	init_ram
  2435  0231                     end_of_initialization:	
  2436                           ;End of C runtime variable initialization code
  2437                           
  2438  0231                     __end_of__initialization:	
  2439  0231  107E               	bcf	int$flags,0	;clear compiler interrupt flag (level 1)
  2440  0232  0020               	movlb	0
  2441  0233  318C  2C3C         	ljmp	_main	;jump to C main() function
  2442                           
  2443                           	psect	bssCOMMON
  2444  0077                     __pbssCOMMON:	
  2445  0077                     _RedingCount:	
  2446  0077                     	ds	1
  2447  0078                     _gMemorymode:	
  2448  0078                     	ds	1
  2449  0079                     _gOneReadingDisplyed:	
  2450  0079                     	ds	1
  2451  007A                     _gSenseTestStrip:	
  2452  007A                     	ds	1
  2453  007B                     _gStripRemoved:	
  2454  007B                     	ds	1
  2455  007C                     _gglucDataReady:	
  2456  007C                     	ds	1
  2457                           
  2458                           	psect	dataCOMMON
  2459  007D                     __pdataCOMMON:	
  2460  007D                     _gYmmoldecimalchar:	
  2461  007D                     	ds	1
  2462                           
  2463                           	psect	bssBANK0
  2464  0064                     __pbssBANK0:	
  2465  0064                     _EEADRS:	
  2466  0064                     	ds	1
  2467  0065                     _gSavedReadingCnt:	
  2468  0065                     	ds	1
  2469  0066                     _gSleepMode:	
  2470  0066                     	ds	1
  2471                           
  2472                           	psect	dataBANK0
  2473  005E                     __pdataBANK0:	
  2474  005E                     _Days:	
  2475  005E                     	ds	1
  2476  005F                     _Hours:	
  2477  005F                     	ds	1
  2478  0060                     _Minutes:	
  2479  0060                     	ds	1
  2480  0061                     _Month:	
  2481  0061                     	ds	1
  2482  0062                     _Year:	
  2483  0062                     	ds	1
  2484  0063                     _gYmmolchar:	
  2485  0063                     	ds	1
  2486                           
  2487                           	psect	bssBANK1
  2488  00A0                     __pbssBANK1:	
  2489  00A0                     _gAverageGlucose:	
  2490  00A0                     	ds	4
  2491  00A4                     _gSigmaGlucoseValue:	
  2492  00A4                     	ds	4
  2493  00A8                     _gTemp:	
  2494  00A8                     	ds	3
  2495  00AB                     _gY:	
  2496  00AB                     	ds	3
  2497  00AE                     _gYmmol:	
  2498  00AE                     	ds	3
  2499  00B1                     _gYmmoldecimal:	
  2500  00B1                     	ds	3
  2501  00B4                     _gReadData:	
  2502  00B4                     	ds	2
  2503  00B6                     _gReadTemp:	
  2504  00B6                     	ds	2
  2505  00B8                     _gTempint:	
  2506  00B8                     	ds	2
  2507  00BA                     _gTempint2:	
  2508  00BA                     	ds	2
  2509  00BC                     _gYint2:	
  2510  00BC                     	ds	2
  2511  00BE                     _gcaptured2SValue:	
  2512  00BE                     	ds	2
  2513  00C0                     _gglucoseIndex:	
  2514  00C0                     	ds	2
  2515  00C2                     _Seconds:	
  2516  00C2                     	ds	1
  2517  00C3                     _gBloodNotInsetrted:	
  2518  00C3                     	ds	1
  2519  00C4                     _gDaysRead:	
  2520  00C4                     	ds	1
  2521  00C5                     _gDisplayPreviousReading:	
  2522  00C5                     	ds	1
  2523  00C6                     _gExitMemoryMode:	
  2524  00C6                     	ds	1
  2525  00C7                     _gHoursRead:	
  2526  00C7                     	ds	1
  2527  00C8                     _gMinutesRead:	
  2528  00C8                     	ds	1
  2529  00C9                     _gMonthRead:	
  2530  00C9                     	ds	1
  2531  00CA                     _gReadCount:	
  2532  00CA                     	ds	1
  2533  00CB                     _gSetDateTime:	
  2534  00CB                     	ds	1
  2535  00CC                     _gStripInserted:	
  2536  00CC                     	ds	1
  2537  00CD                     _gYearRead:	
  2538  00CD                     	ds	1
  2539  00CE                     _gYmmolDecimalRead:	
  2540  00CE                     	ds	1
  2541  00CF                     _gYmmolRead:	
  2542  00CF                     	ds	1
  2543  00D0                     _gXadc:	
  2544  00D0                     	ds	3
  2545                           
  2546                           	psect	dataBANK1
  2547  00D3                     __pdataBANK1:	
  2548  00D3                     _gStripIdleTime:	
  2549  00D3                     	ds	4
  2550  00D7                     _gcountIdleTime:	
  2551  00D7                     	ds	4
  2552  00DB                     _gtimeOutCount:	
  2553  00DB                     	ds	4
  2554  00DF                     _gYint:	
  2555  00DF                     	ds	2
  2556  00E1                     _gcounter:	
  2557  00E1                     	ds	2
  2558                           
  2559                           	psect	bssBANK2
  2560  013D                     __pbssBANK2:	
  2561  013D                     _lcdFormatted:	
  2562  013D                     	ds	12
  2563                           
  2564                           	psect	clrtext
  2565  1DCD                     clear_ram0:	
  2566                           ;	Called with FSR0 containing the base address, and
  2567                           ;	btemp/btemp+1 has the size to clear
  2568                           
  2569  1DCD  0064               	clrwdt	;clear the watchdog before getting into this loop
  2570  1DCE                     clrloop0:	
  2571  1DCE  0180               	clrf	0	;clear RAM location pointed to by FSR
  2572  1DCF  3101               	addfsr 0,1
  2573  1DD0  3001               	movlw	1
  2574  1DD1  02FE               	subwf	126,f
  2575  1DD2  3000               	movlw	0
  2576  1DD3  3BFF               	subwfb	127,f
  2577  1DD4  087F               	movf	127,w
  2578  1DD5  047E               	iorwf	126,w
  2579  1DD6  1903               	btfsc	3,2
  2580  1DD7  3400               	retlw	0	;all done for this memory range, return
  2581  1DD8  2DCE               	goto	clrloop0	;have we reached the end yet?
  2582                           
  2583                           	psect	inittext
  2584  1DC1                     init_ram:	
  2585  1DC1  00FE               	movwf	126
  2586  1DC2                     initloop:	
  2587  1DC2  0012               	moviw fsr0++
  2588  1DC3  001E               	movwi fsr1++
  2589  1DC4  3001               	movlw	1
  2590  1DC5  02FE               	subwf	126,f
  2591  1DC6  3000               	movlw	0
  2592  1DC7  3BFF               	subwfb	127,f
  2593  1DC8  087F               	movf	127,w
  2594  1DC9  047E               	iorwf	126,w
  2595  1DCA  1903               	btfsc	3,2
  2596  1DCB  3400               	retlw	0
  2597  1DCC  2DC2               	goto	initloop
  2598                           
  2599                           	psect	cstackBANK2
  2600  0120                     __pcstackBANK2:	
  2601  0120                     SetTime@tMonth:	
  2602                           
  2603                           ; 1 bytes @ 0x0
  2604  0120                     	ds	1
  2605  0121                     SetTime@tDay:	
  2606                           
  2607                           ; 1 bytes @ 0x1
  2608  0121                     	ds	1
  2609  0122                     SetTime@tYear:	
  2610                           
  2611                           ; 1 bytes @ 0x2
  2612  0122                     	ds	1
  2613  0123                     SetTime@tHour:	
  2614                           
  2615                           ; 1 bytes @ 0x3
  2616  0123                     	ds	1
  2617  0124                     SetTime@tMin:	
  2618                           
  2619                           ; 1 bytes @ 0x4
  2620  0124                     	ds	1
  2621  0125                     SetTime@pre_confirm_count:	
  2622                           
  2623                           ; 1 bytes @ 0x5
  2624  0125                     	ds	1
  2625  0126                     SetTime@set_time_date_loop:	
  2626                           
  2627                           ; 1 bytes @ 0x6
  2628  0126                     	ds	1
  2629  0127                     SetTime@year_2:	
  2630                           
  2631                           ; 1 bytes @ 0x7
  2632  0127                     	ds	1
  2633  0128                     SetTime@month_2:	
  2634                           
  2635                           ; 1 bytes @ 0x8
  2636  0128                     	ds	1
  2637  0129                     SetTime@day_2:	
  2638                           
  2639                           ; 1 bytes @ 0x9
  2640  0129                     	ds	1
  2641  012A                     SetTime@hour_2:	
  2642                           
  2643                           ; 1 bytes @ 0xA
  2644  012A                     	ds	1
  2645  012B                     SetTime@min_2:	
  2646                           
  2647                           ; 1 bytes @ 0xB
  2648  012B                     	ds	1
  2649  012C                     SetTime@year_1:	
  2650                           
  2651                           ; 1 bytes @ 0xC
  2652  012C                     	ds	1
  2653  012D                     SetTime@month_1:	
  2654                           
  2655                           ; 1 bytes @ 0xD
  2656  012D                     	ds	1
  2657  012E                     SetTime@day_1:	
  2658                           
  2659                           ; 1 bytes @ 0xE
  2660  012E                     	ds	1
  2661  012F                     SetTime@hour_1:	
  2662                           
  2663                           ; 1 bytes @ 0xF
  2664  012F                     	ds	1
  2665  0130                     SetTime@min_1:	
  2666                           
  2667                           ; 1 bytes @ 0x10
  2668  0130                     	ds	1
  2669  0131                     SetTime@confirm_count:	
  2670                           
  2671                           ; 1 bytes @ 0x11
  2672  0131                     	ds	1
  2673  0132                     SetTime@sw1_count:	
  2674                           
  2675                           ; 1 bytes @ 0x12
  2676  0132                     	ds	1
  2677  0133                     ??_main:	
  2678                           
  2679                           ; 1 bytes @ 0x13
  2680  0133                     	ds	10
  2681                           
  2682                           	psect	cstackBANK1
  2683  00E3                     __pcstackBANK1:	
  2684  00E3                     SenseTestStrip@lcdFormatted:	
  2685  00E3                     DisplaySavedGlucoReading@read_mgdl_int:	
  2686                           ; 1 bytes @ 0x0
  2687                           
  2688                           
  2689                           ; 2 bytes @ 0x0
  2690  00E3                     	ds	1
  2691  00E4                     SenseTestStrip@temp_adc:	
  2692                           
  2693                           ; 2 bytes @ 0x1
  2694  00E4                     	ds	1
  2695  00E5                     DisplaySavedGlucoReading@read_mgdl:	
  2696                           
  2697                           ; 3 bytes @ 0x2
  2698  00E5                     	ds	1
  2699  00E6                     SenseTestStrip@index:	
  2700                           
  2701                           ; 1 bytes @ 0x3
  2702  00E6                     	ds	2
  2703  00E8                     main@lcdFormatted:	
  2704                           
  2705                           ; 1 bytes @ 0x5
  2706  00E8                     	ds	1
  2707                           
  2708                           	psect	cstackCOMMON
  2709  0070                     __pcstackCOMMON:	
  2710  0070                     ?_isdigit:	
  2711  0070                     ?_ConfigureOscillator:	
  2712                           ; 1 bit 
  2713                           
  2714  0070                     ?_InitApp:	
  2715                           ; 1 bytes @ 0x0
  2716                           
  2717  0070                     ?_InitTimer1:	
  2718                           ; 1 bytes @ 0x0
  2719                           
  2720  0070                     ?_InitADC:	
  2721                           ; 1 bytes @ 0x0
  2722                           
  2723  0070                     ?_LCDInit:	
  2724                           ; 1 bytes @ 0x0
  2725                           
  2726  0070                     ?_LCDClear:	
  2727                           ; 1 bytes @ 0x0
  2728                           
  2729  0070                     ?_SW1_pressed:	
  2730                           ; 1 bytes @ 0x0
  2731                           
  2732  0070                     ?_SW3_pressed:	
  2733                           ; 1 bytes @ 0x0
  2734                           
  2735  0070                     ?_eeprom_read:	
  2736                           ; 1 bytes @ 0x0
  2737                           
  2738  0070                     ?_EnterDeepSleep:	
  2739                           ; 1 bytes @ 0x0
  2740                           
  2741  0070                     ?_SenseTestStrip:	
  2742                           ; 1 bytes @ 0x0
  2743                           
  2744  0070                     ?_CalcGlucose:	
  2745                           ; 1 bytes @ 0x0
  2746                           
  2747  0070                     ?_HwInit:	
  2748                           ; 1 bytes @ 0x0
  2749                           
  2750  0070                     ?_SetTime:	
  2751                           ; 1 bytes @ 0x0
  2752                           
  2753  0070                     ?_Delay_1_Second:	
  2754                           ; 1 bytes @ 0x0
  2755                           
  2756  0070                     ?_SaveGlucoReading:	
  2757                           ; 1 bytes @ 0x0
  2758                           
  2759  0070                     ?_ReadSavedGlucoReading:	
  2760                           ; 1 bytes @ 0x0
  2761                           
  2762  0070                     ?_DisplaySavedGlucoReading:	
  2763                           ; 1 bytes @ 0x0
  2764                           
  2765  0070                     ?_main:	
  2766                           ; 1 bytes @ 0x0
  2767                           
  2768  0070                     ?_isr:	
  2769                           ; 1 bytes @ 0x0
  2770                           
  2771  0070                     ?_LCDCharacter:	
  2772                           ; 1 bytes @ 0x0
  2773                           
  2774  0070                     ?i1_LCDInit:	
  2775                           ; 1 bytes @ 0x0
  2776                           
  2777  0070                     ?i1_LCDWrite:	
  2778                           ; 1 bytes @ 0x0
  2779                           
  2780  0070                     i1LCDWrite@data:	
  2781                           ; 1 bytes @ 0x0
  2782                           
  2783                           
  2784                           ; 1 bytes @ 0x0
  2785  0070                     	ds	1
  2786  0071                     ??i1_LCDWrite:	
  2787                           
  2788                           ; 1 bytes @ 0x1
  2789  0071                     	ds	1
  2790  0072                     i1LCDWrite@data_or_command:	
  2791                           
  2792                           ; 1 bytes @ 0x2
  2793  0072                     	ds	1
  2794  0073                     i1LCDWrite@d:	
  2795                           
  2796                           ; 1 bytes @ 0x3
  2797  0073                     	ds	1
  2798  0074                     i1LCDWrite@i:	
  2799                           
  2800                           ; 1 bytes @ 0x4
  2801  0074                     	ds	1
  2802  0075                     ??i1_LCDInit:	
  2803                           
  2804                           ; 1 bytes @ 0x5
  2805  0075                     	ds	2
  2806                           
  2807                           	psect	cstackBANK0
  2808  0020                     __pcstackBANK0:	
  2809  0020                     ??_isr:	
  2810                           
  2811                           ; 1 bytes @ 0x0
  2812  0020                     	ds	9
  2813  0029                     ?___ftge:	
  2814  0029                     ??_ConfigureOscillator:	
  2815                           ; 1 bit 
  2816                           
  2817  0029                     ??_InitApp:	
  2818                           ; 1 bytes @ 0x9
  2819                           
  2820  0029                     ??_InitTimer1:	
  2821                           ; 1 bytes @ 0x9
  2822                           
  2823  0029                     ??_InitADC:	
  2824                           ; 1 bytes @ 0x9
  2825                           
  2826  0029                     ??_SW1_pressed:	
  2827                           ; 1 bytes @ 0x9
  2828                           
  2829  0029                     ??_SW3_pressed:	
  2830                           ; 1 bytes @ 0x9
  2831                           
  2832  0029                     ?_eeprom_write:	
  2833                           ; 1 bytes @ 0x9
  2834                           
  2835  0029                     ??_eeprom_read:	
  2836                           ; 1 bytes @ 0x9
  2837                           
  2838  0029                     ??_EnterDeepSleep:	
  2839                           ; 1 bytes @ 0x9
  2840                           
  2841  0029                     ??_isdigit:	
  2842                           ; 1 bytes @ 0x9
  2843                           
  2844  0029                     ?_putch:	
  2845                           ; 1 bytes @ 0x9
  2846                           
  2847  0029                     ??_Delay_1_Second:	
  2848                           ; 1 bytes @ 0x9
  2849                           
  2850  0029                     ?___bmul:	
  2851                           ; 1 bytes @ 0x9
  2852                           
  2853  0029                     ?___wmul:	
  2854                           ; 1 bytes @ 0x9
  2855                           
  2856  0029                     ?___awdiv:	
  2857                           ; 2 bytes @ 0x9
  2858                           
  2859  0029                     ?___lwdiv:	
  2860                           ; 2 bytes @ 0x9
  2861                           
  2862  0029                     ?___ftpack:	
  2863                           ; 2 bytes @ 0x9
  2864                           
  2865  0029                     ?___fttol:	
  2866                           ; 3 bytes @ 0x9
  2867                           
  2868  0029                     eeprom_write@value:	
  2869                           ; 4 bytes @ 0x9
  2870                           
  2871  0029                     ___bmul@multiplicand:	
  2872                           ; 1 bytes @ 0x9
  2873                           
  2874  0029                     _isdigit$1478:	
  2875                           ; 1 bytes @ 0x9
  2876                           
  2877  0029                     putch@c:	
  2878                           ; 1 bytes @ 0x9
  2879                           
  2880  0029                     ___wmul@multiplier:	
  2881                           ; 1 bytes @ 0x9
  2882                           
  2883  0029                     ___awdiv@divisor:	
  2884                           ; 2 bytes @ 0x9
  2885                           
  2886  0029                     ___lwdiv@divisor:	
  2887                           ; 2 bytes @ 0x9
  2888                           
  2889  0029                     ___ftpack@arg:	
  2890                           ; 2 bytes @ 0x9
  2891                           
  2892  0029                     ___ftge@ff1:	
  2893                           ; 3 bytes @ 0x9
  2894                           
  2895  0029                     ___fttol@f1:	
  2896                           ; 3 bytes @ 0x9
  2897                           
  2898                           
  2899                           ; 3 bytes @ 0x9
  2900  0029                     	ds	1
  2901  002A                     ??_eeprom_write:	
  2902  002A                     ??_putch:	
  2903                           ; 1 bytes @ 0xA
  2904                           
  2905  002A                     ??___bmul:	
  2906                           ; 1 bytes @ 0xA
  2907                           
  2908  002A                     SW1_pressed@SW1_press:	
  2909                           ; 1 bytes @ 0xA
  2910                           
  2911  002A                     SW3_pressed@SW3_press:	
  2912                           ; 1 bytes @ 0xA
  2913                           
  2914  002A                     isdigit@c:	
  2915                           ; 1 bytes @ 0xA
  2916                           
  2917                           
  2918                           ; 1 bytes @ 0xA
  2919  002A                     	ds	1
  2920  002B                     ___bmul@product:	
  2921  002B                     ___wmul@multiplicand:	
  2922                           ; 1 bytes @ 0xB
  2923                           
  2924  002B                     ___awdiv@dividend:	
  2925                           ; 2 bytes @ 0xB
  2926                           
  2927  002B                     ___lwdiv@dividend:	
  2928                           ; 2 bytes @ 0xB
  2929                           
  2930                           
  2931                           ; 2 bytes @ 0xB
  2932  002B                     	ds	1
  2933  002C                     eeprom_read@addr:	
  2934  002C                     eeprom_write@addr:	
  2935                           ; 1 bytes @ 0xC
  2936                           
  2937  002C                     ___bmul@multiplier:	
  2938                           ; 1 bytes @ 0xC
  2939                           
  2940  002C                     ___ftpack@exp:	
  2941                           ; 1 bytes @ 0xC
  2942                           
  2943  002C                     ___ftge@ff2:	
  2944                           ; 1 bytes @ 0xC
  2945                           
  2946                           
  2947                           ; 3 bytes @ 0xC
  2948  002C                     	ds	1
  2949  002D                     ??_SaveGlucoReading:	
  2950  002D                     ??_ReadSavedGlucoReading:	
  2951                           ; 1 bytes @ 0xD
  2952                           
  2953  002D                     ??___wmul:	
  2954                           ; 1 bytes @ 0xD
  2955                           
  2956  002D                     ??___awdiv:	
  2957                           ; 1 bytes @ 0xD
  2958                           
  2959  002D                     ??___fttol:	
  2960                           ; 1 bytes @ 0xD
  2961                           
  2962  002D                     ??___lwdiv:	
  2963                           ; 1 bytes @ 0xD
  2964                           
  2965  002D                     ___ftpack@sign:	
  2966                           ; 1 bytes @ 0xD
  2967                           
  2968  002D                     ___wmul@product:	
  2969                           ; 1 bytes @ 0xD
  2970                           
  2971                           
  2972                           ; 2 bytes @ 0xD
  2973  002D                     	ds	1
  2974  002E                     ??___ftpack:	
  2975  002E                     ___awdiv@counter:	
  2976                           ; 1 bytes @ 0xE
  2977                           
  2978  002E                     ___lwdiv@counter:	
  2979                           ; 1 bytes @ 0xE
  2980                           
  2981                           
  2982                           ; 1 bytes @ 0xE
  2983  002E                     	ds	1
  2984  002F                     ?_LCDWrite:	
  2985  002F                     ??___ftge:	
  2986                           ; 1 bytes @ 0xF
  2987                           
  2988  002F                     ReadSavedGlucoReading@reading_count:	
  2989                           ; 1 bytes @ 0xF
  2990                           
  2991  002F                     LCDWrite@data:	
  2992                           ; 1 bytes @ 0xF
  2993                           
  2994  002F                     ___awdiv@sign:	
  2995                           ; 1 bytes @ 0xF
  2996                           
  2997  002F                     ___lwdiv@quotient:	
  2998                           ; 1 bytes @ 0xF
  2999                           
  3000                           
  3001                           ; 2 bytes @ 0xF
  3002  002F                     	ds	1
  3003  0030                     ??_LCDWrite:	
  3004  0030                     ___awdiv@quotient:	
  3005                           ; 1 bytes @ 0x10
  3006                           
  3007                           
  3008                           ; 2 bytes @ 0x10
  3009  0030                     	ds	1
  3010  0031                     ?___lwmod:	
  3011  0031                     ?___ftdiv:	
  3012                           ; 2 bytes @ 0x11
  3013                           
  3014  0031                     ?___lbtoft:	
  3015                           ; 3 bytes @ 0x11
  3016                           
  3017  0031                     LCDWrite@data_or_command:	
  3018                           ; 3 bytes @ 0x11
  3019                           
  3020  0031                     ___fttol@sign1:	
  3021                           ; 1 bytes @ 0x11
  3022                           
  3023  0031                     ___lwmod@divisor:	
  3024                           ; 1 bytes @ 0x11
  3025                           
  3026  0031                     ___ftdiv@f2:	
  3027                           ; 2 bytes @ 0x11
  3028                           
  3029                           
  3030                           ; 3 bytes @ 0x11
  3031  0031                     	ds	1
  3032  0032                     ?___awtoft:	
  3033  0032                     LCDWrite@d:	
  3034                           ; 3 bytes @ 0x12
  3035                           
  3036  0032                     ___awtoft@c:	
  3037                           ; 1 bytes @ 0x12
  3038                           
  3039  0032                     ___fttol@lval:	
  3040                           ; 2 bytes @ 0x12
  3041                           
  3042                           
  3043                           ; 4 bytes @ 0x12
  3044  0032                     	ds	1
  3045  0033                     LCDWrite@i:	
  3046  0033                     ___lwmod@dividend:	
  3047                           ; 1 bytes @ 0x13
  3048                           
  3049                           
  3050                           ; 2 bytes @ 0x13
  3051  0033                     	ds	1
  3052  0034                     ??_LCDInit:	
  3053  0034                     ?_gotoXY:	
  3054                           ; 1 bytes @ 0x14
  3055                           
  3056  0034                     ??_LCDCharacter:	
  3057                           ; 1 bytes @ 0x14
  3058                           
  3059  0034                     ??___lbtoft:	
  3060                           ; 1 bytes @ 0x14
  3061                           
  3062  0034                     gotoXY@y:	
  3063                           ; 1 bytes @ 0x14
  3064                           
  3065  0034                     ___ftdiv@f1:	
  3066                           ; 1 bytes @ 0x14
  3067                           
  3068                           
  3069                           ; 3 bytes @ 0x14
  3070  0034                     	ds	1
  3071  0035                     ??_gotoXY:	
  3072  0035                     ??___awtoft:	
  3073                           ; 1 bytes @ 0x15
  3074                           
  3075  0035                     ??___lwmod:	
  3076                           ; 1 bytes @ 0x15
  3077                           
  3078                           
  3079                           ; 1 bytes @ 0x15
  3080  0035                     	ds	1
  3081  0036                     ??_HwInit:	
  3082  0036                     gotoXY@x:	
  3083                           ; 1 bytes @ 0x16
  3084                           
  3085  0036                     ___fttol@exp1:	
  3086                           ; 1 bytes @ 0x16
  3087                           
  3088  0036                     ___lwmod@counter:	
  3089                           ; 1 bytes @ 0x16
  3090                           
  3091                           
  3092                           ; 1 bytes @ 0x16
  3093  0036                     	ds	1
  3094  0037                     ??_LCDClear:	
  3095  0037                     ??___ftdiv:	
  3096                           ; 1 bytes @ 0x17
  3097                           
  3098  0037                     ?__doprnt:	
  3099                           ; 1 bytes @ 0x17
  3100                           
  3101  0037                     ___awtoft@sign:	
  3102                           ; 2 bytes @ 0x17
  3103                           
  3104  0037                     __doprnt@f:	
  3105                           ; 1 bytes @ 0x17
  3106                           
  3107                           
  3108                           ; 2 bytes @ 0x17
  3109  0037                     	ds	1
  3110  0038                     ___lbtoft@c:	
  3111  0038                     LCDClear@index:	
  3112                           ; 1 bytes @ 0x18
  3113                           
  3114                           
  3115                           ; 2 bytes @ 0x18
  3116  0038                     	ds	1
  3117  0039                     ?___ftneg:	
  3118  0039                     LCDCharacter@character:	
  3119                           ; 3 bytes @ 0x19
  3120                           
  3121  0039                     __doprnt@ap:	
  3122                           ; 1 bytes @ 0x19
  3123                           
  3124  0039                     ___ftneg@f1:	
  3125                           ; 1 bytes @ 0x19
  3126                           
  3127                           
  3128                           ; 3 bytes @ 0x19
  3129  0039                     	ds	1
  3130  003A                     ??__doprnt:	
  3131  003A                     LCDCharacter@index:	
  3132                           ; 1 bytes @ 0x1A
  3133                           
  3134                           
  3135                           ; 2 bytes @ 0x1A
  3136  003A                     	ds	1
  3137  003B                     ___ftdiv@cntr:	
  3138                           
  3139                           ; 1 bytes @ 0x1B
  3140  003B                     	ds	1
  3141  003C                     ?_LCDString:	
  3142  003C                     ??___ftneg:	
  3143                           ; 1 bytes @ 0x1C
  3144                           
  3145  003C                     ?___ftadd:	
  3146                           ; 1 bytes @ 0x1C
  3147                           
  3148  003C                     LCDString@characters:	
  3149                           ; 3 bytes @ 0x1C
  3150                           
  3151  003C                     ___ftadd@f1:	
  3152                           ; 2 bytes @ 0x1C
  3153                           
  3154  003C                     ___ftdiv@f3:	
  3155                           ; 3 bytes @ 0x1C
  3156                           
  3157                           
  3158                           ; 3 bytes @ 0x1C
  3159  003C                     	ds	2
  3160  003E                     ??_LCDString:	
  3161  003E                     __doprnt@prec:	
  3162                           ; 1 bytes @ 0x1E
  3163                           
  3164                           
  3165                           ; 1 bytes @ 0x1E
  3166  003E                     	ds	1
  3167  003F                     ___ftdiv@exp:	
  3168  003F                     __doprnt@val:	
  3169                           ; 1 bytes @ 0x1F
  3170                           
  3171  003F                     ___ftadd@f2:	
  3172                           ; 2 bytes @ 0x1F
  3173                           
  3174                           
  3175                           ; 3 bytes @ 0x1F
  3176  003F                     	ds	1
  3177  0040                     ___ftdiv@sign:	
  3178                           
  3179                           ; 1 bytes @ 0x20
  3180  0040                     	ds	1
  3181  0041                     __doprnt@flag:	
  3182                           
  3183                           ; 1 bytes @ 0x21
  3184  0041                     	ds	1
  3185  0042                     ??___ftadd:	
  3186  0042                     __doprnt@width:	
  3187                           ; 1 bytes @ 0x22
  3188                           
  3189                           
  3190                           ; 2 bytes @ 0x22
  3191  0042                     	ds	2
  3192  0044                     __doprnt@c:	
  3193                           
  3194                           ; 1 bytes @ 0x24
  3195  0044                     	ds	1
  3196  0045                     __doprnt@pb:	
  3197                           
  3198                           ; 1 bytes @ 0x25
  3199  0045                     	ds	1
  3200  0046                     ?_printf:	
  3201  0046                     ?_sprintf:	
  3202                           ; 2 bytes @ 0x26
  3203                           
  3204  0046                     ___ftadd@sign:	
  3205                           ; 2 bytes @ 0x26
  3206                           
  3207  0046                     printf@f:	
  3208                           ; 1 bytes @ 0x26
  3209                           
  3210  0046                     sprintf@wh:	
  3211                           ; 2 bytes @ 0x26
  3212                           
  3213                           
  3214                           ; 2 bytes @ 0x26
  3215  0046                     	ds	1
  3216  0047                     ___ftadd@exp2:	
  3217                           
  3218                           ; 1 bytes @ 0x27
  3219  0047                     	ds	1
  3220  0048                     ___ftadd@exp1:	
  3221  0048                     sprintf@f:	
  3222                           ; 1 bytes @ 0x28
  3223                           
  3224                           
  3225                           ; 2 bytes @ 0x28
  3226  0048                     	ds	1
  3227  0049                     ?___ftmul:	
  3228  0049                     ___ftmul@f1:	
  3229                           ; 3 bytes @ 0x29
  3230                           
  3231                           
  3232                           ; 3 bytes @ 0x29
  3233  0049                     	ds	1
  3234  004A                     ??_printf:	
  3235                           
  3236                           ; 1 bytes @ 0x2A
  3237  004A                     	ds	1
  3238  004B                     printf@ap:	
  3239                           
  3240                           ; 1 bytes @ 0x2B
  3241  004B                     	ds	1
  3242  004C                     ___ftmul@f2:	
  3243  004C                     printf@pb:	
  3244                           ; 3 bytes @ 0x2C
  3245                           
  3246                           
  3247                           ; 4 bytes @ 0x2C
  3248  004C                     	ds	3
  3249  004F                     ??___ftmul:	
  3250                           
  3251                           ; 1 bytes @ 0x2F
  3252  004F                     	ds	1
  3253  0050                     ??_SetTime:	
  3254                           
  3255                           ; 1 bytes @ 0x30
  3256  0050                     	ds	2
  3257  0052                     ??_sprintf:	
  3258                           
  3259                           ; 1 bytes @ 0x32
  3260  0052                     	ds	1
  3261  0053                     ___ftmul@exp:	
  3262  0053                     sprintf@ap:	
  3263                           ; 1 bytes @ 0x33
  3264                           
  3265                           
  3266                           ; 1 bytes @ 0x33
  3267  0053                     	ds	1
  3268  0054                     ___ftmul@f3_as_product:	
  3269  0054                     sprintf@pb:	
  3270                           ; 3 bytes @ 0x34
  3271                           
  3272                           
  3273                           ; 4 bytes @ 0x34
  3274  0054                     	ds	3
  3275  0057                     ___ftmul@cntr:	
  3276                           
  3277                           ; 1 bytes @ 0x37
  3278  0057                     	ds	1
  3279  0058                     ??_SenseTestStrip:	
  3280  0058                     ___ftmul@sign:	
  3281                           ; 1 bytes @ 0x38
  3282                           
  3283                           
  3284                           ; 1 bytes @ 0x38
  3285  0058                     	ds	1
  3286  0059                     ??_CalcGlucose:	
  3287  0059                     ??_DisplaySavedGlucoReading:	
  3288                           ; 1 bytes @ 0x39
  3289                           
  3290                           
  3291                           ; 1 bytes @ 0x39
  3292  0059                     	ds	5
  3293                           
  3294                           	psect	maintext
  3295  0C3C                     __pmaintext:	
  3296 ;;
  3297 ;;Main: autosize = 0, tempsize = 10, incstack = 0, save=0
  3298 ;;
  3299 ;; *************** function _main *****************
  3300 ;; Defined at:
  3301 ;;		line 107 in file "glucose_meter_main.c"
  3302 ;; Parameters:    Size  Location     Type
  3303 ;;		None
  3304 ;; Auto vars:     Size  Location     Type
  3305 ;;  lcdFormatted    1    5[BANK1 ] unsigned char 
  3306 ;; Return value:  Size  Location     Type
  3307 ;;                  1    wreg      void 
  3308 ;; Registers used:
  3309 ;;		wreg, fsr0l, fsr0h, fsr1l, fsr1h, status,2, status,0, pclath, cstack
  3310 ;; Tracked objects:
  3311 ;;		On entry : B1F/0
  3312 ;;		On exit  : 0/0
  3313 ;;		Unchanged: 0/0
  3314 ;; Data sizes:     COMMON   BANK0   BANK1   BANK2   BANK3   BANK4   BANK5   BANK6   BANK7   BANK8   BANK9  BANK10  BANK1
      +1  BANK12
  3315 ;;      Params:         0       0       0       0       0       0       0       0       0       0       0       0       
      +0       0
  3316 ;;      Locals:         0       0       1       0       0       0       0       0       0       0       0       0       
      +0       0
  3317 ;;      Temps:          0       0       0      10       0       0       0       0       0       0       0       0       
      +0       0
  3318 ;;      Totals:         0       0       1      10       0       0       0       0       0       0       0       0       
      +0       0
  3319 ;;Total ram usage:       11 bytes
  3320 ;; Hardware stack levels required when called:    7
  3321 ;; This function calls:
  3322 ;;		_CalcGlucose
  3323 ;;		_Delay_1_Second
  3324 ;;		_DisplaySavedGlucoReading
  3325 ;;		_EnterDeepSleep
  3326 ;;		_HwInit
  3327 ;;		_LCDClear
  3328 ;;		_LCDInit
  3329 ;;		_LCDString
  3330 ;;		_LCDWrite
  3331 ;;		_ReadSavedGlucoReading
  3332 ;;		_SaveGlucoReading
  3333 ;;		_SenseTestStrip
  3334 ;;		_SetTime
  3335 ;;		___ftadd
  3336 ;;		___ftdiv
  3337 ;;		___ftmul
  3338 ;;		___ftneg
  3339 ;;		___fttol
  3340 ;;		___lbtoft
  3341 ;;		_gotoXY
  3342 ;;		_sprintf
  3343 ;; This function is called by:
  3344 ;;		Startup code after reset
  3345 ;; This function uses a non-reentrant model
  3346 ;;
  3347                           
  3348                           
  3349                           ;psect for function _main
  3350  0C3C                     _main:	
  3351                           
  3352                           ;glucose_meter_main.c: 109: HwInit();
  3353                           
  3354                           ;incstack = 0
  3355                           ; Regs used in _main: [wreg-fsr1h+status,2+status,0+pclath+cstack]
  3356  0C3C  319E  26C7  318C   	fcall	_HwInit
  3357                           
  3358                           ;glucose_meter_main.c: 110: LCDInit();
  3359  0C3F  3191  214A  318C   	fcall	_LCDInit
  3360                           
  3361                           ;glucose_meter_main.c: 111: LCDClear();
  3362  0C42  319F  274E  318C   	fcall	_LCDClear
  3363                           
  3364                           ;glucose_meter_main.c: 112: gotoXY(0,0);
  3365  0C45  0020               	movlb	0	; select bank0
  3366  0C46  01B4               	clrf	gotoXY@y
  3367  0C47  3000               	movlw	0
  3368  0C48  319E  2630  318C   	fcall	_gotoXY
  3369                           
  3370                           ;glucose_meter_main.c: 113: LCDClear();
  3371  0C4B  319F  274E  318C   	fcall	_LCDClear
  3372                           
  3373                           ;glucose_meter_main.c: 114: _delay((unsigned long)((250)*(8000000/4000.0)));
  3374  0C4E  3003               	movlw	3
  3375  0C4F  0022               	movlb	2	; select bank2
  3376  0C50  00B5               	movwf	(??_main^(0+256)+2)
  3377  0C51  308A               	movlw	138
  3378  0C52  00B4               	movwf	(??_main^(0+256)+1)
  3379  0C53  3056               	movlw	86
  3380  0C54  00B3               	movwf	??_main^(0+256)
  3381  0C55                     u6517:	
  3382  0C55  0BB3               	decfsz	??_main^(0+256),f
  3383  0C56  2C55               	goto	u6517
  3384  0C57  0BB4               	decfsz	(??_main^(0+256)+1),f
  3385  0C58  2C55               	goto	u6517
  3386  0C59  0BB5               	decfsz	(??_main^(0+256)+2),f
  3387  0C5A  2C55               	goto	u6517
  3388  0C5B  3200               	nop2
  3389                           
  3390                           ;glucose_meter_main.c: 115: gotoXY(10,1);
  3391  0C5C  0020               	movlb	0	; select bank0
  3392  0C5D  01B4               	clrf	gotoXY@y
  3393  0C5E  0AB4               	incf	gotoXY@y,f
  3394  0C5F  300A               	movlw	10
  3395  0C60  319E  2630  318C   	fcall	_gotoXY
  3396                           
  3397                           ;glucose_meter_main.c: 116: LCDString("Learn");
  3398  0C63  3030               	movlw	low (STR_2| (0+32768))
  3399  0C64  0020               	movlb	0	; select bank0
  3400  0C65  00BC               	movwf	LCDString@characters
  3401  0C66  3086               	movlw	high (STR_2| (0+32768))
  3402  0C67  00BD               	movwf	LCDString@characters+1
  3403  0C68  319E  2645  318C   	fcall	_LCDString
  3404                           
  3405                           ;glucose_meter_main.c: 117: gotoXY(23,2);
  3406  0C6B  3002               	movlw	2
  3407  0C6C  0022               	movlb	2	; select bank2
  3408  0C6D  00B3               	movwf	??_main^(0+256)
  3409  0C6E  0833               	movf	??_main^(0+256),w
  3410  0C6F  0020               	movlb	0	; select bank0
  3411  0C70  00B4               	movwf	gotoXY@y
  3412  0C71  3017               	movlw	23
  3413  0C72  319E  2630  318C   	fcall	_gotoXY
  3414                           
  3415                           ;glucose_meter_main.c: 118: LCDString("By");
  3416  0C75  3036               	movlw	low (STR_3| (0+32768))
  3417  0C76  0020               	movlb	0	; select bank0
  3418  0C77  00BC               	movwf	LCDString@characters
  3419  0C78  3086               	movlw	high (STR_3| (0+32768))
  3420  0C79  00BD               	movwf	LCDString@characters+1
  3421  0C7A  319E  2645  318C   	fcall	_LCDString
  3422                           
  3423                           ;glucose_meter_main.c: 119: gotoXY(30,3);
  3424  0C7D  3003               	movlw	3
  3425  0C7E  0022               	movlb	2	; select bank2
  3426  0C7F  00B3               	movwf	??_main^(0+256)
  3427  0C80  0833               	movf	??_main^(0+256),w
  3428  0C81  0020               	movlb	0	; select bank0
  3429  0C82  00B4               	movwf	gotoXY@y
  3430  0C83  301E               	movlw	30
  3431  0C84  319E  2630  318C   	fcall	_gotoXY
  3432                           
  3433                           ;glucose_meter_main.c: 120: LCDString("Making");
  3434  0C87  3029               	movlw	low (STR_4| (0+32768))
  3435  0C88  0020               	movlb	0	; select bank0
  3436  0C89  00BC               	movwf	LCDString@characters
  3437  0C8A  3086               	movlw	high (STR_4| (0+32768))
  3438  0C8B  00BD               	movwf	LCDString@characters+1
  3439  0C8C  319E  2645  318C   	fcall	_LCDString
  3440                           
  3441                           ;glucose_meter_main.c: 121: Delay_1_Second();
  3442  0C8F  3190  207B  318C   	fcall	_Delay_1_Second
  3443                           
  3444                           ;glucose_meter_main.c: 122: LCDClear();
  3445  0C92  319F  274E  318C   	fcall	_LCDClear
  3446                           
  3447                           ;glucose_meter_main.c: 123: gotoXY(12,1 );
  3448  0C95  0020               	movlb	0	; select bank0
  3449  0C96  01B4               	clrf	gotoXY@y
  3450  0C97  0AB4               	incf	gotoXY@y,f
  3451  0C98  300C               	movlw	12
  3452  0C99  319E  2630  318C   	fcall	_gotoXY
  3453                           
  3454                           ;glucose_meter_main.c: 124: LCDString("UNIVERSAL");
  3455  0C9C  301F               	movlw	low (STR_5| (0+32768))
  3456  0C9D  0020               	movlb	0	; select bank0
  3457  0C9E  00BC               	movwf	LCDString@characters
  3458  0C9F  3086               	movlw	high (STR_5| (0+32768))
  3459  0CA0  00BD               	movwf	LCDString@characters+1
  3460  0CA1  319E  2645  318C   	fcall	_LCDString
  3461                           
  3462                           ;glucose_meter_main.c: 125: gotoXY(6,3);
  3463  0CA4  3003               	movlw	3
  3464  0CA5  0022               	movlb	2	; select bank2
  3465  0CA6  00B3               	movwf	??_main^(0+256)
  3466  0CA7  0833               	movf	??_main^(0+256),w
  3467  0CA8  0020               	movlb	0	; select bank0
  3468  0CA9  00B4               	movwf	gotoXY@y
  3469  0CAA  3006               	movlw	6
  3470  0CAB  319E  2630  318C   	fcall	_gotoXY
  3471                           
  3472                           ;glucose_meter_main.c: 126: LCDString("GLUCOMETER");
  3473  0CAE  3014               	movlw	low (STR_6| (0+32768))
  3474  0CAF  0020               	movlb	0	; select bank0
  3475  0CB0  00BC               	movwf	LCDString@characters
  3476  0CB1  3086               	movlw	high (STR_6| (0+32768))
  3477  0CB2  00BD               	movwf	LCDString@characters+1
  3478  0CB3  319E  2645  318C   	fcall	_LCDString
  3479                           
  3480                           ;glucose_meter_main.c: 127: _delay((unsigned long)((500)*(8000000/4000.0)));
  3481  0CB6  3006               	movlw	6
  3482  0CB7  0022               	movlb	2	; select bank2
  3483  0CB8  00B5               	movwf	(??_main^(0+256)+2)
  3484  0CB9  3013               	movlw	19
  3485  0CBA  00B4               	movwf	(??_main^(0+256)+1)
  3486  0CBB  30B1               	movlw	177
  3487  0CBC  00B3               	movwf	??_main^(0+256)
  3488  0CBD                     u6527:	
  3489  0CBD  0BB3               	decfsz	??_main^(0+256),f
  3490  0CBE  2CBD               	goto	u6527
  3491  0CBF  0BB4               	decfsz	(??_main^(0+256)+1),f
  3492  0CC0  2CBD               	goto	u6527
  3493  0CC1  0BB5               	decfsz	(??_main^(0+256)+2),f
  3494  0CC2  2CBD               	goto	u6527
  3495  0CC3  3200               	nop2
  3496                           
  3497                           ;glucose_meter_main.c: 128: LCDWrite(0, 0x20);
  3498  0CC4  3020               	movlw	32
  3499  0CC5  0022               	movlb	2	; select bank2
  3500  0CC6  00B3               	movwf	??_main^(0+256)
  3501  0CC7  0833               	movf	??_main^(0+256),w
  3502  0CC8  0020               	movlb	0	; select bank0
  3503  0CC9  00AF               	movwf	LCDWrite@data
  3504  0CCA  3000               	movlw	0
  3505  0CCB  319F  27D1  318C   	fcall	_LCDWrite
  3506                           
  3507                           ;glucose_meter_main.c: 129: LCDWrite(0, 0x0D);
  3508  0CCE  300D               	movlw	13
  3509  0CCF  0022               	movlb	2	; select bank2
  3510  0CD0  00B3               	movwf	??_main^(0+256)
  3511  0CD1  0833               	movf	??_main^(0+256),w
  3512  0CD2  0020               	movlb	0	; select bank0
  3513  0CD3  00AF               	movwf	LCDWrite@data
  3514  0CD4  3000               	movlw	0
  3515  0CD5  319F  27D1  318C   	fcall	_LCDWrite
  3516                           
  3517                           ;glucose_meter_main.c: 130: _delay((unsigned long)((500)*(8000000/4000.0)));
  3518  0CD8  3006               	movlw	6
  3519  0CD9  0022               	movlb	2	; select bank2
  3520  0CDA  00B5               	movwf	(??_main^(0+256)+2)
  3521  0CDB  3013               	movlw	19
  3522  0CDC  00B4               	movwf	(??_main^(0+256)+1)
  3523  0CDD  30B1               	movlw	177
  3524  0CDE  00B3               	movwf	??_main^(0+256)
  3525  0CDF                     u6537:	
  3526  0CDF  0BB3               	decfsz	??_main^(0+256),f
  3527  0CE0  2CDF               	goto	u6537
  3528  0CE1  0BB4               	decfsz	(??_main^(0+256)+1),f
  3529  0CE2  2CDF               	goto	u6537
  3530  0CE3  0BB5               	decfsz	(??_main^(0+256)+2),f
  3531  0CE4  2CDF               	goto	u6537
  3532  0CE5  3200               	nop2
  3533                           
  3534                           ;glucose_meter_main.c: 131: LCDWrite(0, 0x20);
  3535  0CE6  3020               	movlw	32
  3536  0CE7  0022               	movlb	2	; select bank2
  3537  0CE8  00B3               	movwf	??_main^(0+256)
  3538  0CE9  0833               	movf	??_main^(0+256),w
  3539  0CEA  0020               	movlb	0	; select bank0
  3540  0CEB  00AF               	movwf	LCDWrite@data
  3541  0CEC  3000               	movlw	0
  3542  0CED  319F  27D1  318C   	fcall	_LCDWrite
  3543                           
  3544                           ;glucose_meter_main.c: 132: LCDWrite(0, 0x0C);
  3545  0CF0  300C               	movlw	12
  3546  0CF1  0022               	movlb	2	; select bank2
  3547  0CF2  00B3               	movwf	??_main^(0+256)
  3548  0CF3  0833               	movf	??_main^(0+256),w
  3549  0CF4  0020               	movlb	0	; select bank0
  3550  0CF5  00AF               	movwf	LCDWrite@data
  3551  0CF6  3000               	movlw	0
  3552  0CF7  319F  27D1  318C   	fcall	_LCDWrite
  3553                           
  3554                           ;glucose_meter_main.c: 133: _delay((unsigned long)((500)*(8000000/4000.0)));
  3555  0CFA  3006               	movlw	6
  3556  0CFB  0022               	movlb	2	; select bank2
  3557  0CFC  00B5               	movwf	(??_main^(0+256)+2)
  3558  0CFD  3013               	movlw	19
  3559  0CFE  00B4               	movwf	(??_main^(0+256)+1)
  3560  0CFF  30B1               	movlw	177
  3561  0D00  00B3               	movwf	??_main^(0+256)
  3562  0D01                     u6547:	
  3563  0D01  0BB3               	decfsz	??_main^(0+256),f
  3564  0D02  2D01               	goto	u6547
  3565  0D03  0BB4               	decfsz	(??_main^(0+256)+1),f
  3566  0D04  2D01               	goto	u6547
  3567  0D05  0BB5               	decfsz	(??_main^(0+256)+2),f
  3568  0D06  2D01               	goto	u6547
  3569  0D07  3200               	nop2
  3570  0D08  2D9D               	goto	l6096
  3571  0D09                     l6098:	
  3572                           
  3573                           ;glucose_meter_main.c: 141: {
  3574                           ;glucose_meter_main.c: 142: SetTime();
  3575  0D09  3189  21DE  318C   	fcall	_SetTime
  3576                           
  3577                           ;glucose_meter_main.c: 143: gSetDateTime = 0;
  3578  0D0C  0021               	movlb	1	; select bank1
  3579  0D0D  01CB               	clrf	_gSetDateTime^(0+128)
  3580                           
  3581                           ;glucose_meter_main.c: 144: gSleepMode = 1;
  3582  0D0E  0020               	movlb	0	; select bank0
  3583  0D0F  01E6               	clrf	_gSleepMode
  3584  0D10  0AE6               	incf	_gSleepMode,f
  3585                           
  3586                           ;glucose_meter_main.c: 145: __nop();
  3587  0D11  0000               	nop
  3588                           
  3589                           ;glucose_meter_main.c: 146: EnterDeepSleep();
  3590  0D12  3188  2001  318C   	fcall	_EnterDeepSleep
  3591                           
  3592                           ;glucose_meter_main.c: 147: __nop();
  3593  0D15  0000               	nop
  3594                           
  3595                           ;glucose_meter_main.c: 148: __nop();
  3596  0D16  0000               	nop
  3597                           
  3598                           ;glucose_meter_main.c: 149: __nop();
  3599  0D17  0000               	nop
  3600                           
  3601                           ;glucose_meter_main.c: 150: }
  3602  0D18  2D9D               	goto	l6096
  3603  0D19                     l6116:	
  3604                           
  3605                           ;glucose_meter_main.c: 152: {
  3606                           ;glucose_meter_main.c: 153: gExitMemoryMode = 0;
  3607  0D19  01C6               	clrf	_gExitMemoryMode^(0+128)
  3608                           
  3609                           ;glucose_meter_main.c: 154: gtimeOutCount = 60000 ;
  3610  0D1A  3000               	movlw	0
  3611  0D1B  00DE               	movwf	(_gtimeOutCount+3)^(0+128)
  3612  0D1C  3000               	movlw	0
  3613  0D1D  00DD               	movwf	(_gtimeOutCount+2)^(0+128)
  3614  0D1E  30EA               	movlw	234
  3615  0D1F  00DC               	movwf	(_gtimeOutCount+1)^(0+128)
  3616  0D20  3060               	movlw	96
  3617  0D21  00DB               	movwf	_gtimeOutCount^(0+128)
  3618  0D22                     l493:	
  3619                           ;glucose_meter_main.c: 155: while(gtimeOutCount!=0)gtimeOutCount--;
  3620                           
  3621  0D22  085E               	movf	(_gtimeOutCount+3)^(0+128),w
  3622  0D23  045D               	iorwf	(_gtimeOutCount+2)^(0+128),w
  3623  0D24  045C               	iorwf	(_gtimeOutCount+1)^(0+128),w
  3624  0D25  045B               	iorwf	_gtimeOutCount^(0+128),w
  3625  0D26  1903               	btfsc	3,2
  3626  0D27  2D41               	goto	l6122
  3627  0D28  3001               	movlw	1
  3628  0D29  0022               	movlb	2	; select bank2
  3629  0D2A  00B3               	movwf	??_main^(0+256)
  3630  0D2B  3000               	movlw	0
  3631  0D2C  00B4               	movwf	(??_main^(0+256)+1)
  3632  0D2D  3000               	movlw	0
  3633  0D2E  00B5               	movwf	(??_main^(0+256)+2)
  3634  0D2F  3000               	movlw	0
  3635  0D30  00B6               	movwf	(??_main^(0+256)+3)
  3636  0D31  0833               	movf	??_main^(0+256),w
  3637  0D32  0021               	movlb	1	; select bank1
  3638  0D33  02DB               	subwf	_gtimeOutCount^(0+128),f
  3639  0D34  0022               	movlb	2	; select bank2
  3640  0D35  0834               	movf	(??_main+1)^(0+256),w
  3641  0D36  0021               	movlb	1	; select bank1
  3642  0D37  3BDC               	subwfb	(_gtimeOutCount+1)^(0+128),f
  3643  0D38  0022               	movlb	2	; select bank2
  3644  0D39  0835               	movf	(??_main+2)^(0+256),w
  3645  0D3A  0021               	movlb	1	; select bank1
  3646  0D3B  3BDD               	subwfb	(_gtimeOutCount+2)^(0+128),f
  3647  0D3C  0022               	movlb	2	; select bank2
  3648  0D3D  0836               	movf	(??_main+3)^(0+256),w
  3649  0D3E  0021               	movlb	1	; select bank1
  3650  0D3F  3BDE               	subwfb	(_gtimeOutCount+3)^(0+128),f
  3651  0D40  2D22               	goto	l493
  3652  0D41                     l6122:	
  3653                           
  3654                           ;glucose_meter_main.c: 156: EnterDeepSleep();
  3655  0D41  3188  2001  318C   	fcall	_EnterDeepSleep
  3656                           
  3657                           ;glucose_meter_main.c: 157: __nop();
  3658  0D44  0000               	nop
  3659                           
  3660                           ;glucose_meter_main.c: 158: __nop();
  3661  0D45  0000               	nop
  3662                           
  3663                           ;glucose_meter_main.c: 159: __nop();
  3664  0D46  0000               	nop
  3665                           
  3666                           ;glucose_meter_main.c: 160: }
  3667  0D47  2D9D               	goto	l6096
  3668  0D48                     l6132:	
  3669                           
  3670                           ;glucose_meter_main.c: 162: {
  3671                           ;glucose_meter_main.c: 163: if ((gSavedReadingCnt==0) && (gOneReadingDisplyed==0))
  3672  0D48  0020               	movlb	0	; select bank0
  3673  0D49  0865               	movf	_gSavedReadingCnt,w
  3674  0D4A  1D03               	btfss	3,2
  3675  0D4B  2D61               	goto	l6142
  3676  0D4C  0879               	movf	_gOneReadingDisplyed,w
  3677  0D4D  1D03               	btfss	3,2
  3678  0D4E  2D61               	goto	l6142
  3679                           
  3680                           ;glucose_meter_main.c: 164: {
  3681                           ;glucose_meter_main.c: 166: LCDInit();
  3682  0D4F  3191  214A  318C   	fcall	_LCDInit
  3683                           
  3684                           ;glucose_meter_main.c: 167: LCDClear();
  3685  0D52  319F  274E  318C   	fcall	_LCDClear
  3686                           
  3687                           ;glucose_meter_main.c: 169: gotoXY(0,1);
  3688  0D55  0020               	movlb	0	; select bank0
  3689  0D56  01B4               	clrf	gotoXY@y
  3690  0D57  0AB4               	incf	gotoXY@y,f
  3691  0D58  3000               	movlw	0
  3692  0D59  319E  2630  318C   	fcall	_gotoXY
  3693                           
  3694                           ;glucose_meter_main.c: 171: gDisplayPreviousReading = 0;
  3695  0D5C  0021               	movlb	1	; select bank1
  3696  0D5D  01C5               	clrf	_gDisplayPreviousReading^(0+128)
  3697                           
  3698                           ;glucose_meter_main.c: 172: gOneReadingDisplyed=1;
  3699  0D5E  01F9               	clrf	_gOneReadingDisplyed
  3700  0D5F  0AF9               	incf	_gOneReadingDisplyed,f
  3701                           
  3702                           ;glucose_meter_main.c: 173: }
  3703  0D60  2D9D               	goto	l6096
  3704  0D61                     l6142:	
  3705                           
  3706                           ;glucose_meter_main.c: 174: else if (gSavedReadingCnt)
  3707  0D61  0020               	movlb	0	; select bank0
  3708  0D62  0865               	movf	_gSavedReadingCnt,w
  3709  0D63  1903               	btfsc	3,2
  3710  0D64  2D9D               	goto	l6096
  3711                           
  3712                           ;glucose_meter_main.c: 175: {
  3713                           ;glucose_meter_main.c: 176: if(gOneReadingDisplyed == 0)
  3714  0D65  0879               	movf	_gOneReadingDisplyed,w
  3715  0D66  1D03               	btfss	3,2
  3716  0D67  2D7E               	goto	l6152
  3717                           
  3718                           ;glucose_meter_main.c: 177: {
  3719                           ;glucose_meter_main.c: 179: LCDInit();
  3720  0D68  3191  214A  318C   	fcall	_LCDInit
  3721                           
  3722                           ;glucose_meter_main.c: 180: ReadSavedGlucoReading(gSavedReadingCnt-1);
  3723  0D6B  0020               	movlb	0	; select bank0
  3724  0D6C  0865               	movf	_gSavedReadingCnt,w
  3725  0D6D  3EFF               	addlw	255
  3726  0D6E  3193  237A  318C   	fcall	_ReadSavedGlucoReading
  3727                           
  3728                           ;glucose_meter_main.c: 181: DisplaySavedGlucoReading();
  3729  0D71  3193  2305  318C   	fcall	_DisplaySavedGlucoReading
  3730                           
  3731                           ;glucose_meter_main.c: 182: gOneReadingDisplyed=1;
  3732  0D74  01F9               	clrf	_gOneReadingDisplyed
  3733  0D75  0AF9               	incf	_gOneReadingDisplyed,f
  3734                           
  3735                           ;glucose_meter_main.c: 183: RedingCount = gSavedReadingCnt-1;
  3736  0D76  0020               	movlb	0	; select bank0
  3737  0D77  0865               	movf	_gSavedReadingCnt,w
  3738  0D78  3EFF               	addlw	255
  3739  0D79  0022               	movlb	2	; select bank2
  3740  0D7A  00B3               	movwf	??_main^(0+256)
  3741  0D7B  0833               	movf	??_main^(0+256),w
  3742  0D7C  00F7               	movwf	_RedingCount
  3743                           
  3744                           ;glucose_meter_main.c: 184: }
  3745  0D7D  2D9D               	goto	l6096
  3746  0D7E                     l6152:	
  3747                           
  3748                           ;glucose_meter_main.c: 185: else if (gDisplayPreviousReading)
  3749  0D7E  0021               	movlb	1	; select bank1
  3750  0D7F  0845               	movf	_gDisplayPreviousReading^(0+128),w
  3751  0D80  1903               	btfsc	3,2
  3752  0D81  2D9D               	goto	l6096
  3753                           
  3754                           ;glucose_meter_main.c: 186: {
  3755                           ;glucose_meter_main.c: 187: if (RedingCount)
  3756  0D82  0877               	movf	_RedingCount,w
  3757  0D83  1903               	btfsc	3,2
  3758  0D84  2D88               	goto	l6158
  3759                           
  3760                           ;glucose_meter_main.c: 188: RedingCount--;
  3761  0D85  3001               	movlw	1
  3762  0D86  02F7               	subwf	_RedingCount,f
  3763  0D87  2D8F               	goto	l6160
  3764  0D88                     l6158:	
  3765                           
  3766                           ;glucose_meter_main.c: 189: else
  3767                           ;glucose_meter_main.c: 190: RedingCount = gSavedReadingCnt-1;
  3768  0D88  0020               	movlb	0	; select bank0
  3769  0D89  0865               	movf	_gSavedReadingCnt,w
  3770  0D8A  3EFF               	addlw	255
  3771  0D8B  0022               	movlb	2	; select bank2
  3772  0D8C  00B3               	movwf	??_main^(0+256)
  3773  0D8D  0833               	movf	??_main^(0+256),w
  3774  0D8E  00F7               	movwf	_RedingCount
  3775  0D8F                     l6160:	
  3776                           
  3777                           ;glucose_meter_main.c: 192: ReadSavedGlucoReading(RedingCount);
  3778  0D8F  0877               	movf	_RedingCount,w
  3779  0D90  3193  237A  318C   	fcall	_ReadSavedGlucoReading
  3780                           
  3781                           ;glucose_meter_main.c: 193: DisplaySavedGlucoReading();
  3782  0D93  3193  2305  318C   	fcall	_DisplaySavedGlucoReading
  3783                           
  3784                           ;glucose_meter_main.c: 194: gDisplayPreviousReading=0;
  3785  0D96  0021               	movlb	1	; select bank1
  3786  0D97  01C5               	clrf	_gDisplayPreviousReading^(0+128)
  3787                           
  3788                           ;glucose_meter_main.c: 195: }
  3789                           ;glucose_meter_main.c: 196: }
  3790                           ;glucose_meter_main.c: 197: }
  3791  0D98  2D9D               	goto	l6096
  3792  0D99                     l6168:	
  3793                           
  3794                           ;glucose_meter_main.c: 199: {
  3795                           ;glucose_meter_main.c: 200: __nop();
  3796  0D99  0000               	nop
  3797  0D9A  0063               	sleep	;# 
  3798                           
  3799                           ;glucose_meter_main.c: 202: __nop();
  3800  0D9B  0000               	nop
  3801                           
  3802                           ;glucose_meter_main.c: 203: __nop();
  3803  0D9C  0000               	nop
  3804  0D9D                     l6096:	
  3805                           ;glucose_meter_main.c: 137: while(1)
  3806                           
  3807                           ;glucose_meter_main.c: 204: }
  3808                           
  3809                           
  3810                           ;glucose_meter_main.c: 138: {
  3811                           ;glucose_meter_main.c: 140: if (gSetDateTime == 1)
  3812  0D9D  0021               	movlb	1	; select bank1
  3813  0D9E  034B               	decf	_gSetDateTime^(0+128),w
  3814  0D9F  1903               	btfsc	3,2
  3815  0DA0  2D09               	goto	l6098
  3816                           
  3817                           ;glucose_meter_main.c: 151: else if (gExitMemoryMode == 1)
  3818  0DA1  0021               	movlb	1	; select bank1
  3819  0DA2  0346               	decf	_gExitMemoryMode^(0+128),w
  3820  0DA3  1903               	btfsc	3,2
  3821  0DA4  2D19               	goto	l6116
  3822                           
  3823                           ;glucose_meter_main.c: 161: else if (gMemorymode == 1)
  3824  0DA5  0378               	decf	_gMemorymode,w
  3825  0DA6  1903               	btfsc	3,2
  3826  0DA7  2D48               	goto	l6132
  3827                           
  3828                           ;glucose_meter_main.c: 198: else if (gSleepMode)
  3829  0DA8  0020               	movlb	0	; select bank0
  3830  0DA9  0866               	movf	_gSleepMode,w
  3831  0DAA  1D03               	btfss	3,2
  3832  0DAB  2D99               	goto	l6168
  3833                           
  3834                           ;glucose_meter_main.c: 205: else
  3835                           ;glucose_meter_main.c: 206: {
  3836                           ;glucose_meter_main.c: 207: DACCON1 = 50;
  3837  0DAC  3032               	movlw	50
  3838  0DAD  0022               	movlb	2	; select bank2
  3839  0DAE  0099               	movwf	25	;volatile
  3840                           
  3841                           ;glucose_meter_main.c: 208: SenseTestStrip();
  3842  0DAF  3186  2639  318C   	fcall	_SenseTestStrip
  3843                           
  3844                           ;glucose_meter_main.c: 209: if(gglucDataReady == 1)
  3845  0DB2  037C               	decf	_gglucDataReady,w
  3846  0DB3  1D03               	btfss	3,2
  3847  0DB4  2FB2               	goto	l6248
  3848                           
  3849                           ;glucose_meter_main.c: 210: {
  3850                           ;glucose_meter_main.c: 211: gglucDataReady = 0;
  3851  0DB5  01FC               	clrf	_gglucDataReady
  3852                           
  3853                           ;glucose_meter_main.c: 213: gAverageGlucose = gSigmaGlucoseValue;
  3854  0DB6  0021               	movlb	1	; select bank1
  3855  0DB7  0827               	movf	(_gSigmaGlucoseValue+3)^(0+128),w
  3856  0DB8  00A3               	movwf	(_gAverageGlucose+3)^(0+128)
  3857  0DB9  0826               	movf	(_gSigmaGlucoseValue+2)^(0+128),w
  3858  0DBA  00A2               	movwf	(_gAverageGlucose+2)^(0+128)
  3859  0DBB  0825               	movf	(_gSigmaGlucoseValue+1)^(0+128),w
  3860  0DBC  00A1               	movwf	(_gAverageGlucose+1)^(0+128)
  3861  0DBD  0824               	movf	_gSigmaGlucoseValue^(0+128),w
  3862  0DBE  00A0               	movwf	_gAverageGlucose^(0+128)
  3863                           
  3864                           ;glucose_meter_main.c: 214: gcaptured2SValue = (int)gAverageGlucose;
  3865  0DBF  0821               	movf	(_gAverageGlucose+1)^(0+128),w
  3866  0DC0  00BF               	movwf	(_gcaptured2SValue+1)^(0+128)
  3867  0DC1  0820               	movf	_gAverageGlucose^(0+128),w
  3868  0DC2  00BE               	movwf	_gcaptured2SValue^(0+128)
  3869                           
  3870                           ;glucose_meter_main.c: 216: CalcGlucose();
  3871  0DC3  3194  2479  318C   	fcall	_CalcGlucose
  3872                           
  3873                           ;glucose_meter_main.c: 217: gYint = (int)gY;
  3874  0DC6  0021               	movlb	1	; select bank1
  3875  0DC7  082B               	movf	_gY^(0+128),w
  3876  0DC8  0020               	movlb	0	; select bank0
  3877  0DC9  00A9               	movwf	___fttol@f1
  3878  0DCA  0021               	movlb	1	; select bank1
  3879  0DCB  082C               	movf	(_gY+1)^(0+128),w
  3880  0DCC  0020               	movlb	0	; select bank0
  3881  0DCD  00AA               	movwf	___fttol@f1+1
  3882  0DCE  0021               	movlb	1	; select bank1
  3883  0DCF  082D               	movf	(_gY+2)^(0+128),w
  3884  0DD0  0020               	movlb	0	; select bank0
  3885  0DD1  00AB               	movwf	___fttol@f1+2
  3886  0DD2  3193  23F2  318C   	fcall	___fttol
  3887  0DD5  0020               	movlb	0	; select bank0
  3888  0DD6  082A               	movf	?___fttol+1,w
  3889  0DD7  0021               	movlb	1	; select bank1
  3890  0DD8  00E0               	movwf	(_gYint+1)^(0+128)
  3891  0DD9  0020               	movlb	0	; select bank0
  3892  0DDA  0829               	movf	?___fttol,w
  3893  0DDB  0021               	movlb	1	; select bank1
  3894  0DDC  00DF               	movwf	_gYint^(0+128)
  3895                           
  3896                           ;glucose_meter_main.c: 218: if (gYint<=0) gYint=0;
  3897  0DDD  0860               	movf	(_gYint+1)^(0+128),w
  3898  0DDE  3A80               	xorlw	128
  3899  0DDF  0022               	movlb	2	; select bank2
  3900  0DE0  00B3               	movwf	??_main^(0+256)
  3901  0DE1  3080               	movlw	128
  3902  0DE2  0233               	subwf	??_main^(0+256),w
  3903  0DE3  1D03               	skipz
  3904  0DE4  2DE8               	goto	u6425
  3905  0DE5  3001               	movlw	1
  3906  0DE6  0021               	movlb	1	; select bank1
  3907  0DE7  025F               	subwf	_gYint^(0+128),w
  3908  0DE8                     u6425:	
  3909  0DE8  1803               	skipnc
  3910  0DE9  2DED               	goto	l6190
  3911  0DEA  0021               	movlb	1	; select bank1
  3912  0DEB  01DF               	clrf	_gYint^(0+128)
  3913  0DEC  01E0               	clrf	(_gYint+1)^(0+128)
  3914  0DED                     l6190:	
  3915                           
  3916                           ;glucose_meter_main.c: 219: gYmmol=gY/18;
  3917  0DED  3000               	movlw	0
  3918  0DEE  0020               	movlb	0	; select bank0
  3919  0DEF  00B1               	movwf	___ftdiv@f2
  3920  0DF0  3090               	movlw	144
  3921  0DF1  00B2               	movwf	___ftdiv@f2+1
  3922  0DF2  3041               	movlw	65
  3923  0DF3  00B3               	movwf	___ftdiv@f2+2
  3924  0DF4  0021               	movlb	1	; select bank1
  3925  0DF5  082B               	movf	_gY^(0+128),w
  3926  0DF6  0020               	movlb	0	; select bank0
  3927  0DF7  00B4               	movwf	___ftdiv@f1
  3928  0DF8  0021               	movlb	1	; select bank1
  3929  0DF9  082C               	movf	(_gY+1)^(0+128),w
  3930  0DFA  0020               	movlb	0	; select bank0
  3931  0DFB  00B5               	movwf	___ftdiv@f1+1
  3932  0DFC  0021               	movlb	1	; select bank1
  3933  0DFD  082D               	movf	(_gY+2)^(0+128),w
  3934  0DFE  0020               	movlb	0	; select bank0
  3935  0DFF  00B6               	movwf	___ftdiv@f1+2
  3936  0E00  3195  250C  318C   	fcall	___ftdiv
  3937  0E03  0020               	movlb	0	; select bank0
  3938  0E04  0831               	movf	?___ftdiv,w
  3939  0E05  0021               	movlb	1	; select bank1
  3940  0E06  00AE               	movwf	_gYmmol^(0+128)
  3941  0E07  0020               	movlb	0	; select bank0
  3942  0E08  0832               	movf	?___ftdiv+1,w
  3943  0E09  0021               	movlb	1	; select bank1
  3944  0E0A  00AF               	movwf	(_gYmmol+1)^(0+128)
  3945  0E0B  0020               	movlb	0	; select bank0
  3946  0E0C  0833               	movf	?___ftdiv+2,w
  3947  0E0D  0021               	movlb	1	; select bank1
  3948  0E0E  00B0               	movwf	(_gYmmol+2)^(0+128)
  3949                           
  3950                           ;glucose_meter_main.c: 220: gYmmolchar = (char)gYmmol;
  3951  0E0F  082E               	movf	_gYmmol^(0+128),w
  3952  0E10  0020               	movlb	0	; select bank0
  3953  0E11  00A9               	movwf	___fttol@f1
  3954  0E12  0021               	movlb	1	; select bank1
  3955  0E13  082F               	movf	(_gYmmol+1)^(0+128),w
  3956  0E14  0020               	movlb	0	; select bank0
  3957  0E15  00AA               	movwf	___fttol@f1+1
  3958  0E16  0021               	movlb	1	; select bank1
  3959  0E17  0830               	movf	(_gYmmol+2)^(0+128),w
  3960  0E18  0020               	movlb	0	; select bank0
  3961  0E19  00AB               	movwf	___fttol@f1+2
  3962  0E1A  3193  23F2  318C   	fcall	___fttol
  3963  0E1D  0020               	movlb	0	; select bank0
  3964  0E1E  0829               	movf	?___fttol,w
  3965  0E1F  0022               	movlb	2	; select bank2
  3966  0E20  00B3               	movwf	??_main^(0+256)
  3967  0E21  0833               	movf	??_main^(0+256),w
  3968  0E22  0020               	movlb	0	; select bank0
  3969  0E23  00E3               	movwf	_gYmmolchar
  3970                           
  3971                           ;glucose_meter_main.c: 221: gYmmoldecimal=(gYmmol - gYmmolchar)*10;
  3972  0E24  3000               	movlw	0
  3973  0E25  00C9               	movwf	___ftmul@f1
  3974  0E26  3020               	movlw	32
  3975  0E27  00CA               	movwf	___ftmul@f1+1
  3976  0E28  3041               	movlw	65
  3977  0E29  00CB               	movwf	___ftmul@f1+2
  3978  0E2A  0021               	movlb	1	; select bank1
  3979  0E2B  082E               	movf	_gYmmol^(0+128),w
  3980  0E2C  0020               	movlb	0	; select bank0
  3981  0E2D  00BC               	movwf	___ftadd@f1
  3982  0E2E  0021               	movlb	1	; select bank1
  3983  0E2F  082F               	movf	(_gYmmol+1)^(0+128),w
  3984  0E30  0020               	movlb	0	; select bank0
  3985  0E31  00BD               	movwf	___ftadd@f1+1
  3986  0E32  0021               	movlb	1	; select bank1
  3987  0E33  0830               	movf	(_gYmmol+2)^(0+128),w
  3988  0E34  0020               	movlb	0	; select bank0
  3989  0E35  00BE               	movwf	___ftadd@f1+2
  3990  0E36  0863               	movf	_gYmmolchar,w
  3991  0E37  319E  2673  318C   	fcall	___lbtoft
  3992  0E3A  0020               	movlb	0	; select bank0
  3993  0E3B  0831               	movf	?___lbtoft,w
  3994  0E3C  00B9               	movwf	___ftneg@f1
  3995  0E3D  0832               	movf	?___lbtoft+1,w
  3996  0E3E  00BA               	movwf	___ftneg@f1+1
  3997  0E3F  0833               	movf	?___lbtoft+2,w
  3998  0E40  00BB               	movwf	___ftneg@f1+2
  3999  0E41  3190  2001  318C   	fcall	___ftneg
  4000  0E44  0020               	movlb	0	; select bank0
  4001  0E45  0839               	movf	?___ftneg,w
  4002  0E46  00BF               	movwf	___ftadd@f2
  4003  0E47  083A               	movf	?___ftneg+1,w
  4004  0E48  00C0               	movwf	___ftadd@f2+1
  4005  0E49  083B               	movf	?___ftneg+2,w
  4006  0E4A  00C1               	movwf	___ftadd@f2+2
  4007  0E4B  3188  20E8  318C   	fcall	___ftadd
  4008  0E4E  0020               	movlb	0	; select bank0
  4009  0E4F  083C               	movf	?___ftadd,w
  4010  0E50  00CC               	movwf	___ftmul@f2
  4011  0E51  083D               	movf	?___ftadd+1,w
  4012  0E52  00CD               	movwf	___ftmul@f2+1
  4013  0E53  083E               	movf	?___ftadd+2,w
  4014  0E54  00CE               	movwf	___ftmul@f2+2
  4015  0E55  3188  2034  318C   	fcall	___ftmul
  4016  0E58  0020               	movlb	0	; select bank0
  4017  0E59  0849               	movf	?___ftmul,w
  4018  0E5A  0021               	movlb	1	; select bank1
  4019  0E5B  00B1               	movwf	_gYmmoldecimal^(0+128)
  4020  0E5C  0020               	movlb	0	; select bank0
  4021  0E5D  084A               	movf	?___ftmul+1,w
  4022  0E5E  0021               	movlb	1	; select bank1
  4023  0E5F  00B2               	movwf	(_gYmmoldecimal+1)^(0+128)
  4024  0E60  0020               	movlb	0	; select bank0
  4025  0E61  084B               	movf	?___ftmul+2,w
  4026  0E62  0021               	movlb	1	; select bank1
  4027  0E63  00B3               	movwf	(_gYmmoldecimal+2)^(0+128)
  4028                           
  4029                           ;glucose_meter_main.c: 222: gYmmoldecimalchar= (char)gYmmoldecimal;
  4030  0E64  0831               	movf	_gYmmoldecimal^(0+128),w
  4031  0E65  0020               	movlb	0	; select bank0
  4032  0E66  00A9               	movwf	___fttol@f1
  4033  0E67  0021               	movlb	1	; select bank1
  4034  0E68  0832               	movf	(_gYmmoldecimal+1)^(0+128),w
  4035  0E69  0020               	movlb	0	; select bank0
  4036  0E6A  00AA               	movwf	___fttol@f1+1
  4037  0E6B  0021               	movlb	1	; select bank1
  4038  0E6C  0833               	movf	(_gYmmoldecimal+2)^(0+128),w
  4039  0E6D  0020               	movlb	0	; select bank0
  4040  0E6E  00AB               	movwf	___fttol@f1+2
  4041  0E6F  3193  23F2  318C   	fcall	___fttol
  4042  0E72  0020               	movlb	0	; select bank0
  4043  0E73  0829               	movf	?___fttol,w
  4044  0E74  0022               	movlb	2	; select bank2
  4045  0E75  00B3               	movwf	??_main^(0+256)
  4046  0E76  0833               	movf	??_main^(0+256),w
  4047  0E77  00FD               	movwf	_gYmmoldecimalchar
  4048                           
  4049                           ;glucose_meter_main.c: 223: if (gYmmolchar <= 0) gYmmolchar=0;
  4050  0E78  0020               	movlb	0	; select bank0
  4051  0E79  0863               	movf	_gYmmolchar,w
  4052  0E7A  1903               	btfsc	3,2
  4053  0E7B  01E3               	clrf	_gYmmolchar
  4054                           
  4055                           ;glucose_meter_main.c: 224: if (gYmmoldecimalchar <= 0) gYmmoldecimalchar=0;
  4056  0E7C  087D               	movf	_gYmmoldecimalchar,w
  4057  0E7D  1903               	btfsc	3,2
  4058  0E7E  01FD               	clrf	_gYmmoldecimalchar
  4059                           
  4060                           ;glucose_meter_main.c: 237: LCDClear();
  4061  0E7F  319F  274E  318C   	fcall	_LCDClear
  4062                           
  4063                           ;glucose_meter_main.c: 238: char lcdFormatted = {0};
  4064  0E82  0021               	movlb	1	; select bank1
  4065  0E83  01E8               	clrf	main@lcdFormatted^(0+128)
  4066                           
  4067                           ;glucose_meter_main.c: 239: sprintf(lcdFormatted,"%03dmg/dl%02d/%02d/%02d", gYint, Month
      +                          , Days, Year);
  4068  0E84  0868               	movf	main@lcdFormatted^(0+128),w
  4069  0E85  0022               	movlb	2	; select bank2
  4070  0E86  00B3               	movwf	??_main^(0+256)
  4071  0E87  01B4               	clrf	(??_main^(0+256)+1)
  4072  0E88  0833               	movf	??_main^(0+256),w
  4073  0E89  0020               	movlb	0	; select bank0
  4074  0E8A  00C6               	movwf	sprintf@wh
  4075  0E8B  0022               	movlb	2	; select bank2
  4076  0E8C  0834               	movf	(??_main+1)^(0+256),w
  4077  0E8D  0020               	movlb	0	; select bank0
  4078  0E8E  00C7               	movwf	sprintf@wh+1
  4079  0E8F  303E               	movlw	low (STR_7| (0+32768))
  4080  0E90  00C8               	movwf	sprintf@f
  4081  0E91  3085               	movlw	high (STR_7| (0+32768))
  4082  0E92  00C9               	movwf	sprintf@f+1
  4083  0E93  0021               	movlb	1	; select bank1
  4084  0E94  0860               	movf	(_gYint+1)^(0+128),w
  4085  0E95  0020               	movlb	0	; select bank0
  4086  0E96  00CB               	movwf	?_sprintf+5
  4087  0E97  0021               	movlb	1	; select bank1
  4088  0E98  085F               	movf	_gYint^(0+128),w
  4089  0E99  0020               	movlb	0	; select bank0
  4090  0E9A  00CA               	movwf	?_sprintf+4
  4091  0E9B  0861               	movf	_Month,w
  4092  0E9C  0022               	movlb	2	; select bank2
  4093  0E9D  00B5               	movwf	(??_main+2)^(0+256)
  4094  0E9E  01B6               	clrf	((??_main+2)^(0+256)+1)
  4095  0E9F  0835               	movf	(??_main+2)^(0+256),w
  4096  0EA0  0020               	movlb	0	; select bank0
  4097  0EA1  00CC               	movwf	?_sprintf+6
  4098  0EA2  0022               	movlb	2	; select bank2
  4099  0EA3  0836               	movf	(??_main+3)^(0+256),w
  4100  0EA4  0020               	movlb	0	; select bank0
  4101  0EA5  00CD               	movwf	?_sprintf+7
  4102  0EA6  085E               	movf	_Days,w
  4103  0EA7  0022               	movlb	2	; select bank2
  4104  0EA8  00B7               	movwf	(??_main+4)^(0+256)
  4105  0EA9  01B8               	clrf	((??_main+4)^(0+256)+1)
  4106  0EAA  0837               	movf	(??_main+4)^(0+256),w
  4107  0EAB  0020               	movlb	0	; select bank0
  4108  0EAC  00CE               	movwf	?_sprintf+8
  4109  0EAD  0022               	movlb	2	; select bank2
  4110  0EAE  0838               	movf	(??_main+5)^(0+256),w
  4111  0EAF  0020               	movlb	0	; select bank0
  4112  0EB0  00CF               	movwf	?_sprintf+9
  4113  0EB1  0862               	movf	_Year,w
  4114  0EB2  0022               	movlb	2	; select bank2
  4115  0EB3  00B9               	movwf	(??_main+6)^(0+256)
  4116  0EB4  01BA               	clrf	((??_main+6)^(0+256)+1)
  4117  0EB5  0839               	movf	(??_main+6)^(0+256),w
  4118  0EB6  0020               	movlb	0	; select bank0
  4119  0EB7  00D0               	movwf	?_sprintf+10
  4120  0EB8  0022               	movlb	2	; select bank2
  4121  0EB9  083A               	movf	(??_main+7)^(0+256),w
  4122  0EBA  0020               	movlb	0	; select bank0
  4123  0EBB  00D1               	movwf	?_sprintf+11
  4124  0EBC  319E  26AA  318C   	fcall	_sprintf
  4125                           
  4126                           ;glucose_meter_main.c: 240: LCDString(lcdFormatted);
  4127  0EBF  0021               	movlb	1	; select bank1
  4128  0EC0  0868               	movf	main@lcdFormatted^(0+128),w
  4129  0EC1  0022               	movlb	2	; select bank2
  4130  0EC2  00B3               	movwf	??_main^(0+256)
  4131  0EC3  01B4               	clrf	(??_main^(0+256)+1)
  4132  0EC4  0833               	movf	??_main^(0+256),w
  4133  0EC5  0020               	movlb	0	; select bank0
  4134  0EC6  00BC               	movwf	LCDString@characters
  4135  0EC7  0022               	movlb	2	; select bank2
  4136  0EC8  0834               	movf	(??_main+1)^(0+256),w
  4137  0EC9  0020               	movlb	0	; select bank0
  4138  0ECA  00BD               	movwf	LCDString@characters+1
  4139  0ECB  319E  2645  318C   	fcall	_LCDString
  4140                           
  4141                           ;glucose_meter_main.c: 242: gotoXY(0,1);
  4142  0ECE  0020               	movlb	0	; select bank0
  4143  0ECF  01B4               	clrf	gotoXY@y
  4144  0ED0  0AB4               	incf	gotoXY@y,f
  4145  0ED1  3000               	movlw	0
  4146  0ED2  319E  2630  318C   	fcall	_gotoXY
  4147                           
  4148                           ;glucose_meter_main.c: 243: char lcdFormatted = {0};
  4149  0ED5  0021               	movlb	1	; select bank1
  4150  0ED6  01E8               	clrf	main@lcdFormatted^(0+128)
  4151                           
  4152                           ;glucose_meter_main.c: 244: sprintf(lcdFormatted,"ADC = %d    ",gcaptured2SValue);
  4153  0ED7  0868               	movf	main@lcdFormatted^(0+128),w
  4154  0ED8  0022               	movlb	2	; select bank2
  4155  0ED9  00B3               	movwf	??_main^(0+256)
  4156  0EDA  01B4               	clrf	(??_main^(0+256)+1)
  4157  0EDB  0833               	movf	??_main^(0+256),w
  4158  0EDC  0020               	movlb	0	; select bank0
  4159  0EDD  00C6               	movwf	sprintf@wh
  4160  0EDE  0022               	movlb	2	; select bank2
  4161  0EDF  0834               	movf	(??_main+1)^(0+256),w
  4162  0EE0  0020               	movlb	0	; select bank0
  4163  0EE1  00C7               	movwf	sprintf@wh+1
  4164  0EE2  3007               	movlw	low (STR_8| (0+32768))
  4165  0EE3  00C8               	movwf	sprintf@f
  4166  0EE4  3086               	movlw	high (STR_8| (0+32768))
  4167  0EE5  00C9               	movwf	sprintf@f+1
  4168  0EE6  0021               	movlb	1	; select bank1
  4169  0EE7  083F               	movf	(_gcaptured2SValue+1)^(0+128),w
  4170  0EE8  0020               	movlb	0	; select bank0
  4171  0EE9  00CB               	movwf	?_sprintf+5
  4172  0EEA  0021               	movlb	1	; select bank1
  4173  0EEB  083E               	movf	_gcaptured2SValue^(0+128),w
  4174  0EEC  0020               	movlb	0	; select bank0
  4175  0EED  00CA               	movwf	?_sprintf+4
  4176  0EEE  319E  26AA  318C   	fcall	_sprintf
  4177                           
  4178                           ;glucose_meter_main.c: 245: LCDString(lcdFormatted);
  4179  0EF1  0021               	movlb	1	; select bank1
  4180  0EF2  0868               	movf	main@lcdFormatted^(0+128),w
  4181  0EF3  0022               	movlb	2	; select bank2
  4182  0EF4  00B3               	movwf	??_main^(0+256)
  4183  0EF5  01B4               	clrf	(??_main^(0+256)+1)
  4184  0EF6  0833               	movf	??_main^(0+256),w
  4185  0EF7  0020               	movlb	0	; select bank0
  4186  0EF8  00BC               	movwf	LCDString@characters
  4187  0EF9  0022               	movlb	2	; select bank2
  4188  0EFA  0834               	movf	(??_main+1)^(0+256),w
  4189  0EFB  0020               	movlb	0	; select bank0
  4190  0EFC  00BD               	movwf	LCDString@characters+1
  4191  0EFD  319E  2645  318C   	fcall	_LCDString
  4192                           
  4193                           ;glucose_meter_main.c: 247: char lcdFormatted = {0};
  4194  0F00  0021               	movlb	1	; select bank1
  4195  0F01  01E8               	clrf	main@lcdFormatted^(0+128)
  4196                           
  4197                           ;glucose_meter_main.c: 248: sprintf(lcdFormatted,"%d.%dmmol/L %02d:%02d", gYmmolchar,gYm
      +                          moldecimalchar, Hours, Minutes);
  4198  0F02  0868               	movf	main@lcdFormatted^(0+128),w
  4199  0F03  0022               	movlb	2	; select bank2
  4200  0F04  00B3               	movwf	??_main^(0+256)
  4201  0F05  01B4               	clrf	(??_main^(0+256)+1)
  4202  0F06  0833               	movf	??_main^(0+256),w
  4203  0F07  0020               	movlb	0	; select bank0
  4204  0F08  00C6               	movwf	sprintf@wh
  4205  0F09  0022               	movlb	2	; select bank2
  4206  0F0A  0834               	movf	(??_main+1)^(0+256),w
  4207  0F0B  0020               	movlb	0	; select bank0
  4208  0F0C  00C7               	movwf	sprintf@wh+1
  4209  0F0D  3056               	movlw	low (STR_9| (0+32768))
  4210  0F0E  00C8               	movwf	sprintf@f
  4211  0F0F  3085               	movlw	high (STR_9| (0+32768))
  4212  0F10  00C9               	movwf	sprintf@f+1
  4213  0F11  0863               	movf	_gYmmolchar,w
  4214  0F12  0022               	movlb	2	; select bank2
  4215  0F13  00B5               	movwf	(??_main+2)^(0+256)
  4216  0F14  01B6               	clrf	((??_main+2)^(0+256)+1)
  4217  0F15  0835               	movf	(??_main+2)^(0+256),w
  4218  0F16  0020               	movlb	0	; select bank0
  4219  0F17  00CA               	movwf	?_sprintf+4
  4220  0F18  0022               	movlb	2	; select bank2
  4221  0F19  0836               	movf	(??_main+3)^(0+256),w
  4222  0F1A  0020               	movlb	0	; select bank0
  4223  0F1B  00CB               	movwf	?_sprintf+5
  4224  0F1C  087D               	movf	_gYmmoldecimalchar,w
  4225  0F1D  0022               	movlb	2	; select bank2
  4226  0F1E  00B7               	movwf	(??_main+4)^(0+256)
  4227  0F1F  01B8               	clrf	((??_main+4)^(0+256)+1)
  4228  0F20  0837               	movf	(??_main+4)^(0+256),w
  4229  0F21  0020               	movlb	0	; select bank0
  4230  0F22  00CC               	movwf	?_sprintf+6
  4231  0F23  0022               	movlb	2	; select bank2
  4232  0F24  0838               	movf	(??_main+5)^(0+256),w
  4233  0F25  0020               	movlb	0	; select bank0
  4234  0F26  00CD               	movwf	?_sprintf+7
  4235  0F27  085F               	movf	_Hours,w
  4236  0F28  0022               	movlb	2	; select bank2
  4237  0F29  00B9               	movwf	(??_main+6)^(0+256)
  4238  0F2A  01BA               	clrf	((??_main+6)^(0+256)+1)
  4239  0F2B  0839               	movf	(??_main+6)^(0+256),w
  4240  0F2C  0020               	movlb	0	; select bank0
  4241  0F2D  00CE               	movwf	?_sprintf+8
  4242  0F2E  0022               	movlb	2	; select bank2
  4243  0F2F  083A               	movf	(??_main+7)^(0+256),w
  4244  0F30  0020               	movlb	0	; select bank0
  4245  0F31  00CF               	movwf	?_sprintf+9
  4246  0F32  0860               	movf	_Minutes,w
  4247  0F33  0022               	movlb	2	; select bank2
  4248  0F34  00BB               	movwf	(??_main+8)^(0+256)
  4249  0F35  01BC               	clrf	((??_main+8)^(0+256)+1)
  4250  0F36  083B               	movf	(??_main+8)^(0+256),w
  4251  0F37  0020               	movlb	0	; select bank0
  4252  0F38  00D0               	movwf	?_sprintf+10
  4253  0F39  0022               	movlb	2	; select bank2
  4254  0F3A  083C               	movf	(??_main+9)^(0+256),w
  4255  0F3B  0020               	movlb	0	; select bank0
  4256  0F3C  00D1               	movwf	?_sprintf+11
  4257  0F3D  319E  26AA  318C   	fcall	_sprintf
  4258                           
  4259                           ;glucose_meter_main.c: 249: LCDString(lcdFormatted);
  4260  0F40  0021               	movlb	1	; select bank1
  4261  0F41  0868               	movf	main@lcdFormatted^(0+128),w
  4262  0F42  0022               	movlb	2	; select bank2
  4263  0F43  00B3               	movwf	??_main^(0+256)
  4264  0F44  01B4               	clrf	(??_main^(0+256)+1)
  4265  0F45  0833               	movf	??_main^(0+256),w
  4266  0F46  0020               	movlb	0	; select bank0
  4267  0F47  00BC               	movwf	LCDString@characters
  4268  0F48  0022               	movlb	2	; select bank2
  4269  0F49  0834               	movf	(??_main+1)^(0+256),w
  4270  0F4A  0020               	movlb	0	; select bank0
  4271  0F4B  00BD               	movwf	LCDString@characters+1
  4272  0F4C  319E  2645  318C   	fcall	_LCDString
  4273                           
  4274                           ;glucose_meter_main.c: 252: char lcdFormatted = {0};
  4275  0F4F  0021               	movlb	1	; select bank1
  4276  0F50  01E8               	clrf	main@lcdFormatted^(0+128)
  4277                           
  4278                           ;glucose_meter_main.c: 253: sprintf(lcdFormatted,"\r\n Temperature int: %d deg", gTempin
      +                          t2);
  4279  0F51  0868               	movf	main@lcdFormatted^(0+128),w
  4280  0F52  0022               	movlb	2	; select bank2
  4281  0F53  00B3               	movwf	??_main^(0+256)
  4282  0F54  01B4               	clrf	(??_main^(0+256)+1)
  4283  0F55  0833               	movf	??_main^(0+256),w
  4284  0F56  0020               	movlb	0	; select bank0
  4285  0F57  00C6               	movwf	sprintf@wh
  4286  0F58  0022               	movlb	2	; select bank2
  4287  0F59  0834               	movf	(??_main+1)^(0+256),w
  4288  0F5A  0020               	movlb	0	; select bank0
  4289  0F5B  00C7               	movwf	sprintf@wh+1
  4290  0F5C  3023               	movlw	low (STR_10| (0+32768))
  4291  0F5D  00C8               	movwf	sprintf@f
  4292  0F5E  3085               	movlw	high (STR_10| (0+32768))
  4293  0F5F  00C9               	movwf	sprintf@f+1
  4294  0F60  0021               	movlb	1	; select bank1
  4295  0F61  083B               	movf	(_gTempint2+1)^(0+128),w
  4296  0F62  0020               	movlb	0	; select bank0
  4297  0F63  00CB               	movwf	?_sprintf+5
  4298  0F64  0021               	movlb	1	; select bank1
  4299  0F65  083A               	movf	_gTempint2^(0+128),w
  4300  0F66  0020               	movlb	0	; select bank0
  4301  0F67  00CA               	movwf	?_sprintf+4
  4302  0F68  319E  26AA  318C   	fcall	_sprintf
  4303                           
  4304                           ;glucose_meter_main.c: 254: LCDString(lcdFormatted);
  4305  0F6B  0021               	movlb	1	; select bank1
  4306  0F6C  0868               	movf	main@lcdFormatted^(0+128),w
  4307  0F6D  0022               	movlb	2	; select bank2
  4308  0F6E  00B3               	movwf	??_main^(0+256)
  4309  0F6F  01B4               	clrf	(??_main^(0+256)+1)
  4310  0F70  0833               	movf	??_main^(0+256),w
  4311  0F71  0020               	movlb	0	; select bank0
  4312  0F72  00BC               	movwf	LCDString@characters
  4313  0F73  0022               	movlb	2	; select bank2
  4314  0F74  0834               	movf	(??_main+1)^(0+256),w
  4315  0F75  0020               	movlb	0	; select bank0
  4316  0F76  00BD               	movwf	LCDString@characters+1
  4317  0F77  319E  2645  318C   	fcall	_LCDString
  4318                           
  4319                           ;glucose_meter_main.c: 256: SaveGlucoReading();
  4320  0F7A  3192  223C  318C   	fcall	_SaveGlucoReading
  4321                           
  4322                           ;glucose_meter_main.c: 258: LATB1 = 0;
  4323  0F7D  0022               	movlb	2	; select bank2
  4324  0F7E  108D               	bcf	13,1	;volatile
  4325                           
  4326                           ;glucose_meter_main.c: 259: { ADCON0 = 0x01 | (0 << 2); };
  4327  0F7F  3001               	movlw	1
  4328  0F80  0021               	movlb	1	; select bank1
  4329  0F81  009D               	movwf	29	;volatile
  4330                           
  4331                           ;glucose_meter_main.c: 260: gtimeOutCount = 60000;
  4332  0F82  3000               	movlw	0
  4333  0F83  00DE               	movwf	(_gtimeOutCount+3)^(0+128)
  4334  0F84  3000               	movlw	0
  4335  0F85  00DD               	movwf	(_gtimeOutCount+2)^(0+128)
  4336  0F86  30EA               	movlw	234
  4337  0F87  00DC               	movwf	(_gtimeOutCount+1)^(0+128)
  4338  0F88  3060               	movlw	96
  4339  0F89  00DB               	movwf	_gtimeOutCount^(0+128)
  4340  0F8A                     l513:	
  4341                           ;glucose_meter_main.c: 261: while(gtimeOutCount!=0)gtimeOutCount--;
  4342                           
  4343  0F8A  085E               	movf	(_gtimeOutCount+3)^(0+128),w
  4344  0F8B  045D               	iorwf	(_gtimeOutCount+2)^(0+128),w
  4345  0F8C  045C               	iorwf	(_gtimeOutCount+1)^(0+128),w
  4346  0F8D  045B               	iorwf	_gtimeOutCount^(0+128),w
  4347  0F8E  1903               	btfsc	3,2
  4348  0F8F  2FA9               	goto	l516
  4349  0F90  3001               	movlw	1
  4350  0F91  0022               	movlb	2	; select bank2
  4351  0F92  00B3               	movwf	??_main^(0+256)
  4352  0F93  3000               	movlw	0
  4353  0F94  00B4               	movwf	(??_main^(0+256)+1)
  4354  0F95  3000               	movlw	0
  4355  0F96  00B5               	movwf	(??_main^(0+256)+2)
  4356  0F97  3000               	movlw	0
  4357  0F98  00B6               	movwf	(??_main^(0+256)+3)
  4358  0F99  0833               	movf	??_main^(0+256),w
  4359  0F9A  0021               	movlb	1	; select bank1
  4360  0F9B  02DB               	subwf	_gtimeOutCount^(0+128),f
  4361  0F9C  0022               	movlb	2	; select bank2
  4362  0F9D  0834               	movf	(??_main+1)^(0+256),w
  4363  0F9E  0021               	movlb	1	; select bank1
  4364  0F9F  3BDC               	subwfb	(_gtimeOutCount+1)^(0+128),f
  4365  0FA0  0022               	movlb	2	; select bank2
  4366  0FA1  0835               	movf	(??_main+2)^(0+256),w
  4367  0FA2  0021               	movlb	1	; select bank1
  4368  0FA3  3BDD               	subwfb	(_gtimeOutCount+2)^(0+128),f
  4369  0FA4  0022               	movlb	2	; select bank2
  4370  0FA5  0836               	movf	(??_main+3)^(0+256),w
  4371  0FA6  0021               	movlb	1	; select bank1
  4372  0FA7  3BDE               	subwfb	(_gtimeOutCount+3)^(0+128),f
  4373  0FA8  2F8A               	goto	l513
  4374  0FA9                     l516:	
  4375                           ;glucose_meter_main.c: 262: while (!(PORTB & 0x01));
  4376                           
  4377  0FA9  0020               	movlb	0	; select bank0
  4378  0FAA  1C0D               	btfss	13,0	;volatile
  4379  0FAB  2FA9               	goto	l516
  4380                           
  4381                           ;glucose_meter_main.c: 263: EnterDeepSleep();
  4382  0FAC  3188  2001  318C   	fcall	_EnterDeepSleep
  4383                           
  4384                           ;glucose_meter_main.c: 264: __nop();
  4385  0FAF  0000               	nop
  4386                           
  4387                           ;glucose_meter_main.c: 265: __nop();
  4388  0FB0  0000               	nop
  4389                           
  4390                           ;glucose_meter_main.c: 266: __nop();
  4391  0FB1  0000               	nop
  4392  0FB2                     l6248:	
  4393                           
  4394                           ;glucose_meter_main.c: 268: }
  4395                           ;glucose_meter_main.c: 269: if (gBloodNotInsetrted == 1)
  4396  0FB2  0021               	movlb	1	; select bank1
  4397  0FB3  0343               	decf	_gBloodNotInsetrted^(0+128),w
  4398  0FB4  1D03               	btfss	3,2
  4399  0FB5  2D9D               	goto	l6096
  4400                           
  4401                           ;glucose_meter_main.c: 270: {
  4402                           ;glucose_meter_main.c: 271: gBloodNotInsetrted = 0;
  4403  0FB6  01C3               	clrf	_gBloodNotInsetrted^(0+128)
  4404                           
  4405                           ;glucose_meter_main.c: 272: LCDClear();
  4406  0FB7  319F  274E  318C   	fcall	_LCDClear
  4407                           
  4408                           ;glucose_meter_main.c: 273: LCDString("   Sample Not   ");
  4409  0FBA  30C5               	movlw	low (STR_11| (0+32768))
  4410  0FBB  0020               	movlb	0	; select bank0
  4411  0FBC  00BC               	movwf	LCDString@characters
  4412  0FBD  3085               	movlw	high (STR_11| (0+32768))
  4413  0FBE  00BD               	movwf	LCDString@characters+1
  4414  0FBF  319E  2645  318C   	fcall	_LCDString
  4415                           
  4416                           ;glucose_meter_main.c: 274: gotoXY(0,1);
  4417  0FC2  0020               	movlb	0	; select bank0
  4418  0FC3  01B4               	clrf	gotoXY@y
  4419  0FC4  0AB4               	incf	gotoXY@y,f
  4420  0FC5  3000               	movlw	0
  4421  0FC6  319E  2630  318C   	fcall	_gotoXY
  4422                           
  4423                           ;glucose_meter_main.c: 275: LCDString("    Inserted    ");
  4424  0FC9  30B4               	movlw	low (STR_12| (0+32768))
  4425  0FCA  0020               	movlb	0	; select bank0
  4426  0FCB  00BC               	movwf	LCDString@characters
  4427  0FCC  3085               	movlw	high (STR_12| (0+32768))
  4428  0FCD  00BD               	movwf	LCDString@characters+1
  4429  0FCE  319E  2645  318C   	fcall	_LCDString
  4430                           
  4431                           ;glucose_meter_main.c: 276: gtimeOutCount = 60000;
  4432  0FD1  3000               	movlw	0
  4433  0FD2  0021               	movlb	1	; select bank1
  4434  0FD3  00DE               	movwf	(_gtimeOutCount+3)^(0+128)
  4435  0FD4  3000               	movlw	0
  4436  0FD5  00DD               	movwf	(_gtimeOutCount+2)^(0+128)
  4437  0FD6  30EA               	movlw	234
  4438  0FD7  00DC               	movwf	(_gtimeOutCount+1)^(0+128)
  4439  0FD8  3060               	movlw	96
  4440  0FD9  00DB               	movwf	_gtimeOutCount^(0+128)
  4441  0FDA                     l520:	
  4442                           ;glucose_meter_main.c: 277: while(gtimeOutCount!=0)gtimeOutCount--;
  4443                           
  4444  0FDA  085E               	movf	(_gtimeOutCount+3)^(0+128),w
  4445  0FDB  045D               	iorwf	(_gtimeOutCount+2)^(0+128),w
  4446  0FDC  045C               	iorwf	(_gtimeOutCount+1)^(0+128),w
  4447  0FDD  045B               	iorwf	_gtimeOutCount^(0+128),w
  4448  0FDE  1903               	btfsc	3,2
  4449  0FDF  2FF9               	goto	l6264
  4450  0FE0  3001               	movlw	1
  4451  0FE1  0022               	movlb	2	; select bank2
  4452  0FE2  00B3               	movwf	??_main^(0+256)
  4453  0FE3  3000               	movlw	0
  4454  0FE4  00B4               	movwf	(??_main^(0+256)+1)
  4455  0FE5  3000               	movlw	0
  4456  0FE6  00B5               	movwf	(??_main^(0+256)+2)
  4457  0FE7  3000               	movlw	0
  4458  0FE8  00B6               	movwf	(??_main^(0+256)+3)
  4459  0FE9  0833               	movf	??_main^(0+256),w
  4460  0FEA  0021               	movlb	1	; select bank1
  4461  0FEB  02DB               	subwf	_gtimeOutCount^(0+128),f
  4462  0FEC  0022               	movlb	2	; select bank2
  4463  0FED  0834               	movf	(??_main+1)^(0+256),w
  4464  0FEE  0021               	movlb	1	; select bank1
  4465  0FEF  3BDC               	subwfb	(_gtimeOutCount+1)^(0+128),f
  4466  0FF0  0022               	movlb	2	; select bank2
  4467  0FF1  0835               	movf	(??_main+2)^(0+256),w
  4468  0FF2  0021               	movlb	1	; select bank1
  4469  0FF3  3BDD               	subwfb	(_gtimeOutCount+2)^(0+128),f
  4470  0FF4  0022               	movlb	2	; select bank2
  4471  0FF5  0836               	movf	(??_main+3)^(0+256),w
  4472  0FF6  0021               	movlb	1	; select bank1
  4473  0FF7  3BDE               	subwfb	(_gtimeOutCount+3)^(0+128),f
  4474  0FF8  2FDA               	goto	l520
  4475  0FF9                     l6264:	
  4476                           
  4477                           ;glucose_meter_main.c: 278: EnterDeepSleep();
  4478  0FF9  3188  2001  318C   	fcall	_EnterDeepSleep
  4479                           
  4480                           ;glucose_meter_main.c: 279: __nop();
  4481  0FFC  0000               	nop
  4482                           
  4483                           ;glucose_meter_main.c: 280: __nop();
  4484  0FFD  0000               	nop
  4485                           
  4486                           ;glucose_meter_main.c: 281: __nop();
  4487  0FFE  0000               	nop
  4488  0FFF  2D9D               	goto	l6096
  4489  1000                     __end_of_main:	
  4490                           
  4491                           	psect	text1
  4492  1E73                     __ptext1:	
  4493 ;; *************** function ___lbtoft *****************
  4494 ;; Defined at:
  4495 ;;		line 27 in file "C:\Program Files (x86)\Microchip\xc8\v1.37\sources\common\lbtoft.c"
  4496 ;; Parameters:    Size  Location     Type
  4497 ;;  c               1    wreg     unsigned char 
  4498 ;; Auto vars:     Size  Location     Type
  4499 ;;  c               1   24[BANK0 ] unsigned char 
  4500 ;; Return value:  Size  Location     Type
  4501 ;;                  3   17[BANK0 ] float 
  4502 ;; Registers used:
  4503 ;;		wreg, status,2, status,0, pclath, cstack
  4504 ;; Tracked objects:
  4505 ;;		On entry : 0/0
  4506 ;;		On exit  : 0/0
  4507 ;;		Unchanged: 0/0
  4508 ;; Data sizes:     COMMON   BANK0   BANK1   BANK2   BANK3   BANK4   BANK5   BANK6   BANK7   BANK8   BANK9  BANK10  BANK1
      +1  BANK12
  4509 ;;      Params:         0       3       0       0       0       0       0       0       0       0       0       0       
      +0       0
  4510 ;;      Locals:         0       1       0       0       0       0       0       0       0       0       0       0       
      +0       0
  4511 ;;      Temps:          0       4       0       0       0       0       0       0       0       0       0       0       
      +0       0
  4512 ;;      Totals:         0       8       0       0       0       0       0       0       0       0       0       0       
      +0       0
  4513 ;;Total ram usage:        8 bytes
  4514 ;; Hardware stack levels used:    1
  4515 ;; Hardware stack levels required when called:    4
  4516 ;; This function calls:
  4517 ;;		___ftpack
  4518 ;; This function is called by:
  4519 ;;		_main
  4520 ;; This function uses a non-reentrant model
  4521 ;;
  4522                           
  4523                           
  4524                           ;psect for function ___lbtoft
  4525  1E73                     ___lbtoft:	
  4526                           
  4527                           ;incstack = 0
  4528                           ; Regs used in ___lbtoft: [wreg+status,2+status,0+pclath+cstack]
  4529                           ;___lbtoft@c stored from wreg
  4530  1E73  0020               	movlb	0	; select bank0
  4531  1E74  00B8               	movwf	___lbtoft@c
  4532  1E75  0838               	movf	___lbtoft@c,w
  4533  1E76  00B4               	movwf	??___lbtoft
  4534  1E77  01B5               	clrf	??___lbtoft+1
  4535  1E78  01B6               	clrf	??___lbtoft+2
  4536  1E79  0834               	movf	??___lbtoft,w
  4537  1E7A  00A9               	movwf	___ftpack@arg
  4538  1E7B  0835               	movf	??___lbtoft+1,w
  4539  1E7C  00AA               	movwf	___ftpack@arg+1
  4540  1E7D  0836               	movf	??___lbtoft+2,w
  4541  1E7E  00AB               	movwf	___ftpack@arg+2
  4542  1E7F  308E               	movlw	142
  4543  1E80  00B7               	movwf	??___lbtoft+3
  4544  1E81  0837               	movf	??___lbtoft+3,w
  4545  1E82  00AC               	movwf	___ftpack@exp
  4546  1E83  01AD               	clrf	___ftpack@sign
  4547  1E84  3192  22A0         	fcall	___ftpack
  4548  1E86  0020               	movlb	0	; select bank0
  4549  1E87  0829               	movf	?___ftpack,w
  4550  1E88  00B1               	movwf	?___lbtoft
  4551  1E89  082A               	movf	?___ftpack+1,w
  4552  1E8A  00B2               	movwf	?___lbtoft+1
  4553  1E8B  082B               	movf	?___ftpack+2,w
  4554  1E8C  00B3               	movwf	?___lbtoft+2
  4555  1E8D  0008               	return
  4556  1E8E                     __end_of___lbtoft:	
  4557                           
  4558                           	psect	text2
  4559  1001                     __ptext2:	
  4560 ;; *************** function ___ftneg *****************
  4561 ;; Defined at:
  4562 ;;		line 15 in file "C:\Program Files (x86)\Microchip\xc8\v1.37\sources\common\ftneg.c"
  4563 ;; Parameters:    Size  Location     Type
  4564 ;;  f1              3   25[BANK0 ] float 
  4565 ;; Auto vars:     Size  Location     Type
  4566 ;;		None
  4567 ;; Return value:  Size  Location     Type
  4568 ;;                  3   25[BANK0 ] float 
  4569 ;; Registers used:
  4570 ;;		wreg
  4571 ;; Tracked objects:
  4572 ;;		On entry : 0/0
  4573 ;;		On exit  : 0/0
  4574 ;;		Unchanged: 0/0
  4575 ;; Data sizes:     COMMON   BANK0   BANK1   BANK2   BANK3   BANK4   BANK5   BANK6   BANK7   BANK8   BANK9  BANK10  BANK1
      +1  BANK12
  4576 ;;      Params:         0       3       0       0       0       0       0       0       0       0       0       0       
      +0       0
  4577 ;;      Locals:         0       0       0       0       0       0       0       0       0       0       0       0       
      +0       0
  4578 ;;      Temps:          0       0       0       0       0       0       0       0       0       0       0       0       
      +0       0
  4579 ;;      Totals:         0       3       0       0       0       0       0       0       0       0       0       0       
      +0       0
  4580 ;;Total ram usage:        3 bytes
  4581 ;; Hardware stack levels used:    1
  4582 ;; Hardware stack levels required when called:    3
  4583 ;; This function calls:
  4584 ;;		Nothing
  4585 ;; This function is called by:
  4586 ;;		_main
  4587 ;; This function uses a non-reentrant model
  4588 ;;
  4589                           
  4590                           
  4591                           ;psect for function ___ftneg
  4592  1001                     ___ftneg:	
  4593                           
  4594                           ;incstack = 0
  4595                           ; Regs used in ___ftneg: [wreg]
  4596  1001  0020               	movlb	0	; select bank0
  4597  1002  083B               	movf	___ftneg@f1+2,w
  4598  1003  043A               	iorwf	___ftneg@f1+1,w
  4599  1004  0439               	iorwf	___ftneg@f1,w
  4600  1005  1903               	skipnz
  4601  1006  0008               	return
  4602  1007  3080               	movlw	128
  4603  1008  06BB               	xorwf	___ftneg@f1+2,f
  4604  1009  0008               	return
  4605  100A                     __end_of___ftneg:	
  4606                           
  4607                           	psect	text3
  4608  150C                     __ptext3:	
  4609 ;; *************** function ___ftdiv *****************
  4610 ;; Defined at:
  4611 ;;		line 56 in file "C:\Program Files (x86)\Microchip\xc8\v1.37\sources\common\ftdiv.c"
  4612 ;; Parameters:    Size  Location     Type
  4613 ;;  f2              3   17[BANK0 ] float 
  4614 ;;  f1              3   20[BANK0 ] float 
  4615 ;; Auto vars:     Size  Location     Type
  4616 ;;  f3              3   28[BANK0 ] float 
  4617 ;;  sign            1   32[BANK0 ] unsigned char 
  4618 ;;  exp             1   31[BANK0 ] unsigned char 
  4619 ;;  cntr            1   27[BANK0 ] unsigned char 
  4620 ;; Return value:  Size  Location     Type
  4621 ;;                  3   17[BANK0 ] float 
  4622 ;; Registers used:
  4623 ;;		wreg, status,2, status,0, pclath, cstack
  4624 ;; Tracked objects:
  4625 ;;		On entry : 0/0
  4626 ;;		On exit  : 0/0
  4627 ;;		Unchanged: 0/0
  4628 ;; Data sizes:     COMMON   BANK0   BANK1   BANK2   BANK3   BANK4   BANK5   BANK6   BANK7   BANK8   BANK9  BANK10  BANK1
      +1  BANK12
  4629 ;;      Params:         0       6       0       0       0       0       0       0       0       0       0       0       
      +0       0
  4630 ;;      Locals:         0       6       0       0       0       0       0       0       0       0       0       0       
      +0       0
  4631 ;;      Temps:          0       4       0       0       0       0       0       0       0       0       0       0       
      +0       0
  4632 ;;      Totals:         0      16       0       0       0       0       0       0       0       0       0       0       
      +0       0
  4633 ;;Total ram usage:       16 bytes
  4634 ;; Hardware stack levels used:    1
  4635 ;; Hardware stack levels required when called:    4
  4636 ;; This function calls:
  4637 ;;		___ftpack
  4638 ;; This function is called by:
  4639 ;;		_main
  4640 ;; This function uses a non-reentrant model
  4641 ;;
  4642                           
  4643                           
  4644                           ;psect for function ___ftdiv
  4645  150C                     ___ftdiv:	
  4646                           
  4647                           ;incstack = 0
  4648                           ; Regs used in ___ftdiv: [wreg+status,2+status,0+pclath+cstack]
  4649  150C  0020               	movlb	0	; select bank0
  4650  150D  0834               	movf	___ftdiv@f1,w
  4651  150E  00B7               	movwf	??___ftdiv
  4652  150F  0835               	movf	___ftdiv@f1+1,w
  4653  1510  00B8               	movwf	??___ftdiv+1
  4654  1511  0836               	movf	___ftdiv@f1+2,w
  4655  1512  00B9               	movwf	??___ftdiv+2
  4656  1513  1003               	clrc
  4657  1514  0D38               	rlf	??___ftdiv+1,w
  4658  1515  0D39               	rlf	??___ftdiv+2,w
  4659  1516  00BA               	movwf	??___ftdiv+3
  4660  1517  083A               	movf	??___ftdiv+3,w
  4661  1518  00BF               	movwf	___ftdiv@exp
  4662  1519  083F               	movf	___ftdiv@exp,w
  4663  151A  1D03               	btfss	3,2
  4664  151B  2D23               	goto	l6006
  4665  151C  3000               	movlw	0
  4666  151D  00B1               	movwf	?___ftdiv
  4667  151E  3000               	movlw	0
  4668  151F  00B2               	movwf	?___ftdiv+1
  4669  1520  3000               	movlw	0
  4670  1521  00B3               	movwf	?___ftdiv+2
  4671  1522  0008               	return
  4672  1523                     l6006:	
  4673  1523  0831               	movf	___ftdiv@f2,w
  4674  1524  00B7               	movwf	??___ftdiv
  4675  1525  0832               	movf	___ftdiv@f2+1,w
  4676  1526  00B8               	movwf	??___ftdiv+1
  4677  1527  0833               	movf	___ftdiv@f2+2,w
  4678  1528  00B9               	movwf	??___ftdiv+2
  4679  1529  1003               	clrc
  4680  152A  0D38               	rlf	??___ftdiv+1,w
  4681  152B  0D39               	rlf	??___ftdiv+2,w
  4682  152C  00BA               	movwf	??___ftdiv+3
  4683  152D  083A               	movf	??___ftdiv+3,w
  4684  152E  00C0               	movwf	___ftdiv@sign
  4685  152F  0840               	movf	___ftdiv@sign,w
  4686  1530  1D03               	btfss	3,2
  4687  1531  2D39               	goto	l6012
  4688  1532  3000               	movlw	0
  4689  1533  00B1               	movwf	?___ftdiv
  4690  1534  3000               	movlw	0
  4691  1535  00B2               	movwf	?___ftdiv+1
  4692  1536  3000               	movlw	0
  4693  1537  00B3               	movwf	?___ftdiv+2
  4694  1538  0008               	return
  4695  1539                     l6012:	
  4696  1539  3000               	movlw	0
  4697  153A  00BC               	movwf	___ftdiv@f3
  4698  153B  3000               	movlw	0
  4699  153C  00BD               	movwf	___ftdiv@f3+1
  4700  153D  3000               	movlw	0
  4701  153E  00BE               	movwf	___ftdiv@f3+2
  4702  153F  3089               	movlw	137
  4703  1540  0740               	addwf	___ftdiv@sign,w
  4704  1541  00B7               	movwf	??___ftdiv
  4705  1542  0837               	movf	??___ftdiv,w
  4706  1543  02BF               	subwf	___ftdiv@exp,f
  4707  1544  0834               	movf	___ftdiv@f1,w
  4708  1545  00B7               	movwf	??___ftdiv
  4709  1546  0835               	movf	___ftdiv@f1+1,w
  4710  1547  00B8               	movwf	??___ftdiv+1
  4711  1548  0836               	movf	___ftdiv@f1+2,w
  4712  1549  00B9               	movwf	??___ftdiv+2
  4713  154A  3010               	movlw	16
  4714  154B                     u6235:	
  4715  154B  36B9               	lsrf	??___ftdiv+2,f
  4716  154C  0CB8               	rrf	??___ftdiv+1,f
  4717  154D  0CB7               	rrf	??___ftdiv,f
  4718  154E  0B89               	decfsz	9,f
  4719  154F  2D4B               	goto	u6235
  4720  1550  0837               	movf	??___ftdiv,w
  4721  1551  00BA               	movwf	??___ftdiv+3
  4722  1552  083A               	movf	??___ftdiv+3,w
  4723  1553  00C0               	movwf	___ftdiv@sign
  4724  1554  0831               	movf	___ftdiv@f2,w
  4725  1555  00B7               	movwf	??___ftdiv
  4726  1556  0832               	movf	___ftdiv@f2+1,w
  4727  1557  00B8               	movwf	??___ftdiv+1
  4728  1558  0833               	movf	___ftdiv@f2+2,w
  4729  1559  00B9               	movwf	??___ftdiv+2
  4730  155A  3010               	movlw	16
  4731  155B                     u6245:	
  4732  155B  36B9               	lsrf	??___ftdiv+2,f
  4733  155C  0CB8               	rrf	??___ftdiv+1,f
  4734  155D  0CB7               	rrf	??___ftdiv,f
  4735  155E  0B89               	decfsz	9,f
  4736  155F  2D5B               	goto	u6245
  4737  1560  0837               	movf	??___ftdiv,w
  4738  1561  00BA               	movwf	??___ftdiv+3
  4739  1562  083A               	movf	??___ftdiv+3,w
  4740  1563  06C0               	xorwf	___ftdiv@sign,f
  4741  1564  3080               	movlw	128
  4742  1565  00B7               	movwf	??___ftdiv
  4743  1566  0837               	movf	??___ftdiv,w
  4744  1567  05C0               	andwf	___ftdiv@sign,f
  4745  1568  17B5               	bsf	___ftdiv@f1+1,7
  4746  1569  30FF               	movlw	255
  4747  156A  05B4               	andwf	___ftdiv@f1,f
  4748  156B  30FF               	movlw	255
  4749  156C  05B5               	andwf	___ftdiv@f1+1,f
  4750  156D  3000               	movlw	0
  4751  156E  05B6               	andwf	___ftdiv@f1+2,f
  4752  156F  17B2               	bsf	___ftdiv@f2+1,7
  4753  1570  30FF               	movlw	255
  4754  1571  05B1               	andwf	___ftdiv@f2,f
  4755  1572  30FF               	movlw	255
  4756  1573  05B2               	andwf	___ftdiv@f2+1,f
  4757  1574  3000               	movlw	0
  4758  1575  05B3               	andwf	___ftdiv@f2+2,f
  4759  1576  3018               	movlw	24
  4760  1577  00B7               	movwf	??___ftdiv
  4761  1578  0837               	movf	??___ftdiv,w
  4762  1579  00BB               	movwf	___ftdiv@cntr
  4763  157A                     l6026:	
  4764  157A  3001               	movlw	1
  4765  157B                     u6255:	
  4766  157B  35BC               	lslf	___ftdiv@f3,f
  4767  157C  0DBD               	rlf	___ftdiv@f3+1,f
  4768  157D  0DBE               	rlf	___ftdiv@f3+2,f
  4769  157E  0B89               	decfsz	9,f
  4770  157F  2D7B               	goto	u6255
  4771  1580  0833               	movf	___ftdiv@f2+2,w
  4772  1581  0236               	subwf	___ftdiv@f1+2,w
  4773  1582  1D03               	skipz
  4774  1583  2D8A               	goto	u6265
  4775  1584  0832               	movf	___ftdiv@f2+1,w
  4776  1585  0235               	subwf	___ftdiv@f1+1,w
  4777  1586  1D03               	skipz
  4778  1587  2D8A               	goto	u6265
  4779  1588  0831               	movf	___ftdiv@f2,w
  4780  1589  0234               	subwf	___ftdiv@f1,w
  4781  158A                     u6265:	
  4782  158A  1C03               	skipc
  4783  158B  2D93               	goto	l6034
  4784  158C  0831               	movf	___ftdiv@f2,w
  4785  158D  02B4               	subwf	___ftdiv@f1,f
  4786  158E  0832               	movf	___ftdiv@f2+1,w
  4787  158F  3BB5               	subwfb	___ftdiv@f1+1,f
  4788  1590  0833               	movf	___ftdiv@f2+2,w
  4789  1591  3BB6               	subwfb	___ftdiv@f1+2,f
  4790  1592  143C               	bsf	___ftdiv@f3,0
  4791  1593                     l6034:	
  4792  1593  3001               	movlw	1
  4793  1594                     u6275:	
  4794  1594  35B4               	lslf	___ftdiv@f1,f
  4795  1595  0DB5               	rlf	___ftdiv@f1+1,f
  4796  1596  0DB6               	rlf	___ftdiv@f1+2,f
  4797  1597  0B89               	decfsz	9,f
  4798  1598  2D94               	goto	u6275
  4799  1599  3001               	movlw	1
  4800  159A  02BB               	subwf	___ftdiv@cntr,f
  4801  159B  1D03               	btfss	3,2
  4802  159C  2D7A               	goto	l6026
  4803  159D  083C               	movf	___ftdiv@f3,w
  4804  159E  00A9               	movwf	___ftpack@arg
  4805  159F  083D               	movf	___ftdiv@f3+1,w
  4806  15A0  00AA               	movwf	___ftpack@arg+1
  4807  15A1  083E               	movf	___ftdiv@f3+2,w
  4808  15A2  00AB               	movwf	___ftpack@arg+2
  4809  15A3  083F               	movf	___ftdiv@exp,w
  4810  15A4  00B7               	movwf	??___ftdiv
  4811  15A5  0837               	movf	??___ftdiv,w
  4812  15A6  00AC               	movwf	___ftpack@exp
  4813  15A7  0840               	movf	___ftdiv@sign,w
  4814  15A8  00B8               	movwf	??___ftdiv+1
  4815  15A9  0838               	movf	??___ftdiv+1,w
  4816  15AA  00AD               	movwf	___ftpack@sign
  4817  15AB  3192  22A0         	fcall	___ftpack
  4818  15AD  0020               	movlb	0	; select bank0
  4819  15AE  0829               	movf	?___ftpack,w
  4820  15AF  00B1               	movwf	?___ftdiv
  4821  15B0  082A               	movf	?___ftpack+1,w
  4822  15B1  00B2               	movwf	?___ftdiv+1
  4823  15B2  082B               	movf	?___ftpack+2,w
  4824  15B3  00B3               	movwf	?___ftdiv+2
  4825  15B4  0008               	return
  4826  15B5                     __end_of___ftdiv:	
  4827                           
  4828                           	psect	text4
  4829  09DE                     __ptext4:	
  4830 ;; *************** function _SetTime *****************
  4831 ;; Defined at:
  4832 ;;		line 236 in file "user.c"
  4833 ;; Parameters:    Size  Location     Type
  4834 ;;		None
  4835 ;; Auto vars:     Size  Location     Type
  4836 ;;  sw1_count       1   18[BANK2 ] unsigned char 
  4837 ;;  confirm_coun    1   17[BANK2 ] unsigned char 
  4838 ;;  min_1           1   16[BANK2 ] unsigned char 
  4839 ;;  hour_1          1   15[BANK2 ] unsigned char 
  4840 ;;  day_1           1   14[BANK2 ] unsigned char 
  4841 ;;  month_1         1   13[BANK2 ] unsigned char 
  4842 ;;  year_1          1   12[BANK2 ] unsigned char 
  4843 ;;  min_2           1   11[BANK2 ] unsigned char 
  4844 ;;  hour_2          1   10[BANK2 ] unsigned char 
  4845 ;;  day_2           1    9[BANK2 ] unsigned char 
  4846 ;;  month_2         1    8[BANK2 ] unsigned char 
  4847 ;;  year_2          1    7[BANK2 ] unsigned char 
  4848 ;;  set_time_dat    1    6[BANK2 ] unsigned char 
  4849 ;;  pre_confirm_    1    5[BANK2 ] unsigned char 
  4850 ;;  tMin            1    4[BANK2 ] unsigned char 
  4851 ;;  tHour           1    3[BANK2 ] unsigned char 
  4852 ;;  tYear           1    2[BANK2 ] unsigned char 
  4853 ;;  tDay            1    1[BANK2 ] unsigned char 
  4854 ;;  tMonth          1    0[BANK2 ] unsigned char 
  4855 ;; Return value:  Size  Location     Type
  4856 ;;                  1    wreg      void 
  4857 ;; Registers used:
  4858 ;;		wreg, fsr0l, fsr0h, fsr1l, fsr1h, status,2, status,0, pclath, cstack
  4859 ;; Tracked objects:
  4860 ;;		On entry : 0/0
  4861 ;;		On exit  : 0/0
  4862 ;;		Unchanged: 0/0
  4863 ;; Data sizes:     COMMON   BANK0   BANK1   BANK2   BANK3   BANK4   BANK5   BANK6   BANK7   BANK8   BANK9  BANK10  BANK1
      +1  BANK12
  4864 ;;      Params:         0       0       0       0       0       0       0       0       0       0       0       0       
      +0       0
  4865 ;;      Locals:         0       0       0      19       0       0       0       0       0       0       0       0       
      +0       0
  4866 ;;      Temps:          0       3       0       0       0       0       0       0       0       0       0       0       
      +0       0
  4867 ;;      Totals:         0       3       0      19       0       0       0       0       0       0       0       0       
      +0       0
  4868 ;;Total ram usage:       22 bytes
  4869 ;; Hardware stack levels used:    1
  4870 ;; Hardware stack levels required when called:    6
  4871 ;; This function calls:
  4872 ;;		_LCDClear
  4873 ;;		_LCDInit
  4874 ;;		_SW1_pressed
  4875 ;;		_SW3_pressed
  4876 ;;		___bmul
  4877 ;;		_gotoXY
  4878 ;;		_printf
  4879 ;; This function is called by:
  4880 ;;		_main
  4881 ;; This function uses a non-reentrant model
  4882 ;;
  4883                           
  4884                           
  4885                           ;psect for function _SetTime
  4886  09DE                     _SetTime:	
  4887                           
  4888                           ;user.c: 238: unsigned char confirm_count = 0,pre_confirm_count=0;
  4889                           
  4890                           ;incstack = 0
  4891                           ; Regs used in _SetTime: [wreg-fsr1h+status,2+status,0+pclath+cstack]
  4892  09DE  0022               	movlb	2	; select bank2
  4893  09DF  01B1               	clrf	SetTime@confirm_count^(0+256)
  4894  09E0  01A5               	clrf	SetTime@pre_confirm_count^(0+256)
  4895                           
  4896                           ;user.c: 239: unsigned char sw1_count = 0;
  4897  09E1  01B2               	clrf	SetTime@sw1_count^(0+256)
  4898                           
  4899                           ;user.c: 240: unsigned char set_time_date_loop=1,tMonth=0,tDay=0, tYear=0, tHour=0, tMin
      +                          =0;
  4900  09E2  01A6               	clrf	SetTime@set_time_date_loop^(0+256)
  4901  09E3  0AA6               	incf	SetTime@set_time_date_loop^(0+256),f
  4902  09E4  01A0               	clrf	SetTime@tMonth^(0+256)
  4903  09E5  01A1               	clrf	SetTime@tDay^(0+256)
  4904  09E6  01A2               	clrf	SetTime@tYear^(0+256)
  4905  09E7  01A3               	clrf	SetTime@tHour^(0+256)
  4906  09E8  01A4               	clrf	SetTime@tMin^(0+256)
  4907                           
  4908                           ;user.c: 241: unsigned char year_1=0,year_2=0,month_1=0, month_2=0,day_1=0,day_2=0,hour_
      +                          1=0, hour_2=0,min_1=0, min_2=0;
  4909  09E9  01AC               	clrf	SetTime@year_1^(0+256)
  4910  09EA  01A7               	clrf	SetTime@year_2^(0+256)
  4911  09EB  01AD               	clrf	SetTime@month_1^(0+256)
  4912  09EC  01A8               	clrf	SetTime@month_2^(0+256)
  4913  09ED  01AE               	clrf	SetTime@day_1^(0+256)
  4914  09EE  01A9               	clrf	SetTime@day_2^(0+256)
  4915  09EF  01AF               	clrf	SetTime@hour_1^(0+256)
  4916  09F0  01AA               	clrf	SetTime@hour_2^(0+256)
  4917  09F1  01B0               	clrf	SetTime@min_1^(0+256)
  4918  09F2  01AB               	clrf	SetTime@min_2^(0+256)
  4919                           
  4920                           ;user.c: 243: INTCONbits.INTF = 0;
  4921  09F3  108B               	bcf	11,1	;volatile
  4922                           
  4923                           ;user.c: 244: INTCONbits.INTE = 0;
  4924  09F4  120B               	bcf	11,4	;volatile
  4925                           
  4926                           ;user.c: 245: INTCONbits.GIE = 0;
  4927  09F5  138B               	bcf	11,7	;volatile
  4928                           
  4929                           ;user.c: 246: INTCONbits.PEIE = 0;
  4930  09F6  130B               	bcf	11,6	;volatile
  4931                           
  4932                           ;user.c: 247: PIE1bits.ADIE=0;
  4933  09F7  0021               	movlb	1	; select bank1
  4934  09F8  1311               	bcf	17,6	;volatile
  4935                           
  4936                           ;user.c: 248: INTCONbits.IOCIF= 0;
  4937  09F9  100B               	bcf	11,0	;volatile
  4938                           
  4939                           ;user.c: 249: INTCONbits.IOCIE= 0;
  4940  09FA  118B               	bcf	11,3	;volatile
  4941                           
  4942                           ;user.c: 250: PIE1bits.TMR1IE = 0;
  4943  09FB  1011               	bcf	17,0	;volatile
  4944                           
  4945                           ;user.c: 252: TRISBbits.TRISB3 = 1;
  4946  09FC  158D               	bsf	13,3	;volatile
  4947                           
  4948                           ;user.c: 253: TRISBbits.TRISB4 = 1;
  4949  09FD  160D               	bsf	13,4	;volatile
  4950                           
  4951                           ;user.c: 254: ANSELBbits.ANSB3 = 0;
  4952  09FE  0023               	movlb	3	; select bank3
  4953  09FF  118D               	bcf	13,3	;volatile
  4954                           
  4955                           ;user.c: 255: ANSELBbits.ANSB4 = 0;
  4956  0A00  120D               	bcf	13,4	;volatile
  4957                           
  4958                           ;user.c: 256: LCDInit();
  4959  0A01  3191  214A  3189   	fcall	_LCDInit
  4960                           
  4961                           ;user.c: 257: LCDClear();
  4962  0A04  319F  274E  3189   	fcall	_LCDClear
  4963                           
  4964                           ;user.c: 258: gotoXY(0,0);
  4965  0A07  0020               	movlb	0	; select bank0
  4966  0A08  01B4               	clrf	gotoXY@y
  4967  0A09  3000               	movlw	0
  4968  0A0A  319E  2630  3189   	fcall	_gotoXY
  4969                           
  4970                           ;user.c: 260: gotoXY(0,1);
  4971  0A0D  0020               	movlb	0	; select bank0
  4972  0A0E  01B4               	clrf	gotoXY@y
  4973  0A0F  0AB4               	incf	gotoXY@y,f
  4974  0A10  3000               	movlw	0
  4975  0A11  319E  2630  3189   	fcall	_gotoXY
  4976                           
  4977                           ;user.c: 262: __nop();
  4978  0A14  0000               	nop
  4979  0A15                     l5784:	
  4980                           ;user.c: 264: while(set_time_date_loop)
  4981                           
  4982  0A15  0022               	movlb	2	; select bank2
  4983  0A16  0826               	movf	SetTime@set_time_date_loop^(0+256),w
  4984  0A17  1903               	btfsc	3,2
  4985  0A18  2C2C               	goto	l148
  4986                           
  4987                           ;user.c: 265: {
  4988                           ;user.c: 267: if (SW1_pressed())
  4989  0A19  319E  260A  3189   	fcall	_SW1_pressed
  4990  0A1C  3A00               	xorlw	0
  4991  0A1D  1903               	skipnz
  4992  0A1E  2AA3               	goto	l5668
  4993                           
  4994                           ;user.c: 268: {
  4995                           ;user.c: 269: sw1_count++;
  4996  0A1F  3001               	movlw	1
  4997  0A20  0020               	movlb	0	; select bank0
  4998  0A21  00D0               	movwf	??_SetTime
  4999  0A22  0850               	movf	??_SetTime,w
  5000  0A23  0022               	movlb	2	; select bank2
  5001  0A24  07B2               	addwf	SetTime@sw1_count^(0+256),f
  5002                           
  5003                           ;user.c: 270: LCDClear();
  5004  0A25  319F  274E  3189   	fcall	_LCDClear
  5005                           
  5006                           ;user.c: 271: gotoXY(0,0);
  5007  0A28  0020               	movlb	0	; select bank0
  5008  0A29  01B4               	clrf	gotoXY@y
  5009  0A2A  3000               	movlw	0
  5010  0A2B  319E  2630  3189   	fcall	_gotoXY
  5011                           
  5012                           ;user.c: 272: switch (confirm_count)
  5013  0A2E  2A89               	goto	l5662
  5014  0A2F                     l5650:	
  5015                           ;user.c: 277: case 1:
  5016                           
  5017                           ;user.c: 276: break;
  5018                           
  5019                           ;user.c: 273: {
  5020                           ;user.c: 274: case 0:
  5021                           
  5022                           
  5023                           ;user.c: 278: tMonth = (sw1_count *10) + month_1;
  5024  0A2F  300A               	movlw	10
  5025  0A30  0020               	movlb	0	; select bank0
  5026  0A31  00D0               	movwf	??_SetTime
  5027  0A32  0850               	movf	??_SetTime,w
  5028  0A33  00A9               	movwf	___bmul@multiplicand
  5029  0A34  0022               	movlb	2	; select bank2
  5030  0A35  0832               	movf	SetTime@sw1_count^(0+256),w
  5031  0A36  319D  25F8  3189   	fcall	___bmul
  5032  0A39  0022               	movlb	2	; select bank2
  5033  0A3A  072D               	addwf	SetTime@month_1^(0+256),w
  5034  0A3B  0020               	movlb	0	; select bank0
  5035  0A3C  00D1               	movwf	??_SetTime+1
  5036  0A3D  0851               	movf	??_SetTime+1,w
  5037  0A3E  0022               	movlb	2	; select bank2
  5038  0A3F  00A0               	movwf	SetTime@tMonth^(0+256)
  5039                           
  5040                           ;user.c: 283: break;
  5041                           
  5042                           ;user.c: 281: case 2:
  5043                           
  5044                           ;user.c: 280: break;
  5045  0A40  2A94               	goto	l5664
  5046  0A41                     l5652:	
  5047                           ;user.c: 284: case 3:
  5048                           
  5049                           
  5050                           ;user.c: 285: tDay = (sw1_count *10) + day_1;
  5051  0A41  300A               	movlw	10
  5052  0A42  0020               	movlb	0	; select bank0
  5053  0A43  00D0               	movwf	??_SetTime
  5054  0A44  0850               	movf	??_SetTime,w
  5055  0A45  00A9               	movwf	___bmul@multiplicand
  5056  0A46  0022               	movlb	2	; select bank2
  5057  0A47  0832               	movf	SetTime@sw1_count^(0+256),w
  5058  0A48  319D  25F8  3189   	fcall	___bmul
  5059  0A4B  0022               	movlb	2	; select bank2
  5060  0A4C  072E               	addwf	SetTime@day_1^(0+256),w
  5061  0A4D  0020               	movlb	0	; select bank0
  5062  0A4E  00D1               	movwf	??_SetTime+1
  5063  0A4F  0851               	movf	??_SetTime+1,w
  5064  0A50  0022               	movlb	2	; select bank2
  5065  0A51  00A1               	movwf	SetTime@tDay^(0+256)
  5066                           
  5067                           ;user.c: 290: break;
  5068                           
  5069                           ;user.c: 288: case 4:
  5070                           
  5071                           ;user.c: 287: break;
  5072  0A52  2A94               	goto	l5664
  5073  0A53                     l5654:	
  5074                           ;user.c: 291: case 5:
  5075                           
  5076                           
  5077                           ;user.c: 292: tYear = (sw1_count *10) + year_1;
  5078  0A53  300A               	movlw	10
  5079  0A54  0020               	movlb	0	; select bank0
  5080  0A55  00D0               	movwf	??_SetTime
  5081  0A56  0850               	movf	??_SetTime,w
  5082  0A57  00A9               	movwf	___bmul@multiplicand
  5083  0A58  0022               	movlb	2	; select bank2
  5084  0A59  0832               	movf	SetTime@sw1_count^(0+256),w
  5085  0A5A  319D  25F8  3189   	fcall	___bmul
  5086  0A5D  0022               	movlb	2	; select bank2
  5087  0A5E  072C               	addwf	SetTime@year_1^(0+256),w
  5088  0A5F  0020               	movlb	0	; select bank0
  5089  0A60  00D1               	movwf	??_SetTime+1
  5090  0A61  0851               	movf	??_SetTime+1,w
  5091  0A62  0022               	movlb	2	; select bank2
  5092  0A63  00A2               	movwf	SetTime@tYear^(0+256)
  5093                           
  5094                           ;user.c: 297: break;
  5095                           
  5096                           ;user.c: 295: case 6:
  5097                           
  5098                           ;user.c: 294: break;
  5099  0A64  2A94               	goto	l5664
  5100  0A65                     l5656:	
  5101                           ;user.c: 298: case 7:
  5102                           
  5103                           
  5104                           ;user.c: 299: tHour= (sw1_count *10) + hour_1;
  5105  0A65  300A               	movlw	10
  5106  0A66  0020               	movlb	0	; select bank0
  5107  0A67  00D0               	movwf	??_SetTime
  5108  0A68  0850               	movf	??_SetTime,w
  5109  0A69  00A9               	movwf	___bmul@multiplicand
  5110  0A6A  0022               	movlb	2	; select bank2
  5111  0A6B  0832               	movf	SetTime@sw1_count^(0+256),w
  5112  0A6C  319D  25F8  3189   	fcall	___bmul
  5113  0A6F  0022               	movlb	2	; select bank2
  5114  0A70  072F               	addwf	SetTime@hour_1^(0+256),w
  5115  0A71  0020               	movlb	0	; select bank0
  5116  0A72  00D1               	movwf	??_SetTime+1
  5117  0A73  0851               	movf	??_SetTime+1,w
  5118  0A74  0022               	movlb	2	; select bank2
  5119  0A75  00A3               	movwf	SetTime@tHour^(0+256)
  5120                           
  5121                           ;user.c: 304: break;
  5122                           
  5123                           ;user.c: 302: case 8:
  5124                           
  5125                           ;user.c: 301: break;
  5126  0A76  2A94               	goto	l5664
  5127  0A77                     l5658:	
  5128                           ;user.c: 305: case 9:
  5129                           
  5130                           
  5131                           ;user.c: 306: tMin = (sw1_count *10) + min_1;
  5132  0A77  300A               	movlw	10
  5133  0A78  0020               	movlb	0	; select bank0
  5134  0A79  00D0               	movwf	??_SetTime
  5135  0A7A  0850               	movf	??_SetTime,w
  5136  0A7B  00A9               	movwf	___bmul@multiplicand
  5137  0A7C  0022               	movlb	2	; select bank2
  5138  0A7D  0832               	movf	SetTime@sw1_count^(0+256),w
  5139  0A7E  319D  25F8  3189   	fcall	___bmul
  5140  0A81  0022               	movlb	2	; select bank2
  5141  0A82  0730               	addwf	SetTime@min_1^(0+256),w
  5142  0A83  0020               	movlb	0	; select bank0
  5143  0A84  00D1               	movwf	??_SetTime+1
  5144  0A85  0851               	movf	??_SetTime+1,w
  5145  0A86  0022               	movlb	2	; select bank2
  5146  0A87  00A4               	movwf	SetTime@tMin^(0+256)
  5147                           
  5148                           ;user.c: 313: }
  5149                           
  5150                           ;user.c: 312: break;
  5151                           
  5152                           ;user.c: 310: default:
  5153                           
  5154                           ;user.c: 309: break;
  5155  0A88  2A94               	goto	l5664
  5156  0A89                     l5662:	
  5157  0A89  0022               	movlb	2	; select bank2
  5158  0A8A  0831               	movf	SetTime@confirm_count^(0+256),w
  5159                           
  5160                           ; Switch size 1, requested type "space"
  5161                           ; Number of cases is 10, Range of values is 0 to 9
  5162                           ; switch strategies available:
  5163                           ; Name         Instructions Cycles
  5164                           ; direct_byte           26     6 (fixed)
  5165                           ; simple_byte           31    16 (average)
  5166                           ; jumptable            260     6 (fixed)
  5167                           ;	Chosen strategy is direct_byte
  5168  0A8B  0084               	movwf	4
  5169  0A8C  300A               	movlw	10
  5170  0A8D  0204               	subwf	4,w
  5171  0A8E  1803               	skipnc
  5172  0A8F  2A94               	goto	l5664
  5173  0A90  3198               	movlp	high S6328
  5174  0A91  3504               	lslf	4,w
  5175  0A92  3E00               	addlw	low S6328
  5176  0A93  0082               	movwf	2
  5177  0A94                     l5664:	
  5178                           
  5179                           ;user.c: 314: _delay((unsigned long)((100)*(8000000/4000.0)));
  5180  0A94  3002               	movlw	2
  5181  0A95  0020               	movlb	0	; select bank0
  5182  0A96  00D2               	movwf	??_SetTime+2
  5183  0A97  3004               	movlw	4
  5184  0A98  00D1               	movwf	??_SetTime+1
  5185  0A99  30BA               	movlw	186
  5186  0A9A  00D0               	movwf	??_SetTime
  5187  0A9B                     u6557:	
  5188  0A9B  0BD0               	decfsz	??_SetTime,f
  5189  0A9C  2A9B               	goto	u6557
  5190  0A9D  0BD1               	decfsz	??_SetTime+1,f
  5191  0A9E  2A9B               	goto	u6557
  5192  0A9F  0BD2               	decfsz	??_SetTime+2,f
  5193  0AA0  2A9B               	goto	u6557
  5194  0AA1  0000               	nop
  5195                           
  5196                           ;user.c: 315: __nop();
  5197  0AA2  0000               	nop
  5198  0AA3                     l5668:	
  5199                           
  5200                           ;user.c: 317: }
  5201                           ;user.c: 318: if (SW3_pressed())
  5202  0AA3  319E  261D  3189   	fcall	_SW3_pressed
  5203  0AA6  3A00               	xorlw	0
  5204  0AA7  1903               	skipnz
  5205  0AA8  2ABE               	goto	l5676
  5206                           
  5207                           ;user.c: 319: {
  5208                           ;user.c: 320: confirm_count++;
  5209  0AA9  3001               	movlw	1
  5210  0AAA  0020               	movlb	0	; select bank0
  5211  0AAB  00D0               	movwf	??_SetTime
  5212  0AAC  0850               	movf	??_SetTime,w
  5213  0AAD  0022               	movlb	2	; select bank2
  5214  0AAE  07B1               	addwf	SetTime@confirm_count^(0+256),f
  5215                           
  5216                           ;user.c: 321: _delay((unsigned long)((100)*(8000000/4000.0)));
  5217  0AAF  3002               	movlw	2
  5218  0AB0  0020               	movlb	0	; select bank0
  5219  0AB1  00D2               	movwf	??_SetTime+2
  5220  0AB2  3004               	movlw	4
  5221  0AB3  00D1               	movwf	??_SetTime+1
  5222  0AB4  30BA               	movlw	186
  5223  0AB5  00D0               	movwf	??_SetTime
  5224  0AB6                     u6567:	
  5225  0AB6  0BD0               	decfsz	??_SetTime,f
  5226  0AB7  2AB6               	goto	u6567
  5227  0AB8  0BD1               	decfsz	??_SetTime+1,f
  5228  0AB9  2AB6               	goto	u6567
  5229  0ABA  0BD2               	decfsz	??_SetTime+2,f
  5230  0ABB  2AB6               	goto	u6567
  5231  0ABC  0000               	nop
  5232                           
  5233                           ;user.c: 322: __nop();
  5234  0ABD  0000               	nop
  5235  0ABE                     l5676:	
  5236                           
  5237                           ;user.c: 324: }
  5238                           ;user.c: 325: if (pre_confirm_count != confirm_count)
  5239  0ABE  0022               	movlb	2	; select bank2
  5240  0ABF  0825               	movf	SetTime@pre_confirm_count^(0+256),w
  5241  0AC0  0631               	xorwf	SetTime@confirm_count^(0+256),w
  5242  0AC1  1903               	skipnz
  5243  0AC2  2C17               	goto	l5774
  5244                           
  5245                           ;user.c: 326: {
  5246                           ;user.c: 327: LCDClear();
  5247  0AC3  319F  274E  3189   	fcall	_LCDClear
  5248                           
  5249                           ;user.c: 328: gotoXY(0,0);
  5250  0AC6  0020               	movlb	0	; select bank0
  5251  0AC7  01B4               	clrf	gotoXY@y
  5252  0AC8  3000               	movlw	0
  5253  0AC9  319E  2630  3189   	fcall	_gotoXY
  5254                           
  5255                           ;user.c: 329: switch (confirm_count)
  5256  0ACC  2B80               	goto	l5736
  5257  0ACD                     l5680:	
  5258                           ;user.c: 330: {
  5259                           ;user.c: 331: case 1:
  5260                           
  5261                           
  5262                           ;user.c: 332: month_1 = sw1_count;
  5263  0ACD  0022               	movlb	2	; select bank2
  5264  0ACE  0832               	movf	SetTime@sw1_count^(0+256),w
  5265  0ACF  0020               	movlb	0	; select bank0
  5266  0AD0  00D0               	movwf	??_SetTime
  5267  0AD1  0850               	movf	??_SetTime,w
  5268  0AD2  0022               	movlb	2	; select bank2
  5269  0AD3  00AD               	movwf	SetTime@month_1^(0+256)
  5270  0AD4  2B5C               	goto	l5724
  5271  0AD5                     l5684:	
  5272                           ;user.c: 335: case 2:
  5273                           
  5274                           ;user.c: 334: break;
  5275                           
  5276                           ;user.c: 333: sw1_count = 0;
  5277                           
  5278                           
  5279                           ;user.c: 336: month_2 = sw1_count;
  5280  0AD5  0832               	movf	SetTime@sw1_count^(0+256),w
  5281  0AD6  0020               	movlb	0	; select bank0
  5282  0AD7  00D0               	movwf	??_SetTime
  5283  0AD8  0850               	movf	??_SetTime,w
  5284  0AD9  0022               	movlb	2	; select bank2
  5285  0ADA  00A8               	movwf	SetTime@month_2^(0+256)
  5286                           
  5287                           ;user.c: 337: Month = (month_2 *10) + month_1;
  5288  0ADB  300A               	movlw	10
  5289  0ADC  0020               	movlb	0	; select bank0
  5290  0ADD  00D0               	movwf	??_SetTime
  5291  0ADE  0850               	movf	??_SetTime,w
  5292  0ADF  00A9               	movwf	___bmul@multiplicand
  5293  0AE0  0022               	movlb	2	; select bank2
  5294  0AE1  0828               	movf	SetTime@month_2^(0+256),w
  5295  0AE2  319D  25F8  3189   	fcall	___bmul
  5296  0AE5  0022               	movlb	2	; select bank2
  5297  0AE6  072D               	addwf	SetTime@month_1^(0+256),w
  5298  0AE7  0020               	movlb	0	; select bank0
  5299  0AE8  00D1               	movwf	??_SetTime+1
  5300  0AE9  0851               	movf	??_SetTime+1,w
  5301  0AEA  00E1               	movwf	_Month
  5302                           
  5303                           ;user.c: 338: printf("..month = %02d", Month);
  5304  0AEB  30F8               	movlw	low (STR_1| (0+32768))
  5305  0AEC  00C6               	movwf	printf@f
  5306  0AED  3085               	movlw	high (STR_1| (0+32768))
  5307  0AEE  00C7               	movwf	printf@f+1
  5308  0AEF  0861               	movf	_Month,w
  5309  0AF0  00D0               	movwf	??_SetTime
  5310  0AF1  01D1               	clrf	??_SetTime+1
  5311  0AF2  0850               	movf	??_SetTime,w
  5312  0AF3  00C8               	movwf	?_printf+2
  5313  0AF4  0851               	movf	??_SetTime+1,w
  5314  0AF5  00C9               	movwf	?_printf+3
  5315  0AF6  319E  265C  3189   	fcall	_printf
  5316  0AF9  2B54               	goto	L5
  5317  0AFA                     l5692:	
  5318                           ;user.c: 341: case 3:
  5319                           
  5320                           ;user.c: 340: break;
  5321                           
  5322                           ;user.c: 339: sw1_count = 0;
  5323                           
  5324                           
  5325                           ;user.c: 342: day_1 = sw1_count;
  5326  0AFA  0832               	movf	SetTime@sw1_count^(0+256),w
  5327  0AFB  0020               	movlb	0	; select bank0
  5328  0AFC  00D0               	movwf	??_SetTime
  5329  0AFD  0850               	movf	??_SetTime,w
  5330  0AFE  0022               	movlb	2	; select bank2
  5331  0AFF  00AE               	movwf	SetTime@day_1^(0+256)
  5332  0B00  2B5C               	goto	l5724
  5333  0B01                     l5696:	
  5334                           ;user.c: 345: case 4:
  5335                           
  5336                           ;user.c: 344: break;
  5337                           
  5338                           ;user.c: 343: sw1_count = 0;
  5339                           
  5340                           
  5341                           ;user.c: 346: day_2 = sw1_count;
  5342  0B01  0832               	movf	SetTime@sw1_count^(0+256),w
  5343  0B02  0020               	movlb	0	; select bank0
  5344  0B03  00D0               	movwf	??_SetTime
  5345  0B04  0850               	movf	??_SetTime,w
  5346  0B05  0022               	movlb	2	; select bank2
  5347  0B06  00A9               	movwf	SetTime@day_2^(0+256)
  5348                           
  5349                           ;user.c: 347: Days = (day_2 *10) + day_1;
  5350  0B07  300A               	movlw	10
  5351  0B08  0020               	movlb	0	; select bank0
  5352  0B09  00D0               	movwf	??_SetTime
  5353  0B0A  0850               	movf	??_SetTime,w
  5354  0B0B  00A9               	movwf	___bmul@multiplicand
  5355  0B0C  0022               	movlb	2	; select bank2
  5356  0B0D  0829               	movf	SetTime@day_2^(0+256),w
  5357  0B0E  319D  25F8  3189   	fcall	___bmul
  5358  0B11  0022               	movlb	2	; select bank2
  5359  0B12  072E               	addwf	SetTime@day_1^(0+256),w
  5360  0B13  0020               	movlb	0	; select bank0
  5361  0B14  00D1               	movwf	??_SetTime+1
  5362  0B15  0851               	movf	??_SetTime+1,w
  5363  0B16  00DE               	movwf	_Days
  5364  0B17  2B54               	goto	L5
  5365  0B18                     l5702:	
  5366                           ;user.c: 351: case 5:
  5367                           
  5368                           ;user.c: 350: break;
  5369                           
  5370                           ;user.c: 349: sw1_count = 0;
  5371                           
  5372                           
  5373                           ;user.c: 352: year_1 = sw1_count;
  5374  0B18  0832               	movf	SetTime@sw1_count^(0+256),w
  5375  0B19  0020               	movlb	0	; select bank0
  5376  0B1A  00D0               	movwf	??_SetTime
  5377  0B1B  0850               	movf	??_SetTime,w
  5378  0B1C  0022               	movlb	2	; select bank2
  5379  0B1D  00AC               	movwf	SetTime@year_1^(0+256)
  5380  0B1E  2B5C               	goto	l5724
  5381  0B1F                     l5706:	
  5382                           ;user.c: 355: case 6:
  5383                           
  5384                           ;user.c: 354: break;
  5385                           
  5386                           ;user.c: 353: sw1_count = 0;
  5387                           
  5388                           
  5389                           ;user.c: 356: year_2 = sw1_count;
  5390  0B1F  0832               	movf	SetTime@sw1_count^(0+256),w
  5391  0B20  0020               	movlb	0	; select bank0
  5392  0B21  00D0               	movwf	??_SetTime
  5393  0B22  0850               	movf	??_SetTime,w
  5394  0B23  0022               	movlb	2	; select bank2
  5395  0B24  00A7               	movwf	SetTime@year_2^(0+256)
  5396                           
  5397                           ;user.c: 357: Year = (year_2 *10) + year_1;
  5398  0B25  300A               	movlw	10
  5399  0B26  0020               	movlb	0	; select bank0
  5400  0B27  00D0               	movwf	??_SetTime
  5401  0B28  0850               	movf	??_SetTime,w
  5402  0B29  00A9               	movwf	___bmul@multiplicand
  5403  0B2A  0022               	movlb	2	; select bank2
  5404  0B2B  0827               	movf	SetTime@year_2^(0+256),w
  5405  0B2C  319D  25F8  3189   	fcall	___bmul
  5406  0B2F  0022               	movlb	2	; select bank2
  5407  0B30  072C               	addwf	SetTime@year_1^(0+256),w
  5408  0B31  0020               	movlb	0	; select bank0
  5409  0B32  00D1               	movwf	??_SetTime+1
  5410  0B33  0851               	movf	??_SetTime+1,w
  5411  0B34  00E2               	movwf	_Year
  5412                           
  5413                           ;user.c: 359: sw1_count = 0;
  5414  0B35  0022               	movlb	2	; select bank2
  5415  0B36  01B2               	clrf	SetTime@sw1_count^(0+256)
  5416  0B37                     l5712:	
  5417                           ;user.c: 360: case 7:
  5418                           
  5419                           
  5420                           ;user.c: 361: hour_1 = sw1_count;
  5421  0B37  0832               	movf	SetTime@sw1_count^(0+256),w
  5422  0B38  0020               	movlb	0	; select bank0
  5423  0B39  00D0               	movwf	??_SetTime
  5424  0B3A  0850               	movf	??_SetTime,w
  5425  0B3B  0022               	movlb	2	; select bank2
  5426  0B3C  00AF               	movwf	SetTime@hour_1^(0+256)
  5427  0B3D  2B5C               	goto	l5724
  5428  0B3E                     l5716:	
  5429                           ;user.c: 364: case 8:
  5430                           
  5431                           ;user.c: 363: break;
  5432                           
  5433                           ;user.c: 362: sw1_count = 0;
  5434                           
  5435                           
  5436                           ;user.c: 365: hour_2 = sw1_count;
  5437  0B3E  0832               	movf	SetTime@sw1_count^(0+256),w
  5438  0B3F  0020               	movlb	0	; select bank0
  5439  0B40  00D0               	movwf	??_SetTime
  5440  0B41  0850               	movf	??_SetTime,w
  5441  0B42  0022               	movlb	2	; select bank2
  5442  0B43  00AA               	movwf	SetTime@hour_2^(0+256)
  5443                           
  5444                           ;user.c: 366: Hours= (hour_2 *10) + hour_1;
  5445  0B44  300A               	movlw	10
  5446  0B45  0020               	movlb	0	; select bank0
  5447  0B46  00D0               	movwf	??_SetTime
  5448  0B47  0850               	movf	??_SetTime,w
  5449  0B48  00A9               	movwf	___bmul@multiplicand
  5450  0B49  0022               	movlb	2	; select bank2
  5451  0B4A  082A               	movf	SetTime@hour_2^(0+256),w
  5452  0B4B  319D  25F8  3189   	fcall	___bmul
  5453  0B4E  0022               	movlb	2	; select bank2
  5454  0B4F  072F               	addwf	SetTime@hour_1^(0+256),w
  5455  0B50  0020               	movlb	0	; select bank0
  5456  0B51  00D1               	movwf	??_SetTime+1
  5457  0B52  0851               	movf	??_SetTime+1,w
  5458  0B53  00DF               	movwf	_Hours
  5459  0B54                     L5:	
  5460                           
  5461                           ;user.c: 368: sw1_count = 0;
  5462  0B54  0022               	movlb	2	; select bank2
  5463  0B55  2B5C               	goto	l5724
  5464  0B56                     l5722:	
  5465                           ;user.c: 370: case 9:
  5466                           
  5467                           ;user.c: 369: break;
  5468                           
  5469                           
  5470                           ;user.c: 371: min_1 = sw1_count;
  5471  0B56  0832               	movf	SetTime@sw1_count^(0+256),w
  5472  0B57  0020               	movlb	0	; select bank0
  5473  0B58  00D0               	movwf	??_SetTime
  5474  0B59  0850               	movf	??_SetTime,w
  5475  0B5A  0022               	movlb	2	; select bank2
  5476  0B5B  00B0               	movwf	SetTime@min_1^(0+256)
  5477  0B5C                     l5724:	
  5478                           
  5479                           ;user.c: 372: sw1_count = 0;
  5480  0B5C  01B2               	clrf	SetTime@sw1_count^(0+256)
  5481                           
  5482                           ;user.c: 373: break;
  5483  0B5D  2B8E               	goto	l5738
  5484  0B5E                     l5726:	
  5485                           ;user.c: 374: case 10:
  5486                           
  5487                           
  5488                           ;user.c: 375: min_2 = sw1_count;
  5489  0B5E  0832               	movf	SetTime@sw1_count^(0+256),w
  5490  0B5F  0020               	movlb	0	; select bank0
  5491  0B60  00D0               	movwf	??_SetTime
  5492  0B61  0850               	movf	??_SetTime,w
  5493  0B62  0022               	movlb	2	; select bank2
  5494  0B63  00AB               	movwf	SetTime@min_2^(0+256)
  5495                           
  5496                           ;user.c: 376: Minutes = (min_2 *10) + min_1;
  5497  0B64  300A               	movlw	10
  5498  0B65  0020               	movlb	0	; select bank0
  5499  0B66  00D0               	movwf	??_SetTime
  5500  0B67  0850               	movf	??_SetTime,w
  5501  0B68  00A9               	movwf	___bmul@multiplicand
  5502  0B69  0022               	movlb	2	; select bank2
  5503  0B6A  082B               	movf	SetTime@min_2^(0+256),w
  5504  0B6B  319D  25F8  3189   	fcall	___bmul
  5505  0B6E  0022               	movlb	2	; select bank2
  5506  0B6F  0730               	addwf	SetTime@min_1^(0+256),w
  5507  0B70  0020               	movlb	0	; select bank0
  5508  0B71  00D1               	movwf	??_SetTime+1
  5509  0B72  0851               	movf	??_SetTime+1,w
  5510  0B73  00E0               	movwf	_Minutes
  5511                           
  5512                           ;user.c: 378: sw1_count = 0;
  5513  0B74  0022               	movlb	2	; select bank2
  5514  0B75  01B2               	clrf	SetTime@sw1_count^(0+256)
  5515                           
  5516                           ;user.c: 379: confirm_count++;
  5517  0B76  3001               	movlw	1
  5518  0B77  0020               	movlb	0	; select bank0
  5519  0B78  00D0               	movwf	??_SetTime
  5520  0B79  0850               	movf	??_SetTime,w
  5521  0B7A  0022               	movlb	2	; select bank2
  5522  0B7B  07B1               	addwf	SetTime@confirm_count^(0+256),f
  5523                           
  5524                           ;user.c: 380: break;
  5525  0B7C  2B8E               	goto	l5738
  5526  0B7D                     l5734:	
  5527                           ;user.c: 381: default:
  5528                           
  5529                           
  5530                           ;user.c: 382: sw1_count = 0;
  5531  0B7D  01B2               	clrf	SetTime@sw1_count^(0+256)
  5532                           
  5533                           ;user.c: 383: confirm_count = 0;
  5534  0B7E  01B1               	clrf	SetTime@confirm_count^(0+256)
  5535                           
  5536                           ;user.c: 385: }
  5537  0B7F  2B8E               	goto	l5738
  5538  0B80                     l5736:	
  5539  0B80  0022               	movlb	2	; select bank2
  5540  0B81  0831               	movf	SetTime@confirm_count^(0+256),w
  5541                           
  5542                           ; Switch size 1, requested type "space"
  5543                           ; Number of cases is 10, Range of values is 1 to 10
  5544                           ; switch strategies available:
  5545                           ; Name         Instructions Cycles
  5546                           ; direct_byte           29     9 (fixed)
  5547                           ; simple_byte           31    16 (average)
  5548                           ; jumptable            263     9 (fixed)
  5549                           ;	Chosen strategy is direct_byte
  5550  0B82  3EFF               	addlw	-1
  5551  0B83  1C03               	skipc
  5552  0B84  2B7D               	goto	l5734
  5553  0B85  0084               	movwf	4
  5554  0B86  300A               	movlw	10
  5555  0B87  0204               	subwf	4,w
  5556  0B88  1803               	skipnc
  5557  0B89  2B7D               	goto	l5734
  5558  0B8A  3198               	movlp	high S6330
  5559  0B8B  3504               	lslf	4,w
  5560  0B8C  3E14               	addlw	low S6330
  5561  0B8D  0082               	movwf	2
  5562  0B8E                     l5738:	
  5563                           
  5564                           ;user.c: 386: pre_confirm_count = confirm_count;
  5565  0B8E  0831               	movf	SetTime@confirm_count^(0+256),w
  5566  0B8F  0020               	movlb	0	; select bank0
  5567  0B90  00D0               	movwf	??_SetTime
  5568  0B91  0850               	movf	??_SetTime,w
  5569  0B92  0022               	movlb	2	; select bank2
  5570  0B93  00A5               	movwf	SetTime@pre_confirm_count^(0+256)
  5571                           
  5572                           ;user.c: 387: if (confirm_count == 11)
  5573  0B94  300B               	movlw	11
  5574  0B95  0631               	xorwf	SetTime@confirm_count^(0+256),w
  5575  0B96  1D03               	btfss	3,2
  5576  0B97  2C14               	goto	l5770
  5577                           
  5578                           ;user.c: 388: {
  5579                           ;user.c: 389: confirm_count = 0;
  5580  0B98  01B1               	clrf	SetTime@confirm_count^(0+256)
  5581                           
  5582                           ;user.c: 390: LCDClear();
  5583  0B99  319F  274E  3189   	fcall	_LCDClear
  5584                           
  5585                           ;user.c: 391: gotoXY(0,0);
  5586  0B9C  0020               	movlb	0	; select bank0
  5587  0B9D  01B4               	clrf	gotoXY@y
  5588  0B9E  3000               	movlw	0
  5589  0B9F  319E  2630  3189   	fcall	_gotoXY
  5590                           
  5591                           ;user.c: 393: gotoXY(0,1);
  5592  0BA2  0020               	movlb	0	; select bank0
  5593  0BA3  01B4               	clrf	gotoXY@y
  5594  0BA4  0AB4               	incf	gotoXY@y,f
  5595  0BA5  3000               	movlw	0
  5596  0BA6  319E  2630  3189   	fcall	_gotoXY
  5597                           
  5598                           ;user.c: 395: set_time_date_loop = 0;
  5599  0BA9  0022               	movlb	2	; select bank2
  5600  0BAA  01A6               	clrf	SetTime@set_time_date_loop^(0+256)
  5601                           
  5602                           ;user.c: 396: _delay((unsigned long)((200)*(8000000/4000.0)));
  5603  0BAB  3003               	movlw	3
  5604  0BAC  0020               	movlb	0	; select bank0
  5605  0BAD  00D2               	movwf	??_SetTime+2
  5606  0BAE  3008               	movlw	8
  5607  0BAF  00D1               	movwf	??_SetTime+1
  5608  0BB0  3078               	movlw	120
  5609  0BB1  00D0               	movwf	??_SetTime
  5610  0BB2                     u6577:	
  5611  0BB2  0BD0               	decfsz	??_SetTime,f
  5612  0BB3  2BB2               	goto	u6577
  5613  0BB4  0BD1               	decfsz	??_SetTime+1,f
  5614  0BB5  2BB2               	goto	u6577
  5615  0BB6  0BD2               	decfsz	??_SetTime+2,f
  5616  0BB7  2BB2               	goto	u6577
  5617                           
  5618                           ;user.c: 397: _delay((unsigned long)((200)*(8000000/4000.0)));
  5619  0BB8  3003               	movlw	3
  5620  0BB9  0020               	movlb	0	; select bank0
  5621  0BBA  00D2               	movwf	??_SetTime+2
  5622  0BBB  3008               	movlw	8
  5623  0BBC  00D1               	movwf	??_SetTime+1
  5624  0BBD  3078               	movlw	120
  5625  0BBE  00D0               	movwf	??_SetTime
  5626  0BBF                     u6587:	
  5627  0BBF  0BD0               	decfsz	??_SetTime,f
  5628  0BC0  2BBF               	goto	u6587
  5629  0BC1  0BD1               	decfsz	??_SetTime+1,f
  5630  0BC2  2BBF               	goto	u6587
  5631  0BC3  0BD2               	decfsz	??_SetTime+2,f
  5632  0BC4  2BBF               	goto	u6587
  5633                           
  5634                           ;user.c: 398: _delay((unsigned long)((200)*(8000000/4000.0)));
  5635  0BC5  3003               	movlw	3
  5636  0BC6  0020               	movlb	0	; select bank0
  5637  0BC7  00D2               	movwf	??_SetTime+2
  5638  0BC8  3008               	movlw	8
  5639  0BC9  00D1               	movwf	??_SetTime+1
  5640  0BCA  3078               	movlw	120
  5641  0BCB  00D0               	movwf	??_SetTime
  5642  0BCC                     u6597:	
  5643  0BCC  0BD0               	decfsz	??_SetTime,f
  5644  0BCD  2BCC               	goto	u6597
  5645  0BCE  0BD1               	decfsz	??_SetTime+1,f
  5646  0BCF  2BCC               	goto	u6597
  5647  0BD0  0BD2               	decfsz	??_SetTime+2,f
  5648  0BD1  2BCC               	goto	u6597
  5649                           
  5650                           ;user.c: 399: _delay((unsigned long)((200)*(8000000/4000.0)));
  5651  0BD2  3003               	movlw	3
  5652  0BD3  0020               	movlb	0	; select bank0
  5653  0BD4  00D2               	movwf	??_SetTime+2
  5654  0BD5  3008               	movlw	8
  5655  0BD6  00D1               	movwf	??_SetTime+1
  5656  0BD7  3078               	movlw	120
  5657  0BD8  00D0               	movwf	??_SetTime
  5658  0BD9                     u6607:	
  5659  0BD9  0BD0               	decfsz	??_SetTime,f
  5660  0BDA  2BD9               	goto	u6607
  5661  0BDB  0BD1               	decfsz	??_SetTime+1,f
  5662  0BDC  2BD9               	goto	u6607
  5663  0BDD  0BD2               	decfsz	??_SetTime+2,f
  5664  0BDE  2BD9               	goto	u6607
  5665                           
  5666                           ;user.c: 400: _delay((unsigned long)((200)*(8000000/4000.0)));
  5667  0BDF  3003               	movlw	3
  5668  0BE0  0020               	movlb	0	; select bank0
  5669  0BE1  00D2               	movwf	??_SetTime+2
  5670  0BE2  3008               	movlw	8
  5671  0BE3  00D1               	movwf	??_SetTime+1
  5672  0BE4  3078               	movlw	120
  5673  0BE5  00D0               	movwf	??_SetTime
  5674  0BE6                     u6617:	
  5675  0BE6  0BD0               	decfsz	??_SetTime,f
  5676  0BE7  2BE6               	goto	u6617
  5677  0BE8  0BD1               	decfsz	??_SetTime+1,f
  5678  0BE9  2BE6               	goto	u6617
  5679  0BEA  0BD2               	decfsz	??_SetTime+2,f
  5680  0BEB  2BE6               	goto	u6617
  5681                           
  5682                           ;user.c: 401: _delay((unsigned long)((200)*(8000000/4000.0)));
  5683  0BEC  3003               	movlw	3
  5684  0BED  0020               	movlb	0	; select bank0
  5685  0BEE  00D2               	movwf	??_SetTime+2
  5686  0BEF  3008               	movlw	8
  5687  0BF0  00D1               	movwf	??_SetTime+1
  5688  0BF1  3078               	movlw	120
  5689  0BF2  00D0               	movwf	??_SetTime
  5690  0BF3                     u6627:	
  5691  0BF3  0BD0               	decfsz	??_SetTime,f
  5692  0BF4  2BF3               	goto	u6627
  5693  0BF5  0BD1               	decfsz	??_SetTime+1,f
  5694  0BF6  2BF3               	goto	u6627
  5695  0BF7  0BD2               	decfsz	??_SetTime+2,f
  5696  0BF8  2BF3               	goto	u6627
  5697                           
  5698                           ;user.c: 402: _delay((unsigned long)((200)*(8000000/4000.0)));
  5699  0BF9  3003               	movlw	3
  5700  0BFA  0020               	movlb	0	; select bank0
  5701  0BFB  00D2               	movwf	??_SetTime+2
  5702  0BFC  3008               	movlw	8
  5703  0BFD  00D1               	movwf	??_SetTime+1
  5704  0BFE  3078               	movlw	120
  5705  0BFF  00D0               	movwf	??_SetTime
  5706  0C00                     u6637:	
  5707  0C00  0BD0               	decfsz	??_SetTime,f
  5708  0C01  2C00               	goto	u6637
  5709  0C02  0BD1               	decfsz	??_SetTime+1,f
  5710  0C03  2C00               	goto	u6637
  5711  0C04  0BD2               	decfsz	??_SetTime+2,f
  5712  0C05  2C00               	goto	u6637
  5713                           
  5714                           ;user.c: 403: _delay((unsigned long)((200)*(8000000/4000.0)));
  5715  0C06  3003               	movlw	3
  5716  0C07  0020               	movlb	0	; select bank0
  5717  0C08  00D2               	movwf	??_SetTime+2
  5718  0C09  3008               	movlw	8
  5719  0C0A  00D1               	movwf	??_SetTime+1
  5720  0C0B  3078               	movlw	120
  5721  0C0C  00D0               	movwf	??_SetTime
  5722  0C0D                     u6647:	
  5723  0C0D  0BD0               	decfsz	??_SetTime,f
  5724  0C0E  2C0D               	goto	u6647
  5725  0C0F  0BD1               	decfsz	??_SetTime+1,f
  5726  0C10  2C0D               	goto	u6647
  5727  0C11  0BD2               	decfsz	??_SetTime+2,f
  5728  0C12  2C0D               	goto	u6647
  5729                           
  5730                           ;user.c: 405: __nop();
  5731  0C13  0000               	nop
  5732  0C14                     l5770:	
  5733                           
  5734                           ;user.c: 407: }
  5735                           ;user.c: 408: IOCBFbits.IOCBF3 = 0;
  5736  0C14  0027               	movlb	7	; select bank7
  5737  0C15  1196               	bcf	22,3	;volatile
  5738                           
  5739                           ;user.c: 409: IOCBFbits.IOCBF4 = 0;
  5740  0C16  1216               	bcf	22,4	;volatile
  5741  0C17                     l5774:	
  5742                           
  5743                           ;user.c: 410: }
  5744                           ;user.c: 411: gcountIdleTime = 120000;
  5745  0C17  3000               	movlw	0
  5746  0C18  0021               	movlb	1	; select bank1
  5747  0C19  00DA               	movwf	(_gcountIdleTime+3)^(0+128)
  5748  0C1A  3001               	movlw	1
  5749  0C1B  00D9               	movwf	(_gcountIdleTime+2)^(0+128)
  5750  0C1C  30D4               	movlw	212
  5751  0C1D  00D8               	movwf	(_gcountIdleTime+1)^(0+128)
  5752  0C1E  30C0               	movlw	192
  5753  0C1F  00D7               	movwf	_gcountIdleTime^(0+128)
  5754                           
  5755                           ;user.c: 412: gStripIdleTime = 250000;
  5756  0C20  3000               	movlw	0
  5757  0C21  00D6               	movwf	(_gStripIdleTime+3)^(0+128)
  5758  0C22  3003               	movlw	3
  5759  0C23  00D5               	movwf	(_gStripIdleTime+2)^(0+128)
  5760  0C24  30D0               	movlw	208
  5761  0C25  00D4               	movwf	(_gStripIdleTime+1)^(0+128)
  5762  0C26  3090               	movlw	144
  5763  0C27  00D3               	movwf	_gStripIdleTime^(0+128)
  5764                           
  5765                           ;user.c: 413: gStripInserted = 0;
  5766  0C28  01CC               	clrf	_gStripInserted^(0+128)
  5767                           
  5768                           ;user.c: 414: gStripRemoved = 0;
  5769  0C29  01FB               	clrf	_gStripRemoved
  5770                           
  5771                           ;user.c: 415: gBloodNotInsetrted = 0;
  5772  0C2A  01C3               	clrf	_gBloodNotInsetrted^(0+128)
  5773  0C2B  2A15               	goto	l5784
  5774  0C2C                     l148:	
  5775                           ;user.c: 418: }
  5776                           ;user.c: 419: while(!(PORTB & 0x08));
  5777                           
  5778  0C2C  0020               	movlb	0	; select bank0
  5779  0C2D  1D8D               	btfss	13,3	;volatile
  5780  0C2E  2C2C               	goto	l148
  5781  0C2F                     l151:	
  5782                           ;user.c: 420: while(!(PORTB & 0x10));
  5783                           
  5784  0C2F  1E0D               	btfss	13,4	;volatile
  5785  0C30  2C2F               	goto	l151
  5786                           
  5787                           ;user.c: 421: __nop();
  5788  0C31  0000               	nop
  5789                           
  5790                           ;user.c: 424: INTCONbits.INTF = 0;
  5791  0C32  108B               	bcf	11,1	;volatile
  5792                           
  5793                           ;user.c: 425: INTCONbits.INTE = 1;
  5794  0C33  160B               	bsf	11,4	;volatile
  5795                           
  5796                           ;user.c: 426: INTCONbits.GIE = 1;
  5797  0C34  178B               	bsf	11,7	;volatile
  5798                           
  5799                           ;user.c: 427: INTCONbits.PEIE = 1;
  5800  0C35  170B               	bsf	11,6	;volatile
  5801                           
  5802                           ;user.c: 428: PIE1bits.ADIE=1;
  5803  0C36  0021               	movlb	1	; select bank1
  5804  0C37  1711               	bsf	17,6	;volatile
  5805                           
  5806                           ;user.c: 429: INTCONbits.IOCIF= 0;
  5807  0C38  100B               	bcf	11,0	;volatile
  5808                           
  5809                           ;user.c: 430: INTCONbits.IOCIE= 1;
  5810  0C39  158B               	bsf	11,3	;volatile
  5811                           
  5812                           ;user.c: 431: PIE1bits.TMR1IE = 1;
  5813  0C3A  1411               	bsf	17,0	;volatile
  5814  0C3B  0008               	return
  5815  0C3C                     __end_of_SetTime:	
  5816                           
  5817                           	psect	swtext1
  5818  1800                     __pswtext1:	
  5819  1800                     S6328:	
  5820  1800  318A  2A94         	ljmp	l5664
  5821  1802  318A  2A2F         	ljmp	l5650
  5822  1804  318A  2A94         	ljmp	l5664
  5823  1806  318A  2A41         	ljmp	l5652
  5824  1808  318A  2A94         	ljmp	l5664
  5825  180A  318A  2A53         	ljmp	l5654
  5826  180C  318A  2A94         	ljmp	l5664
  5827  180E  318A  2A65         	ljmp	l5656
  5828  1810  318A  2A94         	ljmp	l5664
  5829  1812  318A  2A77         	ljmp	l5658
  5830                           
  5831                           	psect	swtext2
  5832  1814                     __pswtext2:	
  5833  1814                     S6330:	
  5834  1814  318A  2ACD         	ljmp	l5680
  5835  1816  318A  2AD5         	ljmp	l5684
  5836  1818  318A  2AFA         	ljmp	l5692
  5837  181A  318B  2B01         	ljmp	l5696
  5838  181C  318B  2B18         	ljmp	l5702
  5839  181E  318B  2B1F         	ljmp	l5706
  5840  1820  318B  2B37         	ljmp	l5712
  5841  1822  318B  2B3E         	ljmp	l5716
  5842  1824  318B  2B56         	ljmp	l5722
  5843  1826  318B  2B5E         	ljmp	l5726
  5844                           
  5845                           	psect	text5
  5846  1E5C                     __ptext5:	
  5847 ;; *************** function _printf *****************
  5848 ;; Defined at:
  5849 ;;		line 13 in file "C:\Program Files (x86)\Microchip\xc8\v1.37\sources\common\printf.c"
  5850 ;; Parameters:    Size  Location     Type
  5851 ;;  f               2   38[BANK0 ] PTR const unsigned char 
  5852 ;;		 -> STR_1(15), 
  5853 ;; Auto vars:     Size  Location     Type
  5854 ;;  pb              4   44[BANK0 ] struct __prbuf
  5855 ;;  ap              1   43[BANK0 ] PTR void [1]
  5856 ;;		 -> ?_sprintf(2), ?_printf(2), 
  5857 ;; Return value:  Size  Location     Type
  5858 ;;                  2   38[BANK0 ] int 
  5859 ;; Registers used:
  5860 ;;		wreg, fsr0l, fsr0h, fsr1l, fsr1h, status,2, status,0, pclath, cstack
  5861 ;; Tracked objects:
  5862 ;;		On entry : 0/0
  5863 ;;		On exit  : 0/0
  5864 ;;		Unchanged: 0/0
  5865 ;; Data sizes:     COMMON   BANK0   BANK1   BANK2   BANK3   BANK4   BANK5   BANK6   BANK7   BANK8   BANK9  BANK10  BANK1
      +1  BANK12
  5866 ;;      Params:         0       4       0       0       0       0       0       0       0       0       0       0       
      +0       0
  5867 ;;      Locals:         0       5       0       0       0       0       0       0       0       0       0       0       
      +0       0
  5868 ;;      Temps:          0       1       0       0       0       0       0       0       0       0       0       0       
      +0       0
  5869 ;;      Totals:         0      10       0       0       0       0       0       0       0       0       0       0       
      +0       0
  5870 ;;Total ram usage:       10 bytes
  5871 ;; Hardware stack levels used:    1
  5872 ;; Hardware stack levels required when called:    5
  5873 ;; This function calls:
  5874 ;;		__doprnt
  5875 ;; This function is called by:
  5876 ;;		_SetTime
  5877 ;; This function uses a non-reentrant model
  5878 ;;
  5879                           
  5880                           
  5881                           ;psect for function _printf
  5882  1E5C                     _printf:	
  5883                           
  5884                           ;incstack = 0
  5885                           ; Regs used in _printf: [wreg-fsr1h+status,2+status,0+pclath+cstack]
  5886  1E5C  0020               	movlb	0	; select bank0
  5887  1E5D  01CC               	clrf	printf@pb
  5888  1E5E  01CD               	clrf	printf@pb+1
  5889  1E5F  3002               	movlw	low _putch
  5890  1E60  00CE               	movwf	low ((printf@pb| 0+2))
  5891  1E61  3000               	movlw	high _putch
  5892  1E62  00CF               	movwf	(low ((printf@pb| 0+2))+1)
  5893  1E63  3048               	movlw	(low ((?_printf| 0+2)))& (0+255)
  5894  1E64  00CA               	movwf	??_printf
  5895  1E65  084A               	movf	??_printf,w
  5896  1E66  00CB               	movwf	printf@ap
  5897                           
  5898                           ;	Return value of _printf is never used
  5899  1E67  0847               	movf	printf@f+1,w
  5900  1E68  00B8               	movwf	__doprnt@f+1
  5901  1E69  0846               	movf	printf@f,w
  5902  1E6A  00B7               	movwf	__doprnt@f
  5903  1E6B  304B               	movlw	(low (printf@ap| 0))& (0+255)
  5904  1E6C  00CA               	movwf	??_printf
  5905  1E6D  084A               	movf	??_printf,w
  5906  1E6E  00B9               	movwf	__doprnt@ap
  5907  1E6F  304C               	movlw	(low (printf@pb| 0))& (0+255)
  5908  1E70  3195  25B5         	fcall	__doprnt
  5909  1E72  0008               	return
  5910  1E73                     __end_of_printf:	
  5911                           
  5912                           	psect	text6
  5913  1DF8                     __ptext6:	
  5914 ;; *************** function ___bmul *****************
  5915 ;; Defined at:
  5916 ;;		line 4 in file "C:\Program Files (x86)\Microchip\xc8\v1.37\sources\common\Umul8.c"
  5917 ;; Parameters:    Size  Location     Type
  5918 ;;  multiplier      1    wreg     unsigned char 
  5919 ;;  multiplicand    1    9[BANK0 ] unsigned char 
  5920 ;; Auto vars:     Size  Location     Type
  5921 ;;  multiplier      1   12[BANK0 ] unsigned char 
  5922 ;;  product         1   11[BANK0 ] unsigned char 
  5923 ;; Return value:  Size  Location     Type
  5924 ;;                  1    wreg      unsigned char 
  5925 ;; Registers used:
  5926 ;;		wreg, status,2, status,0
  5927 ;; Tracked objects:
  5928 ;;		On entry : 0/0
  5929 ;;		On exit  : 0/0
  5930 ;;		Unchanged: 0/0
  5931 ;; Data sizes:     COMMON   BANK0   BANK1   BANK2   BANK3   BANK4   BANK5   BANK6   BANK7   BANK8   BANK9  BANK10  BANK1
      +1  BANK12
  5932 ;;      Params:         0       1       0       0       0       0       0       0       0       0       0       0       
      +0       0
  5933 ;;      Locals:         0       2       0       0       0       0       0       0       0       0       0       0       
      +0       0
  5934 ;;      Temps:          0       1       0       0       0       0       0       0       0       0       0       0       
      +0       0
  5935 ;;      Totals:         0       4       0       0       0       0       0       0       0       0       0       0       
      +0       0
  5936 ;;Total ram usage:        4 bytes
  5937 ;; Hardware stack levels used:    1
  5938 ;; Hardware stack levels required when called:    3
  5939 ;; This function calls:
  5940 ;;		Nothing
  5941 ;; This function is called by:
  5942 ;;		_SetTime
  5943 ;; This function uses a non-reentrant model
  5944 ;;
  5945                           
  5946                           
  5947                           ;psect for function ___bmul
  5948  1DF8                     ___bmul:	
  5949                           
  5950                           ;incstack = 0
  5951                           ; Regs used in ___bmul: [wreg+status,2+status,0]
  5952                           ;___bmul@multiplier stored from wreg
  5953  1DF8  0020               	movlb	0	; select bank0
  5954  1DF9  00AC               	movwf	___bmul@multiplier
  5955  1DFA  01AB               	clrf	___bmul@product
  5956  1DFB                     l5342:	
  5957  1DFB  1C2C               	btfss	___bmul@multiplier,0
  5958  1DFC  2E01               	goto	l5346
  5959  1DFD  0829               	movf	___bmul@multiplicand,w
  5960  1DFE  00AA               	movwf	??___bmul
  5961  1DFF  082A               	movf	??___bmul,w
  5962  1E00  07AB               	addwf	___bmul@product,f
  5963  1E01                     l5346:	
  5964  1E01  1003               	clrc
  5965  1E02  0DA9               	rlf	___bmul@multiplicand,f
  5966  1E03  1003               	clrc
  5967  1E04  0CAC               	rrf	___bmul@multiplier,f
  5968  1E05  082C               	movf	___bmul@multiplier,w
  5969  1E06  1D03               	btfss	3,2
  5970  1E07  2DFB               	goto	l5342
  5971  1E08  082B               	movf	___bmul@product,w
  5972  1E09  0008               	return
  5973  1E0A                     __end_of___bmul:	
  5974                           
  5975                           	psect	text7
  5976  1E1D                     __ptext7:	
  5977 ;; *************** function _SW3_pressed *****************
  5978 ;; Defined at:
  5979 ;;		line 481 in file "user.c"
  5980 ;; Parameters:    Size  Location     Type
  5981 ;;		None
  5982 ;; Auto vars:     Size  Location     Type
  5983 ;;  SW3_press       1   10[BANK0 ] unsigned char 
  5984 ;; Return value:  Size  Location     Type
  5985 ;;                  1    wreg      unsigned char 
  5986 ;; Registers used:
  5987 ;;		wreg, status,2, status,0
  5988 ;; Tracked objects:
  5989 ;;		On entry : 0/0
  5990 ;;		On exit  : 0/0
  5991 ;;		Unchanged: 0/0
  5992 ;; Data sizes:     COMMON   BANK0   BANK1   BANK2   BANK3   BANK4   BANK5   BANK6   BANK7   BANK8   BANK9  BANK10  BANK1
      +1  BANK12
  5993 ;;      Params:         0       0       0       0       0       0       0       0       0       0       0       0       
      +0       0
  5994 ;;      Locals:         0       1       0       0       0       0       0       0       0       0       0       0       
      +0       0
  5995 ;;      Temps:          0       1       0       0       0       0       0       0       0       0       0       0       
      +0       0
  5996 ;;      Totals:         0       2       0       0       0       0       0       0       0       0       0       0       
      +0       0
  5997 ;;Total ram usage:        2 bytes
  5998 ;; Hardware stack levels used:    1
  5999 ;; Hardware stack levels required when called:    3
  6000 ;; This function calls:
  6001 ;;		Nothing
  6002 ;; This function is called by:
  6003 ;;		_SetTime
  6004 ;; This function uses a non-reentrant model
  6005 ;;
  6006                           
  6007                           
  6008                           ;psect for function _SW3_pressed
  6009  1E1D                     _SW3_pressed:	
  6010                           
  6011                           ;user.c: 483: unsigned char SW3_press = 1;
  6012                           
  6013                           ;incstack = 0
  6014                           ; Regs used in _SW3_pressed: [wreg+status,2+status,0]
  6015  1E1D  0020               	movlb	0	; select bank0
  6016  1E1E  01AA               	clrf	SW3_pressed@SW3_press
  6017  1E1F  0AAA               	incf	SW3_pressed@SW3_press,f
  6018                           
  6019                           ;user.c: 485: SW3_press = PORTB & 0x08;
  6020  1E20  080D               	movf	13,w	;volatile
  6021  1E21  3908               	andlw	8
  6022  1E22  00A9               	movwf	??_SW3_pressed
  6023  1E23  0829               	movf	??_SW3_pressed,w
  6024  1E24  00AA               	movwf	SW3_pressed@SW3_press
  6025                           
  6026                           ;user.c: 486: if (SW3_press)
  6027  1E25  082A               	movf	SW3_pressed@SW3_press,w
  6028  1E26  1903               	btfsc	3,2
  6029  1E27  2E2A               	goto	l168
  6030                           
  6031                           ;user.c: 487: return 0;
  6032  1E28  3000               	movlw	0
  6033  1E29  0008               	return
  6034  1E2A                     l168:	
  6035                           ;user.c: 488: else
  6036                           ;user.c: 489: {
  6037                           ;user.c: 490: while(!(PORTB & 0x08));
  6038                           
  6039  1E2A  1D8D               	btfss	13,3	;volatile
  6040  1E2B  2E2A               	goto	l168
  6041                           
  6042                           ;user.c: 491: IOCBFbits.IOCBF3 = 0;
  6043  1E2C  0027               	movlb	7	; select bank7
  6044  1E2D  1196               	bcf	22,3	;volatile
  6045                           
  6046                           ;user.c: 492: return 1;
  6047  1E2E  3001               	movlw	1
  6048  1E2F  0008               	return
  6049  1E30                     __end_of_SW3_pressed:	
  6050                           
  6051                           	psect	text8
  6052  1E0A                     __ptext8:	
  6053 ;; *************** function _SW1_pressed *****************
  6054 ;; Defined at:
  6055 ;;		line 449 in file "user.c"
  6056 ;; Parameters:    Size  Location     Type
  6057 ;;		None
  6058 ;; Auto vars:     Size  Location     Type
  6059 ;;  SW1_press       1   10[BANK0 ] unsigned char 
  6060 ;; Return value:  Size  Location     Type
  6061 ;;                  1    wreg      unsigned char 
  6062 ;; Registers used:
  6063 ;;		wreg, status,2, status,0
  6064 ;; Tracked objects:
  6065 ;;		On entry : 0/0
  6066 ;;		On exit  : 0/0
  6067 ;;		Unchanged: 0/0
  6068 ;; Data sizes:     COMMON   BANK0   BANK1   BANK2   BANK3   BANK4   BANK5   BANK6   BANK7   BANK8   BANK9  BANK10  BANK1
      +1  BANK12
  6069 ;;      Params:         0       0       0       0       0       0       0       0       0       0       0       0       
      +0       0
  6070 ;;      Locals:         0       1       0       0       0       0       0       0       0       0       0       0       
      +0       0
  6071 ;;      Temps:          0       1       0       0       0       0       0       0       0       0       0       0       
      +0       0
  6072 ;;      Totals:         0       2       0       0       0       0       0       0       0       0       0       0       
      +0       0
  6073 ;;Total ram usage:        2 bytes
  6074 ;; Hardware stack levels used:    1
  6075 ;; Hardware stack levels required when called:    3
  6076 ;; This function calls:
  6077 ;;		Nothing
  6078 ;; This function is called by:
  6079 ;;		_SetTime
  6080 ;; This function uses a non-reentrant model
  6081 ;;
  6082                           
  6083                           
  6084                           ;psect for function _SW1_pressed
  6085  1E0A                     _SW1_pressed:	
  6086                           
  6087                           ;user.c: 451: unsigned char SW1_press = 1;
  6088                           
  6089                           ;incstack = 0
  6090                           ; Regs used in _SW1_pressed: [wreg+status,2+status,0]
  6091  1E0A  0020               	movlb	0	; select bank0
  6092  1E0B  01AA               	clrf	SW1_pressed@SW1_press
  6093  1E0C  0AAA               	incf	SW1_pressed@SW1_press,f
  6094                           
  6095                           ;user.c: 453: SW1_press = PORTB & 0x10;
  6096  1E0D  080D               	movf	13,w	;volatile
  6097  1E0E  3910               	andlw	16
  6098  1E0F  00A9               	movwf	??_SW1_pressed
  6099  1E10  0829               	movf	??_SW1_pressed,w
  6100  1E11  00AA               	movwf	SW1_pressed@SW1_press
  6101                           
  6102                           ;user.c: 454: if (SW1_press)
  6103  1E12  082A               	movf	SW1_pressed@SW1_press,w
  6104  1E13  1903               	btfsc	3,2
  6105  1E14  2E17               	goto	l160
  6106                           
  6107                           ;user.c: 455: return 0;
  6108  1E15  3000               	movlw	0
  6109  1E16  0008               	return
  6110  1E17                     l160:	
  6111                           ;user.c: 456: else
  6112                           ;user.c: 457: {
  6113                           ;user.c: 459: while(!(PORTB & 0x10));
  6114                           
  6115  1E17  1E0D               	btfss	13,4	;volatile
  6116  1E18  2E17               	goto	l160
  6117                           
  6118                           ;user.c: 460: IOCBFbits.IOCBF4 = 0;
  6119  1E19  0027               	movlb	7	; select bank7
  6120  1E1A  1216               	bcf	22,4	;volatile
  6121                           
  6122                           ;user.c: 461: return 1;
  6123  1E1B  3001               	movlw	1
  6124  1E1C  0008               	return
  6125  1E1D                     __end_of_SW1_pressed:	
  6126                           
  6127                           	psect	text9
  6128  0639                     __ptext9:	
  6129 ;; *************** function _SenseTestStrip *****************
  6130 ;; Defined at:
  6131 ;;		line 302 in file "glucose_meter_main.c"
  6132 ;; Parameters:    Size  Location     Type
  6133 ;;		None
  6134 ;; Auto vars:     Size  Location     Type
  6135 ;;  lcdFormatted    1    0[BANK1 ] unsigned char 
  6136 ;;  temp_adc        2    1[BANK1 ] int 
  6137 ;;  index           1    3[BANK1 ] unsigned char 
  6138 ;; Return value:  Size  Location     Type
  6139 ;;                  1    wreg      void 
  6140 ;; Registers used:
  6141 ;;		wreg, fsr0l, fsr0h, fsr1l, fsr1h, status,2, status,0, pclath, cstack
  6142 ;; Tracked objects:
  6143 ;;		On entry : 0/0
  6144 ;;		On exit  : 0/0
  6145 ;;		Unchanged: 0/0
  6146 ;; Data sizes:     COMMON   BANK0   BANK1   BANK2   BANK3   BANK4   BANK5   BANK6   BANK7   BANK8   BANK9  BANK10  BANK1
      +1  BANK12
  6147 ;;      Params:         0       0       0       0       0       0       0       0       0       0       0       0       
      +0       0
  6148 ;;      Locals:         0       0       4       0       0       0       0       0       0       0       0       0       
      +0       0
  6149 ;;      Temps:          0       6       0       0       0       0       0       0       0       0       0       0       
      +0       0
  6150 ;;      Totals:         0       6       4       0       0       0       0       0       0       0       0       0       
      +0       0
  6151 ;;Total ram usage:       10 bytes
  6152 ;; Hardware stack levels used:    1
  6153 ;; Hardware stack levels required when called:    6
  6154 ;; This function calls:
  6155 ;;		_EnterDeepSleep
  6156 ;;		_InitADC
  6157 ;;		_LCDClear
  6158 ;;		_LCDString
  6159 ;;		_gotoXY
  6160 ;;		_sprintf
  6161 ;; This function is called by:
  6162 ;;		_main
  6163 ;; This function uses a non-reentrant model
  6164 ;;
  6165                           
  6166                           
  6167                           ;psect for function _SenseTestStrip
  6168  0639                     _SenseTestStrip:	
  6169                           
  6170                           ;glucose_meter_main.c: 304: unsigned char index=0;
  6171                           
  6172                           ;incstack = 0
  6173                           ; Regs used in _SenseTestStrip: [wreg-fsr1h+status,2+status,0+pclath+cstack]
  6174  0639  0021               	movlb	1	; select bank1
  6175  063A  01E6               	clrf	SenseTestStrip@index^(0+128)
  6176                           
  6177                           ;glucose_meter_main.c: 305: int temp_adc=0;
  6178  063B  01E4               	clrf	SenseTestStrip@temp_adc^(0+128)
  6179  063C  01E5               	clrf	(SenseTestStrip@temp_adc+1)^(0+128)
  6180                           
  6181                           ;glucose_meter_main.c: 307: gSenseTestStrip = PORTB & 0x01;
  6182  063D  0020               	movlb	0	; select bank0
  6183  063E  080D               	movf	13,w	;volatile
  6184  063F  3901               	andlw	1
  6185  0640  00D8               	movwf	??_SenseTestStrip
  6186  0641  0858               	movf	??_SenseTestStrip,w
  6187  0642  00FA               	movwf	_gSenseTestStrip
  6188                           
  6189                           ;glucose_meter_main.c: 309: if((gSenseTestStrip == 0x00 ) & (gStripInserted == 0))
  6190  0643  087A               	movf	_gSenseTestStrip,w
  6191  0644  1D03               	btfss	3,2
  6192  0645  2F57               	goto	l5950
  6193  0646  0021               	movlb	1	; select bank1
  6194  0647  084C               	movf	_gStripInserted^(0+128),w
  6195  0648  1D03               	btfss	3,2
  6196  0649  2F57               	goto	l5950
  6197                           
  6198                           ;glucose_meter_main.c: 310: {
  6199                           ;glucose_meter_main.c: 311: InitADC();
  6200  064A  3187  27F8  3186   	fcall	_InitADC
  6201                           
  6202                           ;glucose_meter_main.c: 312: INTCONbits.PEIE = 1;
  6203  064D  170B               	bsf	11,6	;volatile
  6204                           
  6205                           ;glucose_meter_main.c: 313: PIR1bits.ADIF = 0;
  6206  064E  0020               	movlb	0	; select bank0
  6207  064F  1311               	bcf	17,6	;volatile
  6208                           
  6209                           ;glucose_meter_main.c: 314: PIE1bits.ADIE=0;
  6210  0650  0021               	movlb	1	; select bank1
  6211  0651  1311               	bcf	17,6	;volatile
  6212                           
  6213                           ;glucose_meter_main.c: 315: { ADCON0 = 0x01 | (0 << 2); };
  6214  0652  3001               	movlw	1
  6215  0653  009D               	movwf	29	;volatile
  6216                           
  6217                           ;glucose_meter_main.c: 316: for (index=0; index<8; index++)
  6218  0654  01E6               	clrf	SenseTestStrip@index^(0+128)
  6219  0655  3008               	movlw	8
  6220  0656  0266               	subwf	SenseTestStrip@index^(0+128),w
  6221  0657  1803               	btfsc	3,0
  6222  0658  2E8F               	goto	l5902
  6223  0659                     l5884:	
  6224                           
  6225                           ;glucose_meter_main.c: 317: {
  6226                           ;glucose_meter_main.c: 318: _delay((unsigned long)((200)*(8000000/4000000.0)));
  6227  0659  3085               	movlw	133
  6228  065A  0020               	movlb	0	; select bank0
  6229  065B  00D8               	movwf	??_SenseTestStrip
  6230  065C                     u6657:	
  6231  065C  0BD8               	decfsz	??_SenseTestStrip,f
  6232  065D  2E5C               	goto	u6657
  6233                           
  6234                           ;glucose_meter_main.c: 319: { GO_nDONE = 1; while(GO_nDONE); if(ADRESH > 127){ADRESH = 0
      +                          ;ADRESL = 0;}};
  6235  065E  0021               	movlb	1	; select bank1
  6236  065F  149D               	bsf	29,1	;volatile
  6237  0660                     l531:	
  6238  0660  189D               	btfsc	29,1	;volatile
  6239  0661  2E60               	goto	l531
  6240  0662  3080               	movlw	128
  6241  0663  021C               	subwf	28,w	;volatile
  6242  0664  1C03               	skipc
  6243  0665  2E68               	goto	l5892
  6244  0666  019C               	clrf	28	;volatile
  6245  0667  019B               	clrf	27	;volatile
  6246  0668                     l5892:	
  6247                           
  6248                           ;glucose_meter_main.c: 320: gReadData = ADRESL;
  6249  0668  081B               	movf	27,w	;volatile
  6250  0669  0020               	movlb	0	; select bank0
  6251  066A  00D8               	movwf	??_SenseTestStrip
  6252  066B  01D9               	clrf	??_SenseTestStrip+1
  6253  066C  0858               	movf	??_SenseTestStrip,w
  6254  066D  0021               	movlb	1	; select bank1
  6255  066E  00B4               	movwf	_gReadData^(0+128)
  6256  066F  0020               	movlb	0	; select bank0
  6257  0670  0859               	movf	??_SenseTestStrip+1,w
  6258  0671  0021               	movlb	1	; select bank1
  6259  0672  00B5               	movwf	(_gReadData+1)^(0+128)
  6260                           
  6261                           ;glucose_meter_main.c: 321: gReadData += ADRESH << 8;
  6262  0673  081C               	movf	28,w	;volatile
  6263  0674  0020               	movlb	0	; select bank0
  6264  0675  00D8               	movwf	??_SenseTestStrip
  6265  0676  01D9               	clrf	??_SenseTestStrip+1
  6266  0677  0858               	movf	??_SenseTestStrip,w
  6267  0678  00D9               	movwf	??_SenseTestStrip+1
  6268  0679  01D8               	clrf	??_SenseTestStrip
  6269  067A  0858               	movf	??_SenseTestStrip,w
  6270  067B  0021               	movlb	1	; select bank1
  6271  067C  07B4               	addwf	_gReadData^(0+128),f
  6272  067D  0020               	movlb	0	; select bank0
  6273  067E  0859               	movf	??_SenseTestStrip+1,w
  6274  067F  0021               	movlb	1	; select bank1
  6275  0680  3DB5               	addwfc	(_gReadData+1)^(0+128),f
  6276                           
  6277                           ;glucose_meter_main.c: 322: temp_adc += gReadData;
  6278  0681  0834               	movf	_gReadData^(0+128),w
  6279  0682  07E4               	addwf	SenseTestStrip@temp_adc^(0+128),f
  6280  0683  0835               	movf	(_gReadData+1)^(0+128),w
  6281  0684  3DE5               	addwfc	(SenseTestStrip@temp_adc+1)^(0+128),f
  6282  0685  3001               	movlw	1
  6283  0686  0020               	movlb	0	; select bank0
  6284  0687  00D8               	movwf	??_SenseTestStrip
  6285  0688  0858               	movf	??_SenseTestStrip,w
  6286  0689  0021               	movlb	1	; select bank1
  6287  068A  07E6               	addwf	SenseTestStrip@index^(0+128),f
  6288  068B  3008               	movlw	8
  6289  068C  0266               	subwf	SenseTestStrip@index^(0+128),w
  6290  068D  1C03               	skipc
  6291  068E  2E59               	goto	l5884
  6292  068F                     l5902:	
  6293                           
  6294                           ;glucose_meter_main.c: 323: }
  6295                           ;glucose_meter_main.c: 324: temp_adc= temp_adc >>3;
  6296  068F  0865               	movf	(SenseTestStrip@temp_adc+1)^(0+128),w
  6297  0690  0020               	movlb	0	; select bank0
  6298  0691  00D9               	movwf	??_SenseTestStrip+1
  6299  0692  0021               	movlb	1	; select bank1
  6300  0693  0864               	movf	SenseTestStrip@temp_adc^(0+128),w
  6301  0694  0020               	movlb	0	; select bank0
  6302  0695  00D8               	movwf	??_SenseTestStrip
  6303  0696  0D59               	rlf	??_SenseTestStrip+1,w
  6304  0697  0CD9               	rrf	??_SenseTestStrip+1,f
  6305  0698  0CD8               	rrf	??_SenseTestStrip,f
  6306  0699  0D59               	rlf	??_SenseTestStrip+1,w
  6307  069A  0CD9               	rrf	??_SenseTestStrip+1,f
  6308  069B  0CD8               	rrf	??_SenseTestStrip,f
  6309  069C  0D59               	rlf	??_SenseTestStrip+1,w
  6310  069D  0CD9               	rrf	??_SenseTestStrip+1,f
  6311  069E  0CD8               	rrf	??_SenseTestStrip,f
  6312  069F  0858               	movf	??_SenseTestStrip,w
  6313  06A0  0021               	movlb	1	; select bank1
  6314  06A1  00E4               	movwf	SenseTestStrip@temp_adc^(0+128)
  6315  06A2  0020               	movlb	0	; select bank0
  6316  06A3  0859               	movf	??_SenseTestStrip+1,w
  6317  06A4  0021               	movlb	1	; select bank1
  6318  06A5  00E5               	movwf	(SenseTestStrip@temp_adc+1)^(0+128)
  6319                           
  6320                           ;glucose_meter_main.c: 326: if(temp_adc >= 920)
  6321  06A6  0865               	movf	(SenseTestStrip@temp_adc+1)^(0+128),w
  6322  06A7  3A80               	xorlw	128
  6323  06A8  0020               	movlb	0	; select bank0
  6324  06A9  00D8               	movwf	??_SenseTestStrip
  6325  06AA  3083               	movlw	131
  6326  06AB  0258               	subwf	??_SenseTestStrip,w
  6327  06AC  1D03               	skipz
  6328  06AD  2EB1               	goto	u6115
  6329  06AE  3098               	movlw	152
  6330  06AF  0021               	movlb	1	; select bank1
  6331  06B0  0264               	subwf	SenseTestStrip@temp_adc^(0+128),w
  6332  06B1                     u6115:	
  6333  06B1  1C03               	skipc
  6334  06B2  2F22               	goto	l5928
  6335                           
  6336                           ;glucose_meter_main.c: 327: {
  6337                           ;glucose_meter_main.c: 328: PIR1bits.ADIF = 0;
  6338  06B3  0020               	movlb	0	; select bank0
  6339  06B4  1311               	bcf	17,6	;volatile
  6340                           
  6341                           ;glucose_meter_main.c: 329: PIE1bits.ADIE=1;
  6342  06B5  0021               	movlb	1	; select bank1
  6343  06B6  1711               	bsf	17,6	;volatile
  6344                           
  6345                           ;glucose_meter_main.c: 330: LCDClear();
  6346  06B7  319F  274E  3186   	fcall	_LCDClear
  6347                           
  6348                           ;glucose_meter_main.c: 331: LCDString("...Faulty Strip..");
  6349  06BA  307F               	movlw	low (STR_13| (0+32768))
  6350  06BB  0020               	movlb	0	; select bank0
  6351  06BC  00BC               	movwf	LCDString@characters
  6352  06BD  3085               	movlw	high (STR_13| (0+32768))
  6353  06BE  00BD               	movwf	LCDString@characters+1
  6354  06BF  319E  2645  3186   	fcall	_LCDString
  6355                           
  6356                           ;glucose_meter_main.c: 332: gotoXY(0,1);
  6357  06C2  0020               	movlb	0	; select bank0
  6358  06C3  01B4               	clrf	gotoXY@y
  6359  06C4  0AB4               	incf	gotoXY@y,f
  6360  06C5  3000               	movlw	0
  6361  06C6  319E  2630  3186   	fcall	_gotoXY
  6362                           
  6363                           ;glucose_meter_main.c: 333: char lcdFormatted = {0};
  6364  06C9  0021               	movlb	1	; select bank1
  6365  06CA  01E3               	clrf	SenseTestStrip@lcdFormatted^(0+128)
  6366                           
  6367                           ;glucose_meter_main.c: 334: sprintf(lcdFormatted," Time= %02d:%02d  ",Hours, Minutes );
  6368  06CB  0863               	movf	SenseTestStrip@lcdFormatted^(0+128),w
  6369  06CC  0020               	movlb	0	; select bank0
  6370  06CD  00D8               	movwf	??_SenseTestStrip
  6371  06CE  01D9               	clrf	??_SenseTestStrip+1
  6372  06CF  0858               	movf	??_SenseTestStrip,w
  6373  06D0  00C6               	movwf	sprintf@wh
  6374  06D1  0859               	movf	??_SenseTestStrip+1,w
  6375  06D2  00C7               	movwf	sprintf@wh+1
  6376  06D3  306C               	movlw	low (STR_14| (0+32768))
  6377  06D4  00C8               	movwf	sprintf@f
  6378  06D5  3085               	movlw	high (STR_14| (0+32768))
  6379  06D6  00C9               	movwf	sprintf@f+1
  6380  06D7  085F               	movf	_Hours,w
  6381  06D8  00DA               	movwf	??_SenseTestStrip+2
  6382  06D9  01DB               	clrf	??_SenseTestStrip+3
  6383  06DA  085A               	movf	??_SenseTestStrip+2,w
  6384  06DB  00CA               	movwf	?_sprintf+4
  6385  06DC  085B               	movf	??_SenseTestStrip+3,w
  6386  06DD  00CB               	movwf	?_sprintf+5
  6387  06DE  0860               	movf	_Minutes,w
  6388  06DF  00DC               	movwf	??_SenseTestStrip+4
  6389  06E0  01DD               	clrf	??_SenseTestStrip+5
  6390  06E1  085C               	movf	??_SenseTestStrip+4,w
  6391  06E2  00CC               	movwf	?_sprintf+6
  6392  06E3  085D               	movf	??_SenseTestStrip+5,w
  6393  06E4  00CD               	movwf	?_sprintf+7
  6394  06E5  319E  26AA  3186   	fcall	_sprintf
  6395                           
  6396                           ;glucose_meter_main.c: 335: LCDString(lcdFormatted);
  6397  06E8  0021               	movlb	1	; select bank1
  6398  06E9  0863               	movf	SenseTestStrip@lcdFormatted^(0+128),w
  6399  06EA  0020               	movlb	0	; select bank0
  6400  06EB  00D8               	movwf	??_SenseTestStrip
  6401  06EC  01D9               	clrf	??_SenseTestStrip+1
  6402  06ED  0858               	movf	??_SenseTestStrip,w
  6403  06EE  00BC               	movwf	LCDString@characters
  6404  06EF  0859               	movf	??_SenseTestStrip+1,w
  6405  06F0  00BD               	movwf	LCDString@characters+1
  6406  06F1  319E  2645  3186   	fcall	_LCDString
  6407                           
  6408                           ;glucose_meter_main.c: 336: gtimeOutCount = 60000;
  6409  06F4  3000               	movlw	0
  6410  06F5  0021               	movlb	1	; select bank1
  6411  06F6  00DE               	movwf	(_gtimeOutCount+3)^(0+128)
  6412  06F7  3000               	movlw	0
  6413  06F8  00DD               	movwf	(_gtimeOutCount+2)^(0+128)
  6414  06F9  30EA               	movlw	234
  6415  06FA  00DC               	movwf	(_gtimeOutCount+1)^(0+128)
  6416  06FB  3060               	movlw	96
  6417  06FC  00DB               	movwf	_gtimeOutCount^(0+128)
  6418  06FD                     l536:	
  6419                           ;glucose_meter_main.c: 337: while(gtimeOutCount!=0)gtimeOutCount--;
  6420                           
  6421  06FD  085E               	movf	(_gtimeOutCount+3)^(0+128),w
  6422  06FE  045D               	iorwf	(_gtimeOutCount+2)^(0+128),w
  6423  06FF  045C               	iorwf	(_gtimeOutCount+1)^(0+128),w
  6424  0700  045B               	iorwf	_gtimeOutCount^(0+128),w
  6425  0701  1903               	btfsc	3,2
  6426  0702  2F1C               	goto	l5922
  6427  0703  3001               	movlw	1
  6428  0704  0020               	movlb	0	; select bank0
  6429  0705  00D8               	movwf	??_SenseTestStrip
  6430  0706  3000               	movlw	0
  6431  0707  00D9               	movwf	??_SenseTestStrip+1
  6432  0708  3000               	movlw	0
  6433  0709  00DA               	movwf	??_SenseTestStrip+2
  6434  070A  3000               	movlw	0
  6435  070B  00DB               	movwf	??_SenseTestStrip+3
  6436  070C  0858               	movf	??_SenseTestStrip,w
  6437  070D  0021               	movlb	1	; select bank1
  6438  070E  02DB               	subwf	_gtimeOutCount^(0+128),f
  6439  070F  0020               	movlb	0	; select bank0
  6440  0710  0859               	movf	??_SenseTestStrip+1,w
  6441  0711  0021               	movlb	1	; select bank1
  6442  0712  3BDC               	subwfb	(_gtimeOutCount+1)^(0+128),f
  6443  0713  0020               	movlb	0	; select bank0
  6444  0714  085A               	movf	??_SenseTestStrip+2,w
  6445  0715  0021               	movlb	1	; select bank1
  6446  0716  3BDD               	subwfb	(_gtimeOutCount+2)^(0+128),f
  6447  0717  0020               	movlb	0	; select bank0
  6448  0718  085B               	movf	??_SenseTestStrip+3,w
  6449  0719  0021               	movlb	1	; select bank1
  6450  071A  3BDE               	subwfb	(_gtimeOutCount+3)^(0+128),f
  6451  071B  2EFD               	goto	l536
  6452  071C                     l5922:	
  6453                           
  6454                           ;glucose_meter_main.c: 338: EnterDeepSleep();
  6455  071C  3188  2001  3186   	fcall	_EnterDeepSleep
  6456                           
  6457                           ;glucose_meter_main.c: 339: __nop();
  6458  071F  0000               	nop
  6459                           
  6460                           ;glucose_meter_main.c: 340: __nop();
  6461  0720  0000               	nop
  6462                           
  6463                           ;glucose_meter_main.c: 341: }
  6464  0721  2F57               	goto	l5950
  6465  0722                     l5928:	
  6466                           
  6467                           ;glucose_meter_main.c: 342: else
  6468                           ;glucose_meter_main.c: 343: {
  6469                           ;glucose_meter_main.c: 344: LCDClear();
  6470  0722  319F  274E  3186   	fcall	_LCDClear
  6471                           
  6472                           ;glucose_meter_main.c: 345: LCDString("...Strip Inserted");
  6473  0725  3091               	movlw	low (STR_15| (0+32768))
  6474  0726  0020               	movlb	0	; select bank0
  6475  0727  00BC               	movwf	LCDString@characters
  6476  0728  3085               	movlw	high (STR_15| (0+32768))
  6477  0729  00BD               	movwf	LCDString@characters+1
  6478  072A  319E  2645  3186   	fcall	_LCDString
  6479                           
  6480                           ;glucose_meter_main.c: 346: gotoXY(0,1);
  6481  072D  0020               	movlb	0	; select bank0
  6482  072E  01B4               	clrf	gotoXY@y
  6483  072F  0AB4               	incf	gotoXY@y,f
  6484  0730  3000               	movlw	0
  6485  0731  319E  2630  3186   	fcall	_gotoXY
  6486                           
  6487                           ;glucose_meter_main.c: 347: LCDString("Place the Sample");
  6488  0734  30E7               	movlw	low (STR_16| (0+32768))
  6489  0735  0020               	movlb	0	; select bank0
  6490  0736  00BC               	movwf	LCDString@characters
  6491  0737  3085               	movlw	high (STR_16| (0+32768))
  6492  0738  00BD               	movwf	LCDString@characters+1
  6493  0739  319E  2645  3186   	fcall	_LCDString
  6494                           
  6495                           ;glucose_meter_main.c: 348: gStripInserted = 1;
  6496  073C  0021               	movlb	1	; select bank1
  6497  073D  01CC               	clrf	_gStripInserted^(0+128)
  6498  073E  0ACC               	incf	_gStripInserted^(0+128),f
  6499                           
  6500                           ;glucose_meter_main.c: 349: gStripRemoved = 0;
  6501  073F  01FB               	clrf	_gStripRemoved
  6502                           
  6503                           ;glucose_meter_main.c: 350: gcountIdleTime = 120000;
  6504  0740  3000               	movlw	0
  6505  0741  00DA               	movwf	(_gcountIdleTime+3)^(0+128)
  6506  0742  3001               	movlw	1
  6507  0743  00D9               	movwf	(_gcountIdleTime+2)^(0+128)
  6508  0744  30D4               	movlw	212
  6509  0745  00D8               	movwf	(_gcountIdleTime+1)^(0+128)
  6510  0746  30C0               	movlw	192
  6511  0747  00D7               	movwf	_gcountIdleTime^(0+128)
  6512                           
  6513                           ;glucose_meter_main.c: 351: gStripIdleTime = 250000;
  6514  0748  3000               	movlw	0
  6515  0749  00D6               	movwf	(_gStripIdleTime+3)^(0+128)
  6516  074A  3003               	movlw	3
  6517  074B  00D5               	movwf	(_gStripIdleTime+2)^(0+128)
  6518  074C  30D0               	movlw	208
  6519  074D  00D4               	movwf	(_gStripIdleTime+1)^(0+128)
  6520  074E  3090               	movlw	144
  6521  074F  00D3               	movwf	_gStripIdleTime^(0+128)
  6522                           
  6523                           ;glucose_meter_main.c: 352: PIR1bits.ADIF = 0;
  6524  0750  0020               	movlb	0	; select bank0
  6525  0751  1311               	bcf	17,6	;volatile
  6526                           
  6527                           ;glucose_meter_main.c: 353: PIE1bits.ADIE=1;
  6528  0752  0021               	movlb	1	; select bank1
  6529  0753  1711               	bsf	17,6	;volatile
  6530                           
  6531                           ;glucose_meter_main.c: 354: ADCON0bits.ADGO = 1;
  6532  0754  149D               	bsf	29,1	;volatile
  6533                           
  6534                           ;glucose_meter_main.c: 355: LATB5 = 0;
  6535  0755  0022               	movlb	2	; select bank2
  6536  0756  128D               	bcf	13,5	;volatile
  6537  0757                     l5950:	
  6538                           
  6539                           ;glucose_meter_main.c: 356: }
  6540                           ;glucose_meter_main.c: 357: }
  6541                           ;glucose_meter_main.c: 359: if((gSenseTestStrip == 0x01) & (gStripRemoved == 0))
  6542  0757  037A               	decf	_gSenseTestStrip,w
  6543  0758  1D03               	btfss	3,2
  6544  0759  2F75               	goto	l5964
  6545  075A  087B               	movf	_gStripRemoved,w
  6546  075B  1D03               	btfss	3,2
  6547  075C  2F75               	goto	l5964
  6548                           
  6549                           ;glucose_meter_main.c: 360: {
  6550                           ;glucose_meter_main.c: 361: LCDClear();
  6551  075D  319F  274E  3186   	fcall	_LCDClear
  6552                           
  6553                           ;glucose_meter_main.c: 363: gotoXY(0,1);
  6554  0760  0020               	movlb	0	; select bank0
  6555  0761  01B4               	clrf	gotoXY@y
  6556  0762  0AB4               	incf	gotoXY@y,f
  6557  0763  3000               	movlw	0
  6558  0764  319E  2630  3186   	fcall	_gotoXY
  6559                           
  6560                           ;glucose_meter_main.c: 364: LCDString("                ");
  6561  0767  30A3               	movlw	low (STR_17| (0+32768))
  6562  0768  0020               	movlb	0	; select bank0
  6563  0769  00BC               	movwf	LCDString@characters
  6564  076A  3085               	movlw	high (STR_17| (0+32768))
  6565  076B  00BD               	movwf	LCDString@characters+1
  6566  076C  319E  2645  3186   	fcall	_LCDString
  6567                           
  6568                           ;glucose_meter_main.c: 365: gStripRemoved = 1;
  6569  076F  01FB               	clrf	_gStripRemoved
  6570  0770  0AFB               	incf	_gStripRemoved,f
  6571                           
  6572                           ;glucose_meter_main.c: 366: gStripInserted = 0;
  6573  0771  0021               	movlb	1	; select bank1
  6574  0772  01CC               	clrf	_gStripInserted^(0+128)
  6575                           
  6576                           ;glucose_meter_main.c: 367: LATB5 = 0;
  6577  0773  0022               	movlb	2	; select bank2
  6578  0774  128D               	bcf	13,5	;volatile
  6579  0775                     l5964:	
  6580                           
  6581                           ;glucose_meter_main.c: 368: }
  6582                           ;glucose_meter_main.c: 370: if((gSenseTestStrip == 0x01) & (gStripRemoved == 1))
  6583  0775  037A               	decf	_gSenseTestStrip,w
  6584  0776  1D03               	btfss	3,2
  6585  0777  0008               	return
  6586  0778  037B               	decf	_gStripRemoved,w
  6587  0779  1D03               	btfss	3,2
  6588  077A  0008               	return
  6589                           
  6590                           ;glucose_meter_main.c: 371: {
  6591                           ;glucose_meter_main.c: 372: if(gStripIdleTime <= 1)
  6592  077B  0021               	movlb	1	; select bank1
  6593  077C  0856               	movf	(_gStripIdleTime+3)^(0+128),w
  6594  077D  1D03               	btfss	3,2
  6595  077E  2F92               	goto	l5972
  6596  077F  0855               	movf	(_gStripIdleTime+2)^(0+128),w
  6597  0780  1D03               	btfss	3,2
  6598  0781  2F92               	goto	l5972
  6599  0782  0854               	movf	(_gStripIdleTime+1)^(0+128),w
  6600  0783  1D03               	btfss	3,2
  6601  0784  2F92               	goto	l5972
  6602  0785  3002               	movlw	2
  6603  0786  0253               	subwf	_gStripIdleTime^(0+128),w
  6604  0787  1803               	btfsc	3,0
  6605  0788  2F92               	goto	l5972
  6606                           
  6607                           ;glucose_meter_main.c: 373: gStripIdleTime = 1;
  6608  0789  3000               	movlw	0
  6609  078A  00D6               	movwf	(_gStripIdleTime+3)^(0+128)
  6610  078B  3000               	movlw	0
  6611  078C  00D5               	movwf	(_gStripIdleTime+2)^(0+128)
  6612  078D  3000               	movlw	0
  6613  078E  00D4               	movwf	(_gStripIdleTime+1)^(0+128)
  6614  078F  3001               	movlw	1
  6615  0790  00D3               	movwf	_gStripIdleTime^(0+128)
  6616  0791  2FAA               	goto	l5974
  6617  0792                     l5972:	
  6618                           
  6619                           ;glucose_meter_main.c: 374: else
  6620                           ;glucose_meter_main.c: 375: gStripIdleTime--;
  6621  0792  3001               	movlw	1
  6622  0793  0020               	movlb	0	; select bank0
  6623  0794  00D8               	movwf	??_SenseTestStrip
  6624  0795  3000               	movlw	0
  6625  0796  00D9               	movwf	??_SenseTestStrip+1
  6626  0797  3000               	movlw	0
  6627  0798  00DA               	movwf	??_SenseTestStrip+2
  6628  0799  3000               	movlw	0
  6629  079A  00DB               	movwf	??_SenseTestStrip+3
  6630  079B  0858               	movf	??_SenseTestStrip,w
  6631  079C  0021               	movlb	1	; select bank1
  6632  079D  02D3               	subwf	_gStripIdleTime^(0+128),f
  6633  079E  0020               	movlb	0	; select bank0
  6634  079F  0859               	movf	??_SenseTestStrip+1,w
  6635  07A0  0021               	movlb	1	; select bank1
  6636  07A1  3BD4               	subwfb	(_gStripIdleTime+1)^(0+128),f
  6637  07A2  0020               	movlb	0	; select bank0
  6638  07A3  085A               	movf	??_SenseTestStrip+2,w
  6639  07A4  0021               	movlb	1	; select bank1
  6640  07A5  3BD5               	subwfb	(_gStripIdleTime+2)^(0+128),f
  6641  07A6  0020               	movlb	0	; select bank0
  6642  07A7  085B               	movf	??_SenseTestStrip+3,w
  6643  07A8  0021               	movlb	1	; select bank1
  6644  07A9  3BD6               	subwfb	(_gStripIdleTime+3)^(0+128),f
  6645  07AA                     l5974:	
  6646                           
  6647                           ;glucose_meter_main.c: 377: if(gStripIdleTime == 1)
  6648  07AA  0353               	decf	_gStripIdleTime^(0+128),w
  6649  07AB  0454               	iorwf	(_gStripIdleTime+1)^(0+128),w
  6650  07AC  0455               	iorwf	(_gStripIdleTime+2)^(0+128),w
  6651  07AD  0456               	iorwf	(_gStripIdleTime+3)^(0+128),w
  6652  07AE  1D03               	btfss	3,2
  6653  07AF  0008               	return
  6654                           
  6655                           ;glucose_meter_main.c: 378: {
  6656                           ;glucose_meter_main.c: 379: LCDClear();
  6657  07B0  319F  274E  3186   	fcall	_LCDClear
  6658                           
  6659                           ;glucose_meter_main.c: 380: LCDString("StripNotInserted");
  6660  07B3  30D6               	movlw	low (STR_18| (0+32768))
  6661  07B4  0020               	movlb	0	; select bank0
  6662  07B5  00BC               	movwf	LCDString@characters
  6663  07B6  3085               	movlw	high (STR_18| (0+32768))
  6664  07B7  00BD               	movwf	LCDString@characters+1
  6665  07B8  319E  2645  3186   	fcall	_LCDString
  6666                           
  6667                           ;glucose_meter_main.c: 381: gotoXY(0,1);
  6668  07BB  0020               	movlb	0	; select bank0
  6669  07BC  01B4               	clrf	gotoXY@y
  6670  07BD  0AB4               	incf	gotoXY@y,f
  6671  07BE  3000               	movlw	0
  6672  07BF  319E  2630  3186   	fcall	_gotoXY
  6673                           
  6674                           ;glucose_meter_main.c: 382: LCDString("                ");
  6675  07C2  30A3               	movlw	low (STR_17| (0+32768))
  6676  07C3  0020               	movlb	0	; select bank0
  6677  07C4  00BC               	movwf	LCDString@characters
  6678  07C5  3085               	movlw	high (STR_17| (0+32768))
  6679  07C6  00BD               	movwf	LCDString@characters+1
  6680  07C7  319E  2645  3186   	fcall	_LCDString
  6681                           
  6682                           ;glucose_meter_main.c: 383: gtimeOutCount = 60000;
  6683  07CA  3000               	movlw	0
  6684  07CB  0021               	movlb	1	; select bank1
  6685  07CC  00DE               	movwf	(_gtimeOutCount+3)^(0+128)
  6686  07CD  3000               	movlw	0
  6687  07CE  00DD               	movwf	(_gtimeOutCount+2)^(0+128)
  6688  07CF  30EA               	movlw	234
  6689  07D0  00DC               	movwf	(_gtimeOutCount+1)^(0+128)
  6690  07D1  3060               	movlw	96
  6691  07D2  00DB               	movwf	_gtimeOutCount^(0+128)
  6692  07D3                     l545:	
  6693                           ;glucose_meter_main.c: 384: while(gtimeOutCount!=0)gtimeOutCount--;
  6694                           
  6695  07D3  085E               	movf	(_gtimeOutCount+3)^(0+128),w
  6696  07D4  045D               	iorwf	(_gtimeOutCount+2)^(0+128),w
  6697  07D5  045C               	iorwf	(_gtimeOutCount+1)^(0+128),w
  6698  07D6  045B               	iorwf	_gtimeOutCount^(0+128),w
  6699  07D7  1903               	btfsc	3,2
  6700  07D8  2FF2               	goto	l5986
  6701  07D9  3001               	movlw	1
  6702  07DA  0020               	movlb	0	; select bank0
  6703  07DB  00D8               	movwf	??_SenseTestStrip
  6704  07DC  3000               	movlw	0
  6705  07DD  00D9               	movwf	??_SenseTestStrip+1
  6706  07DE  3000               	movlw	0
  6707  07DF  00DA               	movwf	??_SenseTestStrip+2
  6708  07E0  3000               	movlw	0
  6709  07E1  00DB               	movwf	??_SenseTestStrip+3
  6710  07E2  0858               	movf	??_SenseTestStrip,w
  6711  07E3  0021               	movlb	1	; select bank1
  6712  07E4  02DB               	subwf	_gtimeOutCount^(0+128),f
  6713  07E5  0020               	movlb	0	; select bank0
  6714  07E6  0859               	movf	??_SenseTestStrip+1,w
  6715  07E7  0021               	movlb	1	; select bank1
  6716  07E8  3BDC               	subwfb	(_gtimeOutCount+1)^(0+128),f
  6717  07E9  0020               	movlb	0	; select bank0
  6718  07EA  085A               	movf	??_SenseTestStrip+2,w
  6719  07EB  0021               	movlb	1	; select bank1
  6720  07EC  3BDD               	subwfb	(_gtimeOutCount+2)^(0+128),f
  6721  07ED  0020               	movlb	0	; select bank0
  6722  07EE  085B               	movf	??_SenseTestStrip+3,w
  6723  07EF  0021               	movlb	1	; select bank1
  6724  07F0  3BDE               	subwfb	(_gtimeOutCount+3)^(0+128),f
  6725  07F1  2FD3               	goto	l545
  6726  07F2                     l5986:	
  6727                           
  6728                           ;glucose_meter_main.c: 385: EnterDeepSleep();
  6729  07F2  3188  2001         	fcall	_EnterDeepSleep
  6730                           
  6731                           ;glucose_meter_main.c: 386: __nop();
  6732  07F4  0000               	nop
  6733                           
  6734                           ;glucose_meter_main.c: 387: __nop();
  6735  07F5  0000               	nop
  6736                           
  6737                           ;glucose_meter_main.c: 388: __nop();
  6738  07F6  0000               	nop
  6739  07F7  0008               	return
  6740  07F8                     __end_of_SenseTestStrip:	
  6741                           
  6742                           	psect	text10
  6743  1EAA                     __ptext10:	
  6744 ;; *************** function _sprintf *****************
  6745 ;; Defined at:
  6746 ;;		line 13 in file "C:\Program Files (x86)\Microchip\xc8\v1.37\sources\common\sprintf.c"
  6747 ;; Parameters:    Size  Location     Type
  6748 ;;  wh              2   38[BANK0 ] PTR unsigned char 
  6749 ;;		 -> RAM(4096), 
  6750 ;;  f               2   40[BANK0 ] PTR const unsigned char 
  6751 ;;		 -> STR_14(19), STR_10(27), STR_9(22), STR_8(13), 
  6752 ;;		 -> STR_7(24), 
  6753 ;; Auto vars:     Size  Location     Type
  6754 ;;  pb              4   52[BANK0 ] struct __prbuf
  6755 ;;  ap              1   51[BANK0 ] PTR void [1]
  6756 ;;		 -> ?_sprintf(2), ?_printf(2), 
  6757 ;; Return value:  Size  Location     Type
  6758 ;;                  2   38[BANK0 ] int 
  6759 ;; Registers used:
  6760 ;;		wreg, fsr0l, fsr0h, fsr1l, fsr1h, status,2, status,0, pclath, cstack
  6761 ;; Tracked objects:
  6762 ;;		On entry : 0/0
  6763 ;;		On exit  : 0/0
  6764 ;;		Unchanged: 0/0
  6765 ;; Data sizes:     COMMON   BANK0   BANK1   BANK2   BANK3   BANK4   BANK5   BANK6   BANK7   BANK8   BANK9  BANK10  BANK1
      +1  BANK12
  6766 ;;      Params:         0      12       0       0       0       0       0       0       0       0       0       0       
      +0       0
  6767 ;;      Locals:         0       5       0       0       0       0       0       0       0       0       0       0       
      +0       0
  6768 ;;      Temps:          0       1       0       0       0       0       0       0       0       0       0       0       
      +0       0
  6769 ;;      Totals:         0      18       0       0       0       0       0       0       0       0       0       0       
      +0       0
  6770 ;;Total ram usage:       18 bytes
  6771 ;; Hardware stack levels used:    1
  6772 ;; Hardware stack levels required when called:    5
  6773 ;; This function calls:
  6774 ;;		__doprnt
  6775 ;; This function is called by:
  6776 ;;		_main
  6777 ;;		_SenseTestStrip
  6778 ;; This function uses a non-reentrant model
  6779 ;;
  6780                           
  6781                           
  6782                           ;psect for function _sprintf
  6783  1EAA                     _sprintf:	
  6784                           
  6785                           ;incstack = 0
  6786                           ; Regs used in _sprintf: [wreg-fsr1h+status,2+status,0+pclath+cstack]
  6787  1EAA  0020               	movlb	0	; select bank0
  6788  1EAB  0847               	movf	sprintf@wh+1,w
  6789  1EAC  00D5               	movwf	sprintf@pb+1
  6790  1EAD  0846               	movf	sprintf@wh,w
  6791  1EAE  00D4               	movwf	sprintf@pb
  6792  1EAF  01D6               	clrf	low ((sprintf@pb| 0+2))
  6793  1EB0  01D7               	clrf	(low ((sprintf@pb| 0+2))+1)
  6794  1EB1  304A               	movlw	(low ((?_sprintf| 0+4)))& (0+255)
  6795  1EB2  00D2               	movwf	??_sprintf
  6796  1EB3  0852               	movf	??_sprintf,w
  6797  1EB4  00D3               	movwf	sprintf@ap
  6798  1EB5  0849               	movf	sprintf@f+1,w
  6799  1EB6  00B8               	movwf	__doprnt@f+1
  6800  1EB7  0848               	movf	sprintf@f,w
  6801  1EB8  00B7               	movwf	__doprnt@f
  6802  1EB9  3053               	movlw	(low (sprintf@ap| 0))& (0+255)
  6803  1EBA  00D2               	movwf	??_sprintf
  6804  1EBB  0852               	movf	??_sprintf,w
  6805  1EBC  00B9               	movwf	__doprnt@ap
  6806  1EBD  3054               	movlw	(low (sprintf@pb| 0))& (0+255)
  6807  1EBE  3195  25B5         	fcall	__doprnt
  6808  1EC0  0020               	movlb	0	; select bank0
  6809  1EC1  0854               	movf	sprintf@pb,w
  6810  1EC2  0086               	movwf	6
  6811  1EC3  0855               	movf	sprintf@pb+1,w
  6812  1EC4  0087               	movwf	7
  6813  1EC5  0181               	clrf	1
  6814  1EC6  0008               	return
  6815  1EC7                     __end_of_sprintf:	
  6816                           ;	Return value of _sprintf is never used
  6817                           
  6818                           
  6819                           	psect	text11
  6820  15B5                     __ptext11:	
  6821 ;; *************** function __doprnt *****************
  6822 ;; Defined at:
  6823 ;;		line 458 in file "C:\Program Files (x86)\Microchip\xc8\v1.37\sources\common\doprnt.c"
  6824 ;; Parameters:    Size  Location     Type
  6825 ;;  pb              1    wreg     PTR struct __prbuf
  6826 ;;		 -> sprintf@pb(4), printf@pb(4), 
  6827 ;;  f               2   23[BANK0 ] PTR const unsigned char 
  6828 ;;		 -> STR_14(19), STR_10(27), STR_9(22), STR_8(13), 
  6829 ;;		 -> STR_7(24), STR_1(15), 
  6830 ;;  ap              1   25[BANK0 ] PTR PTR void 
  6831 ;;		 -> sprintf@ap(1), printf@ap(1), 
  6832 ;; Auto vars:     Size  Location     Type
  6833 ;;  pb              1   37[BANK0 ] PTR struct __prbuf
  6834 ;;		 -> sprintf@pb(4), printf@pb(4), 
  6835 ;;  tmpval          4    0        struct .
  6836 ;;  width           2   34[BANK0 ] int 
  6837 ;;  val             2   31[BANK0 ] unsigned int 
  6838 ;;  cp              2    0        PTR const unsigned char 
  6839 ;;  len             2    0        unsigned int 
  6840 ;;  c               1   36[BANK0 ] char 
  6841 ;;  flag            1   33[BANK0 ] unsigned char 
  6842 ;;  prec            1   30[BANK0 ] char 
  6843 ;; Return value:  Size  Location     Type
  6844 ;;                  2   23[BANK0 ] int 
  6845 ;; Registers used:
  6846 ;;		wreg, fsr0l, fsr0h, fsr1l, fsr1h, status,2, status,0, pclath, cstack
  6847 ;; Tracked objects:
  6848 ;;		On entry : 0/0
  6849 ;;		On exit  : 0/0
  6850 ;;		Unchanged: 0/0
  6851 ;; Data sizes:     COMMON   BANK0   BANK1   BANK2   BANK3   BANK4   BANK5   BANK6   BANK7   BANK8   BANK9  BANK10  BANK1
      +1  BANK12
  6852 ;;      Params:         0       3       0       0       0       0       0       0       0       0       0       0       
      +0       0
  6853 ;;      Locals:         0       8       0       0       0       0       0       0       0       0       0       0       
      +0       0
  6854 ;;      Temps:          0       4       0       0       0       0       0       0       0       0       0       0       
      +0       0
  6855 ;;      Totals:         0      15       0       0       0       0       0       0       0       0       0       0       
      +0       0
  6856 ;;Total ram usage:       15 bytes
  6857 ;; Hardware stack levels used:    1
  6858 ;; Hardware stack levels required when called:    4
  6859 ;; This function calls:
  6860 ;;		Absolute function
  6861 ;;		___lwdiv
  6862 ;;		___lwmod
  6863 ;;		___wmul
  6864 ;;		_isdigit
  6865 ;;		_putch
  6866 ;; This function is called by:
  6867 ;;		_printf
  6868 ;;		_sprintf
  6869 ;; This function uses a non-reentrant model
  6870 ;;
  6871                           
  6872                           
  6873                           ;psect for function __doprnt
  6874  15B5                     __doprnt:	
  6875                           
  6876                           ;incstack = 0
  6877                           ; Regs used in __doprnt: [wreg-fsr1h+status,2+status,0+pclath+cstack]
  6878                           ;__doprnt@pb stored from wreg
  6879  15B5  0020               	movlb	0	; select bank0
  6880  15B6  00C5               	movwf	__doprnt@pb
  6881  15B7                     l5038:	
  6882                           ;doprnt.c: 499: signed char c;
  6883                           ;doprnt.c: 501: int width;
  6884                           ;doprnt.c: 506: signed char prec;
  6885                           ;doprnt.c: 508: unsigned char flag;
  6886                           ;doprnt.c: 523: union {
  6887                           ;doprnt.c: 524: unsigned long vd;
  6888                           ;doprnt.c: 525: double integ;
  6889                           ;doprnt.c: 526: } tmpval;
  6890                           ;doprnt.c: 528: unsigned int val;
  6891                           ;doprnt.c: 529: unsigned len;
  6892                           ;doprnt.c: 530: const char * cp;
  6893                           ;doprnt.c: 536: while(c = *f++) {
  6894                           
  6895  15B7  0020               	movlb	0	; select bank0
  6896  15B8  0838               	movf	__doprnt@f+1,w
  6897  15B9  00BB               	movwf	??__doprnt+1
  6898  15BA  0837               	movf	__doprnt@f,w
  6899  15BB  00BA               	movwf	??__doprnt
  6900  15BC  0AB7               	incf	__doprnt@f,f
  6901  15BD  1903               	skipnz
  6902  15BE  0AB8               	incf	__doprnt@f+1,f
  6903  15BF  083A               	movf	??__doprnt,w
  6904  15C0  0084               	movwf	4
  6905  15C1  083B               	movf	??__doprnt+1,w
  6906  15C2  0085               	movwf	5
  6907  15C3  0800               	movf	0,w	;code access
  6908  15C4  00BC               	movwf	??__doprnt+2
  6909  15C5  083C               	movf	??__doprnt+2,w
  6910  15C6  00C4               	movwf	__doprnt@c
  6911  15C7  0844               	movf	__doprnt@c,w
  6912  15C8  1903               	btfsc	3,2
  6913  15C9  2FFC               	goto	l5040
  6914                           
  6915                           ;doprnt.c: 538: if(c != '%')
  6916  15CA  3025               	movlw	37
  6917  15CB  0644               	xorwf	__doprnt@c,w
  6918  15CC  1903               	btfsc	3,2
  6919  15CD  2DFB               	goto	l4924
  6920                           
  6921                           ;doprnt.c: 540: {
  6922                           ;doprnt.c: 541: if(pb->func) (pb->func(c)); else ((*pb->ptr++ = c));
  6923  15CE  0845               	movf	__doprnt@pb,w
  6924  15CF  3E02               	addlw	2
  6925  15D0  0086               	movwf	6
  6926  15D1  0187               	clrf	7
  6927  15D2  0016               	moviw fsr1++
  6928  15D3  0401               	iorwf	1,w
  6929  15D4  1903               	btfsc	3,2
  6930  15D5  2DE4               	goto	l4920
  6931  15D6  0844               	movf	__doprnt@c,w
  6932  15D7  00BA               	movwf	??__doprnt
  6933  15D8  083A               	movf	??__doprnt,w
  6934  15D9  00A9               	movwf	putch@c
  6935  15DA  0845               	movf	__doprnt@pb,w
  6936  15DB  3E02               	addlw	2
  6937  15DC  0086               	movwf	6
  6938  15DD  0187               	clrf	7
  6939  15DE  3F41               	moviw [1]fsr1
  6940  15DF  008A               	movwf	10
  6941  15E0  3F40               	moviw [0]fsr1
  6942  15E1  000A               	callw
  6943  15E2  3195               	pagesel	$
  6944  15E3  2DB7               	goto	l5038
  6945  15E4                     l4920:	
  6946  15E4  0020               	movlb	0	; select bank0
  6947  15E5  0845               	movf	__doprnt@pb,w
  6948  15E6  0086               	movwf	6
  6949  15E7  0187               	clrf	7
  6950  15E8  3F40               	moviw [0]fsr1
  6951  15E9  00BA               	movwf	??__doprnt
  6952  15EA  3F41               	moviw [1]fsr1
  6953  15EB  00BB               	movwf	??__doprnt+1
  6954  15EC  083A               	movf	??__doprnt,w
  6955  15ED  0086               	movwf	6
  6956  15EE  083B               	movf	??__doprnt+1,w
  6957  15EF  0087               	movwf	7
  6958  15F0  0844               	movf	__doprnt@c,w
  6959  15F1  0081               	movwf	1
  6960  15F2  0845               	movf	__doprnt@pb,w
  6961  15F3  0086               	movwf	6
  6962  15F4  0187               	clrf	7
  6963  15F5  3001               	movlw	1
  6964  15F6  0781               	addwf	1,f
  6965  15F7  3141               	addfsr 1,1
  6966  15F8  1803               	skipnc
  6967  15F9  0A81               	incf	1,f
  6968                           
  6969                           ;doprnt.c: 542: continue;
  6970  15FA  2DB7               	goto	l5038
  6971  15FB                     l4924:	
  6972                           
  6973                           ;doprnt.c: 543: }
  6974                           ;doprnt.c: 546: width = 0;
  6975  15FB  01C2               	clrf	__doprnt@width
  6976  15FC  01C3               	clrf	__doprnt@width+1
  6977                           
  6978                           ;doprnt.c: 548: flag = 0;
  6979  15FD  01C1               	clrf	__doprnt@flag
  6980                           
  6981                           ;doprnt.c: 551: switch(*f) {
  6982                           
  6983                           ;doprnt.c: 550: for(;;) {
  6984  15FE  2E04               	goto	l4930
  6985  15FF                     l672:	
  6986                           ;doprnt.c: 579: case '0':
  6987                           
  6988                           
  6989                           ;doprnt.c: 580: flag |= 0x04;
  6990  15FF  1541               	bsf	__doprnt@flag,2
  6991                           
  6992                           ;doprnt.c: 581: f++;
  6993  1600  3001               	movlw	1
  6994  1601  07B7               	addwf	__doprnt@f,f
  6995  1602  3000               	movlw	0
  6996  1603  3DB8               	addwfc	__doprnt@f+1,f
  6997  1604                     l4930:	
  6998                           ;doprnt.c: 584: }
  6999                           
  7000                           ;doprnt.c: 582: continue;
  7001                           
  7002  1604  0837               	movf	__doprnt@f,w
  7003  1605  0084               	movwf	4
  7004  1606  0838               	movf	__doprnt@f+1,w
  7005  1607  0085               	movwf	5
  7006  1608  0800               	movf	0,w	;code access
  7007                           
  7008                           ; Switch size 1, requested type "space"
  7009                           ; Number of cases is 1, Range of values is 48 to 48
  7010                           ; switch strategies available:
  7011                           ; Name         Instructions Cycles
  7012                           ; simple_byte            4     3 (average)
  7013                           ; direct_byte           11     9 (fixed)
  7014                           ; jumptable            263     9 (fixed)
  7015                           ;	Chosen strategy is simple_byte
  7016  1609  3A30               	xorlw	48	; case 48
  7017  160A  1903               	skipnz
  7018  160B  2DFF               	goto	l672
  7019  160C  2E0D               	goto	l4932
  7020  160D                     l4932:	
  7021                           ;doprnt.c: 586: }
  7022                           
  7023                           ;doprnt.c: 585: break;
  7024                           
  7025                           
  7026                           ;doprnt.c: 597: if(isdigit((unsigned)*f)) {
  7027  160D  0837               	movf	__doprnt@f,w
  7028  160E  0084               	movwf	4
  7029  160F  0838               	movf	__doprnt@f+1,w
  7030  1610  0085               	movwf	5
  7031  1611  0800               	movf	0,w	;code access
  7032  1612  319D  25D9  3195   	fcall	_isdigit
  7033  1615  1C03               	btfss	3,0
  7034  1616  2E48               	goto	l4946
  7035                           
  7036                           ;doprnt.c: 598: width = 0;
  7037  1617  0020               	movlb	0	; select bank0
  7038  1618  01C2               	clrf	__doprnt@width
  7039  1619  01C3               	clrf	__doprnt@width+1
  7040  161A                     l4936:	
  7041                           ;doprnt.c: 599: do {
  7042                           
  7043                           
  7044                           ;doprnt.c: 600: width *= 10;
  7045  161A  300A               	movlw	10
  7046  161B  0020               	movlb	0	; select bank0
  7047  161C  00A9               	movwf	___wmul@multiplier
  7048  161D  3000               	movlw	0
  7049  161E  00AA               	movwf	___wmul@multiplier+1
  7050  161F  0843               	movf	__doprnt@width+1,w
  7051  1620  00AC               	movwf	___wmul@multiplicand+1
  7052  1621  0842               	movf	__doprnt@width,w
  7053  1622  00AB               	movwf	___wmul@multiplicand
  7054  1623  319E  268E  3195   	fcall	___wmul
  7055  1626  0020               	movlb	0	; select bank0
  7056  1627  082A               	movf	?___wmul+1,w
  7057  1628  00C3               	movwf	__doprnt@width+1
  7058  1629  0829               	movf	?___wmul,w
  7059  162A  00C2               	movwf	__doprnt@width
  7060                           
  7061                           ;doprnt.c: 601: width += *f++ - '0';
  7062  162B  0837               	movf	__doprnt@f,w
  7063  162C  0084               	movwf	4
  7064  162D  0838               	movf	__doprnt@f+1,w
  7065  162E  0085               	movwf	5
  7066  162F  0800               	movf	0,w	;code access
  7067  1630  3ED0               	addlw	208
  7068  1631  00BA               	movwf	??__doprnt
  7069  1632  30FF               	movlw	255
  7070  1633  1803               	skipnc
  7071  1634  3000               	movlw	0
  7072  1635  00BB               	movwf	??__doprnt+1
  7073  1636  083A               	movf	??__doprnt,w
  7074  1637  07C2               	addwf	__doprnt@width,f
  7075  1638  083B               	movf	??__doprnt+1,w
  7076  1639  3DC3               	addwfc	__doprnt@width+1,f
  7077  163A  3001               	movlw	1
  7078  163B  07B7               	addwf	__doprnt@f,f
  7079  163C  3000               	movlw	0
  7080  163D  3DB8               	addwfc	__doprnt@f+1,f
  7081                           
  7082                           ;doprnt.c: 602: } while(isdigit((unsigned)*f));
  7083  163E  0837               	movf	__doprnt@f,w
  7084  163F  0084               	movwf	4
  7085  1640  0838               	movf	__doprnt@f+1,w
  7086  1641  0085               	movwf	5
  7087  1642  0800               	movf	0,w	;code access
  7088  1643  319D  25D9  3195   	fcall	_isdigit
  7089  1646  1803               	btfsc	3,0
  7090  1647  2E1A               	goto	l4936
  7091  1648                     l4946:	
  7092                           ;doprnt.c: 822: }
  7093                           
  7094                           ;doprnt.c: 813: continue;
  7095                           
  7096                           ;doprnt.c: 802: default:
  7097                           
  7098                           ;doprnt.c: 698: case 'i':
  7099                           ;doprnt.c: 699: break;
  7100                           
  7101                           ;doprnt.c: 697: case 'd':
  7102                           
  7103                           ;doprnt.c: 638: goto alldone;
  7104                           
  7105                           ;doprnt.c: 637: case 0:
  7106                           
  7107                           ;doprnt.c: 608: }
  7108                           ;doprnt.c: 635: switch(c = *f++) {
  7109                           
  7110  1648  0020               	movlb	0	; select bank0
  7111  1649  0838               	movf	__doprnt@f+1,w
  7112  164A  00BB               	movwf	??__doprnt+1
  7113  164B  0837               	movf	__doprnt@f,w
  7114  164C  00BA               	movwf	??__doprnt
  7115  164D  0AB7               	incf	__doprnt@f,f
  7116  164E  1903               	skipnz
  7117  164F  0AB8               	incf	__doprnt@f+1,f
  7118  1650  083A               	movf	??__doprnt,w
  7119  1651  0084               	movwf	4
  7120  1652  083B               	movf	??__doprnt+1,w
  7121  1653  0085               	movwf	5
  7122  1654  0800               	movf	0,w	;code access
  7123  1655  00C4               	movwf	__doprnt@c
  7124                           
  7125                           ; Switch size 1, requested type "space"
  7126                           ; Number of cases is 3, Range of values is 0 to 105
  7127                           ; switch strategies available:
  7128                           ; Name         Instructions Cycles
  7129                           ; simple_byte           10     6 (average)
  7130                           ; direct_byte          218     6 (fixed)
  7131                           ; jumptable            260     6 (fixed)
  7132                           ;	Chosen strategy is simple_byte
  7133  1656  3A00               	xorlw	0	; case 0
  7134  1657  1903               	skipnz
  7135  1658  2FFC               	goto	l5040
  7136  1659  3A64               	xorlw	100	; case 100
  7137  165A  1903               	skipnz
  7138  165B  2E60               	goto	l4948
  7139  165C  3A0D               	xorlw	13	; case 105
  7140  165D  1903               	skipnz
  7141  165E  2E60               	goto	l4948
  7142  165F  2DB7               	goto	l5038
  7143  1660                     l4948:	
  7144                           
  7145                           ;doprnt.c: 1253: {
  7146                           ;doprnt.c: 1259: val = (int)(*(int *)__va_arg((*(int **)ap), (int)0));
  7147  1660  0020               	movlb	0	; select bank0
  7148  1661  0839               	movf	__doprnt@ap,w
  7149  1662  0086               	movwf	6
  7150  1663  0187               	clrf	7
  7151  1664  0801               	movf	1,w
  7152  1665  0084               	movwf	4
  7153  1666  0185               	clrf	5
  7154  1667  3002               	movlw	2
  7155  1668  0781               	addwf	1,f
  7156  1669  3F00               	moviw [0]fsr0
  7157  166A  00BF               	movwf	__doprnt@val
  7158  166B  3F01               	moviw [1]fsr0
  7159  166C  00C0               	movwf	__doprnt@val+1
  7160                           
  7161                           ;doprnt.c: 1261: if((int)val < 0) {
  7162  166D  1FC0               	btfss	__doprnt@val+1,7
  7163  166E  2E78               	goto	l4956
  7164                           
  7165                           ;doprnt.c: 1262: flag |= 0x03;
  7166  166F  3003               	movlw	3
  7167  1670  00BA               	movwf	??__doprnt
  7168  1671  083A               	movf	??__doprnt,w
  7169  1672  04C1               	iorwf	__doprnt@flag,f
  7170                           
  7171                           ;doprnt.c: 1263: val = -val;
  7172  1673  09BF               	comf	__doprnt@val,f
  7173  1674  09C0               	comf	__doprnt@val+1,f
  7174  1675  0ABF               	incf	__doprnt@val,f
  7175  1676  1903               	skipnz
  7176  1677  0AC0               	incf	__doprnt@val+1,f
  7177  1678                     l4956:	
  7178                           
  7179                           ;doprnt.c: 1264: }
  7180                           ;doprnt.c: 1266: }
  7181                           ;doprnt.c: 1305: for(c = 1 ; c != sizeof dpowers/sizeof dpowers[0] ; c++)
  7182  1678  01C4               	clrf	__doprnt@c
  7183  1679  0AC4               	incf	__doprnt@c,f
  7184  167A  3005               	movlw	5
  7185  167B  0644               	xorwf	__doprnt@c,w
  7186  167C  1903               	btfsc	3,2
  7187  167D  2E9D               	goto	l4968
  7188  167E                     l4962:	
  7189                           
  7190                           ;doprnt.c: 1306: if(val < dpowers[c])
  7191  167E  0844               	movf	__doprnt@c,w
  7192  167F  00BA               	movwf	??__doprnt
  7193  1680  01BB               	clrf	??__doprnt+1
  7194  1681  35BA               	lslf	??__doprnt,f
  7195  1682  0DBB               	rlf	??__doprnt+1,f
  7196  1683  3019               	movlw	low (_dpowers| (0+32768))
  7197  1684  073A               	addwf	??__doprnt,w
  7198  1685  0084               	movwf	4
  7199  1686  3085               	movlw	high (_dpowers| (0+32768))
  7200  1687  3D3B               	addwfc	??__doprnt+1,w
  7201  1688  0085               	movwf	5
  7202  1689  3F00               	moviw [0]fsr0
  7203  168A  00BC               	movwf	??__doprnt+2
  7204  168B  3F01               	moviw [1]fsr0
  7205  168C  00BD               	movwf	??__doprnt+3
  7206  168D  083D               	movf	??__doprnt+3,w
  7207  168E  0240               	subwf	__doprnt@val+1,w
  7208  168F  1D03               	skipz
  7209  1690  2E93               	goto	u4925
  7210  1691  083C               	movf	??__doprnt+2,w
  7211  1692  023F               	subwf	__doprnt@val,w
  7212  1693                     u4925:	
  7213  1693  1C03               	btfss	3,0
  7214  1694  2E9D               	goto	l4968
  7215                           
  7216                           ;doprnt.c: 1307: break;
  7217  1695  3001               	movlw	1
  7218  1696  00BA               	movwf	??__doprnt
  7219  1697  083A               	movf	??__doprnt,w
  7220  1698  07C4               	addwf	__doprnt@c,f
  7221  1699  3005               	movlw	5
  7222  169A  0644               	xorwf	__doprnt@c,w
  7223  169B  1D03               	btfss	3,2
  7224  169C  2E7E               	goto	l4962
  7225  169D                     l4968:	
  7226                           
  7227                           ;doprnt.c: 1345: if(width && flag & 0x03)
  7228  169D  0842               	movf	__doprnt@width,w
  7229  169E  0443               	iorwf	__doprnt@width+1,w
  7230  169F  1903               	btfsc	3,2
  7231  16A0  2EA9               	goto	l690
  7232  16A1  0841               	movf	__doprnt@flag,w
  7233  16A2  3903               	andlw	3
  7234  16A3  1903               	btfsc	3,2
  7235  16A4  2EA9               	goto	l690
  7236                           
  7237                           ;doprnt.c: 1346: width--;
  7238  16A5  30FF               	movlw	255
  7239  16A6  07C2               	addwf	__doprnt@width,f
  7240  16A7  30FF               	movlw	255
  7241  16A8  3DC3               	addwfc	__doprnt@width+1,f
  7242  16A9                     l690:	
  7243                           
  7244                           ;doprnt.c: 1381: if(width > c)
  7245  16A9  0844               	movf	__doprnt@c,w
  7246  16AA  00BA               	movwf	??__doprnt
  7247  16AB  01BB               	clrf	??__doprnt+1
  7248  16AC  1BBA               	btfsc	??__doprnt,7
  7249  16AD  03BB               	decf	??__doprnt+1,f
  7250  16AE  083B               	movf	??__doprnt+1,w
  7251  16AF  3A80               	xorlw	128
  7252  16B0  00BC               	movwf	??__doprnt+2
  7253  16B1  0843               	movf	__doprnt@width+1,w
  7254  16B2  3A80               	xorlw	128
  7255  16B3  023C               	subwf	??__doprnt+2,w
  7256  16B4  1D03               	skipz
  7257  16B5  2EB8               	goto	u4965
  7258  16B6  0842               	movf	__doprnt@width,w
  7259  16B7  023A               	subwf	??__doprnt,w
  7260  16B8                     u4965:	
  7261  16B8  1803               	skipnc
  7262  16B9  2EC5               	goto	l4976
  7263                           
  7264                           ;doprnt.c: 1382: width -= c;
  7265  16BA  0020               	movlb	0	; select bank0
  7266  16BB  0844               	movf	__doprnt@c,w
  7267  16BC  00BA               	movwf	??__doprnt
  7268  16BD  01BB               	clrf	??__doprnt+1
  7269  16BE  1BBA               	btfsc	??__doprnt,7
  7270  16BF  03BB               	decf	??__doprnt+1,f
  7271  16C0  083A               	movf	??__doprnt,w
  7272  16C1  02C2               	subwf	__doprnt@width,f
  7273  16C2  083B               	movf	??__doprnt+1,w
  7274  16C3  3BC3               	subwfb	__doprnt@width+1,f
  7275  16C4  2EC8               	goto	l4978
  7276  16C5                     l4976:	
  7277                           
  7278                           ;doprnt.c: 1383: else
  7279                           ;doprnt.c: 1384: width = 0;
  7280  16C5  0020               	movlb	0	; select bank0
  7281  16C6  01C2               	clrf	__doprnt@width
  7282  16C7  01C3               	clrf	__doprnt@width+1
  7283  16C8                     l4978:	
  7284                           
  7285                           ;doprnt.c: 1387: if(flag & 0x04) {
  7286  16C8  1D41               	btfss	__doprnt@flag,2
  7287  16C9  2F31               	goto	l5002
  7288                           
  7289                           ;doprnt.c: 1392: if(flag & 0x03)
  7290  16CA  0841               	movf	__doprnt@flag,w
  7291  16CB  3903               	andlw	3
  7292  16CC  1903               	btfsc	3,2
  7293  16CD  2EFA               	goto	l4990
  7294                           
  7295                           ;doprnt.c: 1393: if(pb->func) (pb->func('-')); else ((*pb->ptr++ = '-'));
  7296  16CE  0845               	movf	__doprnt@pb,w
  7297  16CF  3E02               	addlw	2
  7298  16D0  0086               	movwf	6
  7299  16D1  0187               	clrf	7
  7300  16D2  0016               	moviw fsr1++
  7301  16D3  0401               	iorwf	1,w
  7302  16D4  1903               	btfsc	3,2
  7303  16D5  2EE4               	goto	l4986
  7304  16D6  302D               	movlw	45
  7305  16D7  00BA               	movwf	??__doprnt
  7306  16D8  083A               	movf	??__doprnt,w
  7307  16D9  00A9               	movwf	putch@c
  7308  16DA  0845               	movf	__doprnt@pb,w
  7309  16DB  3E02               	addlw	2
  7310  16DC  0086               	movwf	6
  7311  16DD  0187               	clrf	7
  7312  16DE  3F41               	moviw [1]fsr1
  7313  16DF  008A               	movwf	10
  7314  16E0  3F40               	moviw [0]fsr1
  7315  16E1  000A               	callw
  7316  16E2  3195               	pagesel	$
  7317  16E3  2EFA               	goto	l4990
  7318  16E4                     l4986:	
  7319  16E4  0020               	movlb	0	; select bank0
  7320  16E5  0845               	movf	__doprnt@pb,w
  7321  16E6  0086               	movwf	6
  7322  16E7  0187               	clrf	7
  7323  16E8  3F40               	moviw [0]fsr1
  7324  16E9  00BA               	movwf	??__doprnt
  7325  16EA  3F41               	moviw [1]fsr1
  7326  16EB  00BB               	movwf	??__doprnt+1
  7327  16EC  083A               	movf	??__doprnt,w
  7328  16ED  0086               	movwf	6
  7329  16EE  083B               	movf	??__doprnt+1,w
  7330  16EF  0087               	movwf	7
  7331  16F0  302D               	movlw	45
  7332  16F1  0081               	movwf	1
  7333  16F2  0845               	movf	__doprnt@pb,w
  7334  16F3  0086               	movwf	6
  7335  16F4  0187               	clrf	7
  7336  16F5  3001               	movlw	1
  7337  16F6  0781               	addwf	1,f
  7338  16F7  3141               	addfsr 1,1
  7339  16F8  1803               	skipnc
  7340  16F9  0A81               	incf	1,f
  7341  16FA                     l4990:	
  7342                           
  7343                           ;doprnt.c: 1415: if(width)
  7344  16FA  0020               	movlb	0	; select bank0
  7345  16FB                     L7:	
  7346  16FB  0842               	movf	__doprnt@width,w
  7347  16FC  0443               	iorwf	__doprnt@width+1,w
  7348  16FD  1903               	btfsc	3,2
  7349  16FE  2F9A               	goto	l5024
  7350                           
  7351                           ;doprnt.c: 1417: if(pb->func) (pb->func('0')); else ((*pb->ptr++ = '0'));
  7352                           
  7353                           ;doprnt.c: 1416: do
  7354  16FF  0845               	movf	__doprnt@pb,w
  7355  1700  3E02               	addlw	2
  7356  1701  0086               	movwf	6
  7357  1702  0187               	clrf	7
  7358  1703  0016               	moviw fsr1++
  7359  1704  0401               	iorwf	1,w
  7360  1705  1903               	btfsc	3,2
  7361  1706  2F15               	goto	l4996
  7362  1707  3030               	movlw	48
  7363  1708  00BA               	movwf	??__doprnt
  7364  1709  083A               	movf	??__doprnt,w
  7365  170A  00A9               	movwf	putch@c
  7366  170B  0845               	movf	__doprnt@pb,w
  7367  170C  3E02               	addlw	2
  7368  170D  0086               	movwf	6
  7369  170E  0187               	clrf	7
  7370  170F  3F41               	moviw [1]fsr1
  7371  1710  008A               	movwf	10
  7372  1711  3F40               	moviw [0]fsr1
  7373  1712  000A               	callw
  7374  1713  3195               	pagesel	$
  7375  1714  2F2B               	goto	l5000
  7376  1715                     l4996:	
  7377  1715  0020               	movlb	0	; select bank0
  7378  1716  0845               	movf	__doprnt@pb,w
  7379  1717  0086               	movwf	6
  7380  1718  0187               	clrf	7
  7381  1719  3F40               	moviw [0]fsr1
  7382  171A  00BA               	movwf	??__doprnt
  7383  171B  3F41               	moviw [1]fsr1
  7384  171C  00BB               	movwf	??__doprnt+1
  7385  171D  083A               	movf	??__doprnt,w
  7386  171E  0086               	movwf	6
  7387  171F  083B               	movf	??__doprnt+1,w
  7388  1720  0087               	movwf	7
  7389  1721  3030               	movlw	48
  7390  1722  0081               	movwf	1
  7391  1723  0845               	movf	__doprnt@pb,w
  7392  1724  0086               	movwf	6
  7393  1725  0187               	clrf	7
  7394  1726  3001               	movlw	1
  7395  1727  0781               	addwf	1,f
  7396  1728  3141               	addfsr 1,1
  7397  1729  1803               	skipnc
  7398  172A  0A81               	incf	1,f
  7399  172B                     l5000:	
  7400                           
  7401                           ;doprnt.c: 1418: while(--width);
  7402  172B  30FF               	movlw	255
  7403  172C  0020               	movlb	0	; select bank0
  7404  172D  07C2               	addwf	__doprnt@width,f
  7405  172E  30FF               	movlw	255
  7406  172F  3DC3               	addwfc	__doprnt@width+1,f
  7407  1730  2EFB               	goto	L7
  7408  1731                     l5002:	
  7409                           ;doprnt.c: 1420: } else
  7410                           
  7411                           
  7412                           ;doprnt.c: 1422: {
  7413                           ;doprnt.c: 1424: if(width
  7414                           ;doprnt.c: 1428: )
  7415  1731  0842               	movf	__doprnt@width,w
  7416  1732  0443               	iorwf	__doprnt@width+1,w
  7417  1733  1903               	btfsc	3,2
  7418  1734  2F6A               	goto	l5014
  7419  1735                     l5004:	
  7420                           ;doprnt.c: 1429: do
  7421                           
  7422                           
  7423                           ;doprnt.c: 1430: if(pb->func) (pb->func(' ')); else ((*pb->ptr++ = ' '));
  7424  1735  0845               	movf	__doprnt@pb,w
  7425  1736  3E02               	addlw	2
  7426  1737  0086               	movwf	6
  7427  1738  0187               	clrf	7
  7428  1739  0016               	moviw fsr1++
  7429  173A  0401               	iorwf	1,w
  7430  173B  1903               	btfsc	3,2
  7431  173C  2F4B               	goto	l5008
  7432  173D  3020               	movlw	32
  7433  173E  00BA               	movwf	??__doprnt
  7434  173F  083A               	movf	??__doprnt,w
  7435  1740  00A9               	movwf	putch@c
  7436  1741  0845               	movf	__doprnt@pb,w
  7437  1742  3E02               	addlw	2
  7438  1743  0086               	movwf	6
  7439  1744  0187               	clrf	7
  7440  1745  3F41               	moviw [1]fsr1
  7441  1746  008A               	movwf	10
  7442  1747  3F40               	moviw [0]fsr1
  7443  1748  000A               	callw
  7444  1749  3195               	pagesel	$
  7445  174A  2F61               	goto	l5012
  7446  174B                     l5008:	
  7447  174B  0020               	movlb	0	; select bank0
  7448  174C  0845               	movf	__doprnt@pb,w
  7449  174D  0086               	movwf	6
  7450  174E  0187               	clrf	7
  7451  174F  3F40               	moviw [0]fsr1
  7452  1750  00BA               	movwf	??__doprnt
  7453  1751  3F41               	moviw [1]fsr1
  7454  1752  00BB               	movwf	??__doprnt+1
  7455  1753  083A               	movf	??__doprnt,w
  7456  1754  0086               	movwf	6
  7457  1755  083B               	movf	??__doprnt+1,w
  7458  1756  0087               	movwf	7
  7459  1757  3020               	movlw	32
  7460  1758  0081               	movwf	1
  7461  1759  0845               	movf	__doprnt@pb,w
  7462  175A  0086               	movwf	6
  7463  175B  0187               	clrf	7
  7464  175C  3001               	movlw	1
  7465  175D  0781               	addwf	1,f
  7466  175E  3141               	addfsr 1,1
  7467  175F  1803               	skipnc
  7468  1760  0A81               	incf	1,f
  7469  1761                     l5012:	
  7470                           
  7471                           ;doprnt.c: 1431: while(--width);
  7472  1761  30FF               	movlw	255
  7473  1762  0020               	movlb	0	; select bank0
  7474  1763  07C2               	addwf	__doprnt@width,f
  7475  1764  30FF               	movlw	255
  7476  1765  3DC3               	addwfc	__doprnt@width+1,f
  7477  1766  0842               	movf	__doprnt@width,w
  7478  1767  0443               	iorwf	__doprnt@width+1,w
  7479  1768  1D03               	btfss	3,2
  7480  1769  2F35               	goto	l5004
  7481  176A                     l5014:	
  7482                           
  7483                           ;doprnt.c: 1438: if(flag & 0x03)
  7484  176A  0841               	movf	__doprnt@flag,w
  7485  176B  3903               	andlw	3
  7486  176C  1903               	btfsc	3,2
  7487  176D  2F9A               	goto	l5024
  7488                           
  7489                           ;doprnt.c: 1439: if(pb->func) (pb->func('-')); else ((*pb->ptr++ = '-'));
  7490  176E  0845               	movf	__doprnt@pb,w
  7491  176F  3E02               	addlw	2
  7492  1770  0086               	movwf	6
  7493  1771  0187               	clrf	7
  7494  1772  0016               	moviw fsr1++
  7495  1773  0401               	iorwf	1,w
  7496  1774  1903               	btfsc	3,2
  7497  1775  2F84               	goto	l5020
  7498  1776  302D               	movlw	45
  7499  1777  00BA               	movwf	??__doprnt
  7500  1778  083A               	movf	??__doprnt,w
  7501  1779  00A9               	movwf	putch@c
  7502  177A  0845               	movf	__doprnt@pb,w
  7503  177B  3E02               	addlw	2
  7504  177C  0086               	movwf	6
  7505  177D  0187               	clrf	7
  7506  177E  3F41               	moviw [1]fsr1
  7507  177F  008A               	movwf	10
  7508  1780  3F40               	moviw [0]fsr1
  7509  1781  000A               	callw
  7510  1782  3195               	pagesel	$
  7511  1783  2F9A               	goto	l5024
  7512  1784                     l5020:	
  7513  1784  0020               	movlb	0	; select bank0
  7514  1785  0845               	movf	__doprnt@pb,w
  7515  1786  0086               	movwf	6
  7516  1787  0187               	clrf	7
  7517  1788  3F40               	moviw [0]fsr1
  7518  1789  00BA               	movwf	??__doprnt
  7519  178A  3F41               	moviw [1]fsr1
  7520  178B  00BB               	movwf	??__doprnt+1
  7521  178C  083A               	movf	??__doprnt,w
  7522  178D  0086               	movwf	6
  7523  178E  083B               	movf	??__doprnt+1,w
  7524  178F  0087               	movwf	7
  7525  1790  302D               	movlw	45
  7526  1791  0081               	movwf	1
  7527  1792  0845               	movf	__doprnt@pb,w
  7528  1793  0086               	movwf	6
  7529  1794  0187               	clrf	7
  7530  1795  3001               	movlw	1
  7531  1796  0781               	addwf	1,f
  7532  1797  3141               	addfsr 1,1
  7533  1798  1803               	skipnc
  7534  1799  0A81               	incf	1,f
  7535  179A                     l5024:	
  7536                           
  7537                           ;doprnt.c: 1469: }
  7538                           ;doprnt.c: 1472: prec = c;
  7539  179A  0020               	movlb	0	; select bank0
  7540  179B  0844               	movf	__doprnt@c,w
  7541  179C  00BA               	movwf	??__doprnt
  7542  179D  083A               	movf	??__doprnt,w
  7543  179E  00BE               	movwf	__doprnt@prec
  7544  179F                     l5036:	
  7545                           ;doprnt.c: 1474: while(prec--) {
  7546                           
  7547  179F  30FF               	movlw	255
  7548  17A0  0020               	movlb	0	; select bank0
  7549  17A1  00BA               	movwf	??__doprnt
  7550  17A2  083A               	movf	??__doprnt,w
  7551  17A3  07BE               	addwf	__doprnt@prec,f
  7552  17A4  0A3E               	incf	__doprnt@prec,w
  7553  17A5  1903               	btfsc	3,2
  7554  17A6  2DB7               	goto	l5038
  7555                           
  7556                           ;doprnt.c: 1478: {
  7557                           ;doprnt.c: 1489: c = (val / dpowers[prec]) % 10 + '0';
  7558  17A7  300A               	movlw	10
  7559  17A8  00B1               	movwf	___lwmod@divisor
  7560  17A9  3000               	movlw	0
  7561  17AA  00B2               	movwf	___lwmod@divisor+1
  7562  17AB  083E               	movf	__doprnt@prec,w
  7563  17AC  00BA               	movwf	??__doprnt
  7564  17AD  01BB               	clrf	??__doprnt+1
  7565  17AE  35BA               	lslf	??__doprnt,f
  7566  17AF  0DBB               	rlf	??__doprnt+1,f
  7567  17B0  3019               	movlw	low (_dpowers| (0+32768))
  7568  17B1  073A               	addwf	??__doprnt,w
  7569  17B2  0084               	movwf	4
  7570  17B3  3085               	movlw	high (_dpowers| (0+32768))
  7571  17B4  3D3B               	addwfc	??__doprnt+1,w
  7572  17B5  0085               	movwf	5
  7573  17B6  3F00               	moviw [0]fsr0
  7574  17B7  00A9               	movwf	___lwdiv@divisor
  7575  17B8  3F01               	moviw [1]fsr0
  7576  17B9  00AA               	movwf	___lwdiv@divisor+1
  7577  17BA  0840               	movf	__doprnt@val+1,w
  7578  17BB  00AC               	movwf	___lwdiv@dividend+1
  7579  17BC  083F               	movf	__doprnt@val,w
  7580  17BD  00AB               	movwf	___lwdiv@dividend
  7581  17BE  3190  200A  3195   	fcall	___lwdiv
  7582  17C1  0020               	movlb	0	; select bank0
  7583  17C2  082A               	movf	?___lwdiv+1,w
  7584  17C3  00B4               	movwf	___lwmod@dividend+1
  7585  17C4  0829               	movf	?___lwdiv,w
  7586  17C5  00B3               	movwf	___lwmod@dividend
  7587  17C6  319F  27A4  3195   	fcall	___lwmod
  7588  17C9  0020               	movlb	0	; select bank0
  7589  17CA  0831               	movf	?___lwmod,w
  7590  17CB  3E30               	addlw	48
  7591  17CC  00BC               	movwf	??__doprnt+2
  7592  17CD  083C               	movf	??__doprnt+2,w
  7593  17CE  00C4               	movwf	__doprnt@c
  7594                           
  7595                           ;doprnt.c: 1523: }
  7596                           ;doprnt.c: 1524: if(pb->func) (pb->func(c)); else ((*pb->ptr++ = c));
  7597  17CF  0845               	movf	__doprnt@pb,w
  7598  17D0  3E02               	addlw	2
  7599  17D1  0086               	movwf	6
  7600  17D2  0187               	clrf	7
  7601  17D3  0016               	moviw fsr1++
  7602  17D4  0401               	iorwf	1,w
  7603  17D5  1903               	btfsc	3,2
  7604  17D6  2FE5               	goto	l5032
  7605  17D7  0844               	movf	__doprnt@c,w
  7606  17D8  00BA               	movwf	??__doprnt
  7607  17D9  083A               	movf	??__doprnt,w
  7608  17DA  00A9               	movwf	putch@c
  7609  17DB  0845               	movf	__doprnt@pb,w
  7610  17DC  3E02               	addlw	2
  7611  17DD  0086               	movwf	6
  7612  17DE  0187               	clrf	7
  7613  17DF  3F41               	moviw [1]fsr1
  7614  17E0  008A               	movwf	10
  7615  17E1  3F40               	moviw [0]fsr1
  7616  17E2  000A               	callw
  7617  17E3  3195               	pagesel	$
  7618  17E4  2F9F               	goto	l5036
  7619  17E5                     l5032:	
  7620  17E5  0020               	movlb	0	; select bank0
  7621  17E6  0845               	movf	__doprnt@pb,w
  7622  17E7  0086               	movwf	6
  7623  17E8  0187               	clrf	7
  7624  17E9  3F40               	moviw [0]fsr1
  7625  17EA  00BA               	movwf	??__doprnt
  7626  17EB  3F41               	moviw [1]fsr1
  7627  17EC  00BB               	movwf	??__doprnt+1
  7628  17ED  083A               	movf	??__doprnt,w
  7629  17EE  0086               	movwf	6
  7630  17EF  083B               	movf	??__doprnt+1,w
  7631  17F0  0087               	movwf	7
  7632  17F1  0844               	movf	__doprnt@c,w
  7633  17F2  0081               	movwf	1
  7634  17F3  0845               	movf	__doprnt@pb,w
  7635  17F4  0086               	movwf	6
  7636  17F5  0187               	clrf	7
  7637  17F6  3001               	movlw	1
  7638  17F7  0781               	addwf	1,f
  7639  17F8  3141               	addfsr 1,1
  7640  17F9  1803               	skipnc
  7641  17FA  0A81               	incf	1,f
  7642  17FB  2F9F               	goto	l5036
  7643  17FC                     l5040:	
  7644                           ;doprnt.c: 1525: }
  7645                           ;doprnt.c: 1533: }
  7646                           ;doprnt.c: 1535: alldone:
  7647                           
  7648                           
  7649                           ;doprnt.c: 1540: return 0;
  7650  17FC  0020               	movlb	0	; select bank0
  7651  17FD  01B7               	clrf	?__doprnt
  7652  17FE  01B8               	clrf	?__doprnt+1
  7653  17FF  0008               	return
  7654  1800                     __end_of__doprnt:	
  7655                           
  7656                           	psect	text12
  7657  0002                     __ptext12:	
  7658 ;; *************** function _putch *****************
  7659 ;; Defined at:
  7660 ;;		line 7 in file "C:\Program Files (x86)\Microchip\xc8\v1.37\sources\common\putch.c"
  7661 ;; Parameters:    Size  Location     Type
  7662 ;;  c               1    9[BANK0 ] unsigned char 
  7663 ;; Auto vars:     Size  Location     Type
  7664 ;;		None
  7665 ;; Return value:  Size  Location     Type
  7666 ;;                  1    wreg      void 
  7667 ;; Registers used:
  7668 ;;		None
  7669 ;; Tracked objects:
  7670 ;;		On entry : 0/0
  7671 ;;		On exit  : 0/0
  7672 ;;		Unchanged: 0/0
  7673 ;; Data sizes:     COMMON   BANK0   BANK1   BANK2   BANK3   BANK4   BANK5   BANK6   BANK7   BANK8   BANK9  BANK10  BANK1
      +1  BANK12
  7674 ;;      Params:         0       1       0       0       0       0       0       0       0       0       0       0       
      +0       0
  7675 ;;      Locals:         0       0       0       0       0       0       0       0       0       0       0       0       
      +0       0
  7676 ;;      Temps:          0       0       0       0       0       0       0       0       0       0       0       0       
      +0       0
  7677 ;;      Totals:         0       1       0       0       0       0       0       0       0       0       0       0       
      +0       0
  7678 ;;Total ram usage:        1 bytes
  7679 ;; Hardware stack levels used:    1
  7680 ;; Hardware stack levels required when called:    3
  7681 ;; This function calls:
  7682 ;;		Nothing
  7683 ;; This function is called by:
  7684 ;;		_printf
  7685 ;;		__doprnt
  7686 ;; This function uses a non-reentrant model
  7687 ;;
  7688                           
  7689                           
  7690                           ;psect for function _putch
  7691  0002                     _putch:	
  7692                           
  7693                           ;incstack = 0
  7694                           ; Regs used in _putch: []
  7695  0002  0008               	return
  7696  0003                     __end_of_putch:	
  7697                           
  7698                           	psect	text13
  7699  1DD9                     __ptext13:	
  7700 ;; *************** function _isdigit *****************
  7701 ;; Defined at:
  7702 ;;		line 8 in file "C:\Program Files (x86)\Microchip\xc8\v1.37\sources\common\isdigit.c"
  7703 ;; Parameters:    Size  Location     Type
  7704 ;;  c               1    wreg     unsigned char 
  7705 ;; Auto vars:     Size  Location     Type
  7706 ;;  c               1   10[BANK0 ] unsigned char 
  7707 ;; Return value:  Size  Location     Type
  7708 ;;		None               void
  7709 ;; Registers used:
  7710 ;;		wreg, status,2, status,0
  7711 ;; Tracked objects:
  7712 ;;		On entry : 0/0
  7713 ;;		On exit  : 0/0
  7714 ;;		Unchanged: 0/0
  7715 ;; Data sizes:     COMMON   BANK0   BANK1   BANK2   BANK3   BANK4   BANK5   BANK6   BANK7   BANK8   BANK9  BANK10  BANK1
      +1  BANK12
  7716 ;;      Params:         0       0       0       0       0       0       0       0       0       0       0       0       
      +0       0
  7717 ;;      Locals:         0       2       0       0       0       0       0       0       0       0       0       0       
      +0       0
  7718 ;;      Temps:          0       0       0       0       0       0       0       0       0       0       0       0       
      +0       0
  7719 ;;      Totals:         0       2       0       0       0       0       0       0       0       0       0       0       
      +0       0
  7720 ;;Total ram usage:        2 bytes
  7721 ;; Hardware stack levels used:    1
  7722 ;; Hardware stack levels required when called:    3
  7723 ;; This function calls:
  7724 ;;		Nothing
  7725 ;; This function is called by:
  7726 ;;		__doprnt
  7727 ;; This function uses a non-reentrant model
  7728 ;;
  7729                           
  7730                           
  7731                           ;psect for function _isdigit
  7732  1DD9                     _isdigit:	
  7733                           
  7734                           ;incstack = 0
  7735                           ; Regs used in _isdigit: [wreg+status,2+status,0]
  7736                           ;isdigit@c stored from wreg
  7737  1DD9  0020               	movlb	0	; select bank0
  7738  1DDA  00AA               	movwf	isdigit@c
  7739  1DDB  01A9               	clrf	_isdigit$1478
  7740  1DDC  303A               	movlw	58
  7741  1DDD  022A               	subwf	isdigit@c,w
  7742  1DDE  1803               	skipnc
  7743  1DDF  2DE6               	goto	l4828
  7744  1DE0  3030               	movlw	48
  7745  1DE1  022A               	subwf	isdigit@c,w
  7746  1DE2  1C03               	skipc
  7747  1DE3  2DE6               	goto	l4828
  7748  1DE4  01A9               	clrf	_isdigit$1478
  7749  1DE5  0AA9               	incf	_isdigit$1478,f
  7750  1DE6                     l4828:	
  7751  1DE6  0C29               	rrf	_isdigit$1478,w
  7752  1DE7  0008               	return
  7753  1DE8                     __end_of_isdigit:	
  7754                           
  7755                           	psect	text14
  7756  1FA4                     __ptext14:	
  7757 ;; *************** function ___lwmod *****************
  7758 ;; Defined at:
  7759 ;;		line 6 in file "C:\Program Files (x86)\Microchip\xc8\v1.37\sources\common\lwmod.c"
  7760 ;; Parameters:    Size  Location     Type
  7761 ;;  divisor         2   17[BANK0 ] unsigned int 
  7762 ;;  dividend        2   19[BANK0 ] unsigned int 
  7763 ;; Auto vars:     Size  Location     Type
  7764 ;;  counter         1   22[BANK0 ] unsigned char 
  7765 ;; Return value:  Size  Location     Type
  7766 ;;                  2   17[BANK0 ] unsigned int 
  7767 ;; Registers used:
  7768 ;;		wreg, status,2, status,0
  7769 ;; Tracked objects:
  7770 ;;		On entry : 0/0
  7771 ;;		On exit  : 0/0
  7772 ;;		Unchanged: 0/0
  7773 ;; Data sizes:     COMMON   BANK0   BANK1   BANK2   BANK3   BANK4   BANK5   BANK6   BANK7   BANK8   BANK9  BANK10  BANK1
      +1  BANK12
  7774 ;;      Params:         0       4       0       0       0       0       0       0       0       0       0       0       
      +0       0
  7775 ;;      Locals:         0       1       0       0       0       0       0       0       0       0       0       0       
      +0       0
  7776 ;;      Temps:          0       1       0       0       0       0       0       0       0       0       0       0       
      +0       0
  7777 ;;      Totals:         0       6       0       0       0       0       0       0       0       0       0       0       
      +0       0
  7778 ;;Total ram usage:        6 bytes
  7779 ;; Hardware stack levels used:    1
  7780 ;; Hardware stack levels required when called:    3
  7781 ;; This function calls:
  7782 ;;		Nothing
  7783 ;; This function is called by:
  7784 ;;		__doprnt
  7785 ;; This function uses a non-reentrant model
  7786 ;;
  7787                           
  7788                           
  7789                           ;psect for function ___lwmod
  7790  1FA4                     ___lwmod:	
  7791                           
  7792                           ;incstack = 0
  7793                           ; Regs used in ___lwmod: [wreg+status,2+status,0]
  7794  1FA4  0020               	movlb	0	; select bank0
  7795  1FA5  0831               	movf	___lwmod@divisor,w
  7796  1FA6  0432               	iorwf	___lwmod@divisor+1,w
  7797  1FA7  1903               	btfsc	3,2
  7798  1FA8  2FCC               	goto	l4890
  7799  1FA9  01B6               	clrf	___lwmod@counter
  7800  1FAA  0AB6               	incf	___lwmod@counter,f
  7801  1FAB                     l4880:	
  7802  1FAB  1BB2               	btfsc	___lwmod@divisor+1,7
  7803  1FAC  2FB7               	goto	l4882
  7804  1FAD  3001               	movlw	1
  7805  1FAE                     u4795:	
  7806  1FAE  35B1               	lslf	___lwmod@divisor,f
  7807  1FAF  0DB2               	rlf	___lwmod@divisor+1,f
  7808  1FB0  0B89               	decfsz	9,f
  7809  1FB1  2FAE               	goto	u4795
  7810  1FB2  3001               	movlw	1
  7811  1FB3  00B5               	movwf	??___lwmod
  7812  1FB4  0835               	movf	??___lwmod,w
  7813  1FB5  07B6               	addwf	___lwmod@counter,f
  7814  1FB6  2FAB               	goto	l4880
  7815  1FB7                     l4882:	
  7816  1FB7  0832               	movf	___lwmod@divisor+1,w
  7817  1FB8  0234               	subwf	___lwmod@dividend+1,w
  7818  1FB9  1D03               	skipz
  7819  1FBA  2FBD               	goto	u4815
  7820  1FBB  0831               	movf	___lwmod@divisor,w
  7821  1FBC  0233               	subwf	___lwmod@dividend,w
  7822  1FBD                     u4815:	
  7823  1FBD  1C03               	skipc
  7824  1FBE  2FC3               	goto	l4886
  7825  1FBF  0831               	movf	___lwmod@divisor,w
  7826  1FC0  02B3               	subwf	___lwmod@dividend,f
  7827  1FC1  0832               	movf	___lwmod@divisor+1,w
  7828  1FC2  3BB4               	subwfb	___lwmod@dividend+1,f
  7829  1FC3                     l4886:	
  7830  1FC3  3001               	movlw	1
  7831  1FC4                     u4825:	
  7832  1FC4  36B2               	lsrf	___lwmod@divisor+1,f
  7833  1FC5  0CB1               	rrf	___lwmod@divisor,f
  7834  1FC6  0B89               	decfsz	9,f
  7835  1FC7  2FC4               	goto	u4825
  7836  1FC8  3001               	movlw	1
  7837  1FC9  02B6               	subwf	___lwmod@counter,f
  7838  1FCA  1D03               	btfss	3,2
  7839  1FCB  2FB7               	goto	l4882
  7840  1FCC                     l4890:	
  7841  1FCC  0834               	movf	___lwmod@dividend+1,w
  7842  1FCD  00B2               	movwf	?___lwmod+1
  7843  1FCE  0833               	movf	___lwmod@dividend,w
  7844  1FCF  00B1               	movwf	?___lwmod
  7845  1FD0  0008               	return
  7846  1FD1                     __end_of___lwmod:	
  7847                           
  7848                           	psect	text15
  7849  100A                     __ptext15:	
  7850 ;; *************** function ___lwdiv *****************
  7851 ;; Defined at:
  7852 ;;		line 6 in file "C:\Program Files (x86)\Microchip\xc8\v1.37\sources\common\lwdiv.c"
  7853 ;; Parameters:    Size  Location     Type
  7854 ;;  divisor         2    9[BANK0 ] unsigned int 
  7855 ;;  dividend        2   11[BANK0 ] unsigned int 
  7856 ;; Auto vars:     Size  Location     Type
  7857 ;;  quotient        2   15[BANK0 ] unsigned int 
  7858 ;;  counter         1   14[BANK0 ] unsigned char 
  7859 ;; Return value:  Size  Location     Type
  7860 ;;                  2    9[BANK0 ] unsigned int 
  7861 ;; Registers used:
  7862 ;;		wreg, status,2, status,0
  7863 ;; Tracked objects:
  7864 ;;		On entry : 0/0
  7865 ;;		On exit  : 0/0
  7866 ;;		Unchanged: 0/0
  7867 ;; Data sizes:     COMMON   BANK0   BANK1   BANK2   BANK3   BANK4   BANK5   BANK6   BANK7   BANK8   BANK9  BANK10  BANK1
      +1  BANK12
  7868 ;;      Params:         0       4       0       0       0       0       0       0       0       0       0       0       
      +0       0
  7869 ;;      Locals:         0       3       0       0       0       0       0       0       0       0       0       0       
      +0       0
  7870 ;;      Temps:          0       1       0       0       0       0       0       0       0       0       0       0       
      +0       0
  7871 ;;      Totals:         0       8       0       0       0       0       0       0       0       0       0       0       
      +0       0
  7872 ;;Total ram usage:        8 bytes
  7873 ;; Hardware stack levels used:    1
  7874 ;; Hardware stack levels required when called:    3
  7875 ;; This function calls:
  7876 ;;		Nothing
  7877 ;; This function is called by:
  7878 ;;		__doprnt
  7879 ;; This function uses a non-reentrant model
  7880 ;;
  7881                           
  7882                           
  7883                           ;psect for function ___lwdiv
  7884  100A                     ___lwdiv:	
  7885                           
  7886                           ;incstack = 0
  7887                           ; Regs used in ___lwdiv: [wreg+status,2+status,0]
  7888  100A  0020               	movlb	0	; select bank0
  7889  100B  01AF               	clrf	___lwdiv@quotient
  7890  100C  01B0               	clrf	___lwdiv@quotient+1
  7891  100D  0829               	movf	___lwdiv@divisor,w
  7892  100E  042A               	iorwf	___lwdiv@divisor+1,w
  7893  100F  1903               	btfsc	3,2
  7894  1010  283A               	goto	l4868
  7895  1011  01AE               	clrf	___lwdiv@counter
  7896  1012  0AAE               	incf	___lwdiv@counter,f
  7897  1013                     l4856:	
  7898  1013  1BAA               	btfsc	___lwdiv@divisor+1,7
  7899  1014  281F               	goto	l4858
  7900  1015  3001               	movlw	1
  7901  1016                     u4725:	
  7902  1016  35A9               	lslf	___lwdiv@divisor,f
  7903  1017  0DAA               	rlf	___lwdiv@divisor+1,f
  7904  1018  0B89               	decfsz	9,f
  7905  1019  2816               	goto	u4725
  7906  101A  3001               	movlw	1
  7907  101B  00AD               	movwf	??___lwdiv
  7908  101C  082D               	movf	??___lwdiv,w
  7909  101D  07AE               	addwf	___lwdiv@counter,f
  7910  101E  2813               	goto	l4856
  7911  101F                     l4858:	
  7912  101F  3001               	movlw	1
  7913  1020                     u4745:	
  7914  1020  35AF               	lslf	___lwdiv@quotient,f
  7915  1021  0DB0               	rlf	___lwdiv@quotient+1,f
  7916  1022  0B89               	decfsz	9,f
  7917  1023  2820               	goto	u4745
  7918  1024  082A               	movf	___lwdiv@divisor+1,w
  7919  1025  022C               	subwf	___lwdiv@dividend+1,w
  7920  1026  1D03               	skipz
  7921  1027  282A               	goto	u4755
  7922  1028  0829               	movf	___lwdiv@divisor,w
  7923  1029  022B               	subwf	___lwdiv@dividend,w
  7924  102A                     u4755:	
  7925  102A  1C03               	skipc
  7926  102B  2831               	goto	l4864
  7927  102C  0829               	movf	___lwdiv@divisor,w
  7928  102D  02AB               	subwf	___lwdiv@dividend,f
  7929  102E  082A               	movf	___lwdiv@divisor+1,w
  7930  102F  3BAC               	subwfb	___lwdiv@dividend+1,f
  7931  1030  142F               	bsf	___lwdiv@quotient,0
  7932  1031                     l4864:	
  7933  1031  3001               	movlw	1
  7934  1032                     u4765:	
  7935  1032  36AA               	lsrf	___lwdiv@divisor+1,f
  7936  1033  0CA9               	rrf	___lwdiv@divisor,f
  7937  1034  0B89               	decfsz	9,f
  7938  1035  2832               	goto	u4765
  7939  1036  3001               	movlw	1
  7940  1037  02AE               	subwf	___lwdiv@counter,f
  7941  1038  1D03               	btfss	3,2
  7942  1039  281F               	goto	l4858
  7943  103A                     l4868:	
  7944  103A  0830               	movf	___lwdiv@quotient+1,w
  7945  103B  00AA               	movwf	?___lwdiv+1
  7946  103C  082F               	movf	___lwdiv@quotient,w
  7947  103D  00A9               	movwf	?___lwdiv
  7948  103E  0008               	return
  7949  103F                     __end_of___lwdiv:	
  7950                           
  7951                           	psect	text16
  7952  1E45                     __ptext16:	
  7953 ;; *************** function _LCDString *****************
  7954 ;; Defined at:
  7955 ;;		line 219 in file "Nokia5110/Nokia.c"
  7956 ;; Parameters:    Size  Location     Type
  7957 ;;  characters      2   28[BANK0 ] PTR unsigned char 
  7958 ;;		 -> STR_19(17), STR_18(17), STR_17(17), STR_16(17), 
  7959 ;;		 -> STR_15(18), STR_13(18), STR_12(17), STR_11(17), 
  7960 ;;		 -> RAM(4096), STR_6(11), STR_5(10), STR_4(7), 
  7961 ;;		 -> STR_3(3), STR_2(6), 
  7962 ;; Auto vars:     Size  Location     Type
  7963 ;;		None
  7964 ;; Return value:  Size  Location     Type
  7965 ;;                  1    wreg      void 
  7966 ;; Registers used:
  7967 ;;		wreg, fsr0l, fsr0h, status,2, status,0, pclath, cstack
  7968 ;; Tracked objects:
  7969 ;;		On entry : 0/0
  7970 ;;		On exit  : 0/0
  7971 ;;		Unchanged: 0/0
  7972 ;; Data sizes:     COMMON   BANK0   BANK1   BANK2   BANK3   BANK4   BANK5   BANK6   BANK7   BANK8   BANK9  BANK10  BANK1
      +1  BANK12
  7973 ;;      Params:         0       2       0       0       0       0       0       0       0       0       0       0       
      +0       0
  7974 ;;      Locals:         0       0       0       0       0       0       0       0       0       0       0       0       
      +0       0
  7975 ;;      Temps:          0       1       0       0       0       0       0       0       0       0       0       0       
      +0       0
  7976 ;;      Totals:         0       3       0       0       0       0       0       0       0       0       0       0       
      +0       0
  7977 ;;Total ram usage:        3 bytes
  7978 ;; Hardware stack levels used:    1
  7979 ;; Hardware stack levels required when called:    5
  7980 ;; This function calls:
  7981 ;;		_LCDCharacter
  7982 ;; This function is called by:
  7983 ;;		_main
  7984 ;;		_SenseTestStrip
  7985 ;; This function uses a non-reentrant model
  7986 ;;
  7987                           
  7988                           
  7989                           ;psect for function _LCDString
  7990  1E45                     _LCDString:	
  7991  1E45                     l5272:	
  7992                           ;Nokia.c: 220: while (*characters)
  7993                           
  7994                           ;incstack = 0
  7995                           ; Regs used in _LCDString: [wreg-fsr0h+status,2+status,0+pclath+cstack]
  7996                           
  7997  1E45  0020               	movlb	0	; select bank0
  7998  1E46  083C               	movf	LCDString@characters,w
  7999  1E47  0084               	movwf	4
  8000  1E48  083D               	movf	LCDString@characters+1,w
  8001  1E49  0085               	movwf	5
  8002  1E4A  0012               	moviw fsr0++
  8003  1E4B  1903               	btfsc	3,2
  8004  1E4C  0008               	return
  8005                           
  8006                           ;Nokia.c: 221: LCDCharacter(*characters++);
  8007  1E4D  0020               	movlb	0	; select bank0
  8008  1E4E  083C               	movf	LCDString@characters,w
  8009  1E4F  0084               	movwf	4
  8010  1E50  083D               	movf	LCDString@characters+1,w
  8011  1E51  0085               	movwf	5
  8012  1E52  0800               	movf	0,w	;code access
  8013  1E53  3191  21E9  319E   	fcall	_LCDCharacter
  8014  1E56  3001               	movlw	1
  8015  1E57  0020               	movlb	0	; select bank0
  8016  1E58  07BC               	addwf	LCDString@characters,f
  8017  1E59  3000               	movlw	0
  8018  1E5A  3DBD               	addwfc	LCDString@characters+1,f
  8019  1E5B  2E45               	goto	l5272
  8020  1E5C                     __end_of_LCDString:	
  8021                           
  8022                           	psect	text17
  8023  11E9                     __ptext17:	
  8024 ;; *************** function _LCDCharacter *****************
  8025 ;; Defined at:
  8026 ;;		line 202 in file "Nokia5110/Nokia.c"
  8027 ;; Parameters:    Size  Location     Type
  8028 ;;  character       1    wreg     unsigned char 
  8029 ;; Auto vars:     Size  Location     Type
  8030 ;;  character       1   25[BANK0 ] unsigned char 
  8031 ;;  index           2   26[BANK0 ] int 
  8032 ;; Return value:  Size  Location     Type
  8033 ;;                  1    wreg      void 
  8034 ;; Registers used:
  8035 ;;		wreg, fsr0l, fsr0h, status,2, status,0, pclath, cstack
  8036 ;; Tracked objects:
  8037 ;;		On entry : 0/0
  8038 ;;		On exit  : 0/0
  8039 ;;		Unchanged: 0/0
  8040 ;; Data sizes:     COMMON   BANK0   BANK1   BANK2   BANK3   BANK4   BANK5   BANK6   BANK7   BANK8   BANK9  BANK10  BANK1
      +1  BANK12
  8041 ;;      Params:         0       0       0       0       0       0       0       0       0       0       0       0       
      +0       0
  8042 ;;      Locals:         0       3       0       0       0       0       0       0       0       0       0       0       
      +0       0
  8043 ;;      Temps:          0       5       0       0       0       0       0       0       0       0       0       0       
      +0       0
  8044 ;;      Totals:         0       8       0       0       0       0       0       0       0       0       0       0       
      +0       0
  8045 ;;Total ram usage:        8 bytes
  8046 ;; Hardware stack levels used:    1
  8047 ;; Hardware stack levels required when called:    4
  8048 ;; This function calls:
  8049 ;;		_LCDWrite
  8050 ;;		___wmul
  8051 ;; This function is called by:
  8052 ;;		_LCDString
  8053 ;; This function uses a non-reentrant model
  8054 ;;
  8055                           
  8056                           
  8057                           ;psect for function _LCDCharacter
  8058  11E9                     _LCDCharacter:	
  8059                           
  8060                           ;incstack = 0
  8061                           ; Regs used in _LCDCharacter: [wreg-fsr0h+status,2+status,0+pclath+cstack]
  8062                           ;LCDCharacter@character stored from wreg
  8063  11E9  0020               	movlb	0	; select bank0
  8064  11EA  00B9               	movwf	LCDCharacter@character
  8065                           
  8066                           ;Nokia.c: 203: LCDWrite(1, 0x00);
  8067  11EB  01AF               	clrf	LCDWrite@data
  8068  11EC  3001               	movlw	1
  8069  11ED  319F  27D1  3191   	fcall	_LCDWrite
  8070                           
  8071                           ;Nokia.c: 205: for (int index = 0 ; index < 5 ; index++)
  8072  11F0  0020               	movlb	0	; select bank0
  8073  11F1  01BA               	clrf	LCDCharacter@index
  8074  11F2  01BB               	clrf	LCDCharacter@index+1
  8075  11F3  083B               	movf	LCDCharacter@index+1,w
  8076  11F4  3A80               	xorlw	128
  8077  11F5  00B4               	movwf	??_LCDCharacter
  8078  11F6  3080               	movlw	128
  8079  11F7  0234               	subwf	??_LCDCharacter,w
  8080  11F8  1D03               	skipz
  8081  11F9  29FC               	goto	u4845
  8082  11FA  3005               	movlw	5
  8083  11FB  023A               	subwf	LCDCharacter@index,w
  8084  11FC                     u4845:	
  8085  11FC  1803               	btfsc	3,0
  8086  11FD  2A36               	goto	l4910
  8087  11FE                     l4904:	
  8088                           
  8089                           ;Nokia.c: 206: LCDWrite(1, ASCII[character - 0x20][index]);
  8090  11FE  0020               	movlb	0	; select bank0
  8091  11FF  0839               	movf	LCDCharacter@character,w
  8092  1200  3EE0               	addlw	224
  8093  1201  00A9               	movwf	___wmul@multiplier
  8094  1202  30FF               	movlw	255
  8095  1203  1803               	skipnc
  8096  1204  3000               	movlw	0
  8097  1205  00AA               	movwf	___wmul@multiplier+1
  8098  1206  3005               	movlw	5
  8099  1207  00AB               	movwf	___wmul@multiplicand
  8100  1208  3000               	movlw	0
  8101  1209  00AC               	movwf	___wmul@multiplicand+1
  8102  120A  319E  268E  3191   	fcall	___wmul
  8103  120D  3035               	movlw	low (_ASCII| (0+32768))
  8104  120E  0020               	movlb	0	; select bank0
  8105  120F  00B4               	movwf	??_LCDCharacter
  8106  1210  3082               	movlw	high (_ASCII| (0+32768))
  8107  1211  00B5               	movwf	??_LCDCharacter+1
  8108  1212  0829               	movf	?___wmul,w
  8109  1213  0734               	addwf	??_LCDCharacter,w
  8110  1214  00B6               	movwf	??_LCDCharacter+2
  8111  1215  082A               	movf	?___wmul+1,w
  8112  1216  3D35               	addwfc	??_LCDCharacter+1,w
  8113  1217  00B7               	movwf	??_LCDCharacter+3
  8114  1218  0836               	movf	??_LCDCharacter+2,w
  8115  1219  073A               	addwf	LCDCharacter@index,w
  8116  121A  0084               	movwf	4
  8117  121B  0837               	movf	??_LCDCharacter+3,w
  8118  121C  3D3B               	addwfc	LCDCharacter@index+1,w
  8119  121D  0085               	movwf	5
  8120  121E  0800               	movf	0,w	;code access
  8121  121F  00B8               	movwf	??_LCDCharacter+4
  8122  1220  0838               	movf	??_LCDCharacter+4,w
  8123  1221  00AF               	movwf	LCDWrite@data
  8124  1222  3001               	movlw	1
  8125  1223  319F  27D1  3191   	fcall	_LCDWrite
  8126  1226  3001               	movlw	1
  8127  1227  0020               	movlb	0	; select bank0
  8128  1228  07BA               	addwf	LCDCharacter@index,f
  8129  1229  3000               	movlw	0
  8130  122A  3DBB               	addwfc	LCDCharacter@index+1,f
  8131  122B  083B               	movf	LCDCharacter@index+1,w
  8132  122C  3A80               	xorlw	128
  8133  122D  00B4               	movwf	??_LCDCharacter
  8134  122E  3080               	movlw	128
  8135  122F  0234               	subwf	??_LCDCharacter,w
  8136  1230  1D03               	skipz
  8137  1231  2A34               	goto	u4855
  8138  1232  3005               	movlw	5
  8139  1233  023A               	subwf	LCDCharacter@index,w
  8140  1234                     u4855:	
  8141  1234  1C03               	skipc
  8142  1235  29FE               	goto	l4904
  8143  1236                     l4910:	
  8144                           
  8145                           ;Nokia.c: 209: LCDWrite(1, 0x00);
  8146  1236  0020               	movlb	0	; select bank0
  8147  1237  01AF               	clrf	LCDWrite@data
  8148  1238  3001               	movlw	1
  8149  1239  319F  27D1         	fcall	_LCDWrite
  8150  123B  0008               	return
  8151  123C                     __end_of_LCDCharacter:	
  8152                           
  8153                           	psect	text18
  8154  1E8E                     __ptext18:	
  8155 ;; *************** function ___wmul *****************
  8156 ;; Defined at:
  8157 ;;		line 15 in file "C:\Program Files (x86)\Microchip\xc8\v1.37\sources\common\Umul16.c"
  8158 ;; Parameters:    Size  Location     Type
  8159 ;;  multiplier      2    9[BANK0 ] unsigned int 
  8160 ;;  multiplicand    2   11[BANK0 ] unsigned int 
  8161 ;; Auto vars:     Size  Location     Type
  8162 ;;  product         2   13[BANK0 ] unsigned int 
  8163 ;; Return value:  Size  Location     Type
  8164 ;;                  2    9[BANK0 ] unsigned int 
  8165 ;; Registers used:
  8166 ;;		wreg, status,2, status,0
  8167 ;; Tracked objects:
  8168 ;;		On entry : 0/0
  8169 ;;		On exit  : 0/0
  8170 ;;		Unchanged: 0/0
  8171 ;; Data sizes:     COMMON   BANK0   BANK1   BANK2   BANK3   BANK4   BANK5   BANK6   BANK7   BANK8   BANK9  BANK10  BANK1
      +1  BANK12
  8172 ;;      Params:         0       4       0       0       0       0       0       0       0       0       0       0       
      +0       0
  8173 ;;      Locals:         0       2       0       0       0       0       0       0       0       0       0       0       
      +0       0
  8174 ;;      Temps:          0       0       0       0       0       0       0       0       0       0       0       0       
      +0       0
  8175 ;;      Totals:         0       6       0       0       0       0       0       0       0       0       0       0       
      +0       0
  8176 ;;Total ram usage:        6 bytes
  8177 ;; Hardware stack levels used:    1
  8178 ;; Hardware stack levels required when called:    3
  8179 ;; This function calls:
  8180 ;;		Nothing
  8181 ;; This function is called by:
  8182 ;;		_LCDCharacter
  8183 ;;		__doprnt
  8184 ;;		_LCDBigNum
  8185 ;; This function uses a non-reentrant model
  8186 ;;
  8187                           
  8188                           
  8189                           ;psect for function ___wmul
  8190  1E8E                     ___wmul:	
  8191                           
  8192                           ;incstack = 0
  8193                           ; Regs used in ___wmul: [wreg+status,2+status,0]
  8194  1E8E  0020               	movlb	0	; select bank0
  8195  1E8F  01AD               	clrf	___wmul@product
  8196  1E90  01AE               	clrf	___wmul@product+1
  8197  1E91                     l4834:	
  8198  1E91  1C29               	btfss	___wmul@multiplier,0
  8199  1E92  2E97               	goto	l842
  8200  1E93  082B               	movf	___wmul@multiplicand,w
  8201  1E94  07AD               	addwf	___wmul@product,f
  8202  1E95  082C               	movf	___wmul@multiplicand+1,w
  8203  1E96  3DAE               	addwfc	___wmul@product+1,f
  8204  1E97                     l842:	
  8205  1E97  3001               	movlw	1
  8206  1E98                     u4685:	
  8207  1E98  35AB               	lslf	___wmul@multiplicand,f
  8208  1E99  0DAC               	rlf	___wmul@multiplicand+1,f
  8209  1E9A  0B89               	decfsz	9,f
  8210  1E9B  2E98               	goto	u4685
  8211  1E9C  3001               	movlw	1
  8212  1E9D                     u4695:	
  8213  1E9D  36AA               	lsrf	___wmul@multiplier+1,f
  8214  1E9E  0CA9               	rrf	___wmul@multiplier,f
  8215  1E9F  0B89               	decfsz	9,f
  8216  1EA0  2E9D               	goto	u4695
  8217  1EA1  0829               	movf	___wmul@multiplier,w
  8218  1EA2  042A               	iorwf	___wmul@multiplier+1,w
  8219  1EA3  1D03               	btfss	3,2
  8220  1EA4  2E91               	goto	l4834
  8221  1EA5  082E               	movf	___wmul@product+1,w
  8222  1EA6  00AA               	movwf	?___wmul+1
  8223  1EA7  082D               	movf	___wmul@product,w
  8224  1EA8  00A9               	movwf	?___wmul
  8225  1EA9  0008               	return
  8226  1EAA                     __end_of___wmul:	
  8227                           
  8228                           	psect	text19
  8229  0801                     __ptext19:	
  8230 ;; *************** function _EnterDeepSleep *****************
  8231 ;; Defined at:
  8232 ;;		line 443 in file "glucose_meter_main.c"
  8233 ;; Parameters:    Size  Location     Type
  8234 ;;		None
  8235 ;; Auto vars:     Size  Location     Type
  8236 ;;		None
  8237 ;; Return value:  Size  Location     Type
  8238 ;;                  1    wreg      void 
  8239 ;; Registers used:
  8240 ;;		wreg, status,2
  8241 ;; Tracked objects:
  8242 ;;		On entry : 0/0
  8243 ;;		On exit  : 0/0
  8244 ;;		Unchanged: 0/0
  8245 ;; Data sizes:     COMMON   BANK0   BANK1   BANK2   BANK3   BANK4   BANK5   BANK6   BANK7   BANK8   BANK9  BANK10  BANK1
      +1  BANK12
  8246 ;;      Params:         0       0       0       0       0       0       0       0       0       0       0       0       
      +0       0
  8247 ;;      Locals:         0       0       0       0       0       0       0       0       0       0       0       0       
      +0       0
  8248 ;;      Temps:          0       0       0       0       0       0       0       0       0       0       0       0       
      +0       0
  8249 ;;      Totals:         0       0       0       0       0       0       0       0       0       0       0       0       
      +0       0
  8250 ;;Total ram usage:        0 bytes
  8251 ;; Hardware stack levels used:    1
  8252 ;; Hardware stack levels required when called:    3
  8253 ;; This function calls:
  8254 ;;		Nothing
  8255 ;; This function is called by:
  8256 ;;		_main
  8257 ;;		_SenseTestStrip
  8258 ;; This function uses a non-reentrant model
  8259 ;;
  8260                           
  8261                           
  8262                           ;psect for function _EnterDeepSleep
  8263  0801                     _EnterDeepSleep:	
  8264                           
  8265                           ;glucose_meter_main.c: 445: gSleepMode = 1;
  8266                           
  8267                           ;incstack = 0
  8268                           ; Regs used in _EnterDeepSleep: [wreg+status,2]
  8269  0801  0020               	movlb	0	; select bank0
  8270  0802  01E6               	clrf	_gSleepMode
  8271  0803  0AE6               	incf	_gSleepMode,f
  8272                           
  8273                           ;glucose_meter_main.c: 446: gStripInserted = 0;
  8274  0804  0021               	movlb	1	; select bank1
  8275  0805  01CC               	clrf	_gStripInserted^(0+128)
  8276                           
  8277                           ;glucose_meter_main.c: 447: gStripRemoved = 0;
  8278  0806  01FB               	clrf	_gStripRemoved
  8279                           
  8280                           ;glucose_meter_main.c: 448: gBloodNotInsetrted = 0;
  8281  0807  01C3               	clrf	_gBloodNotInsetrted^(0+128)
  8282                           
  8283                           ;glucose_meter_main.c: 449: gSigmaGlucoseValue = 0;
  8284  0808  3000               	movlw	0
  8285  0809  00A7               	movwf	(_gSigmaGlucoseValue+3)^(0+128)
  8286  080A  3000               	movlw	0
  8287  080B  00A6               	movwf	(_gSigmaGlucoseValue+2)^(0+128)
  8288  080C  3000               	movlw	0
  8289  080D  00A5               	movwf	(_gSigmaGlucoseValue+1)^(0+128)
  8290  080E  3000               	movlw	0
  8291  080F  00A4               	movwf	_gSigmaGlucoseValue^(0+128)
  8292                           
  8293                           ;glucose_meter_main.c: 450: FVRCONbits.FVREN = 0;
  8294  0810  0022               	movlb	2	; select bank2
  8295  0811  1397               	bcf	23,7	;volatile
  8296                           
  8297                           ;glucose_meter_main.c: 451: LATB1 = 0;
  8298  0812  108D               	bcf	13,1	;volatile
  8299                           
  8300                           ;glucose_meter_main.c: 452: TRISC = 0xFC;
  8301  0813  30FC               	movlw	252
  8302  0814  0021               	movlb	1	; select bank1
  8303  0815  008E               	movwf	14	;volatile
  8304                           
  8305                           ;glucose_meter_main.c: 456: LATBbits.LATB7 = 0;
  8306  0816  0022               	movlb	2	; select bank2
  8307  0817  138D               	bcf	13,7	;volatile
  8308                           
  8309                           ;glucose_meter_main.c: 457: LATBbits.LATB6 = 0;
  8310  0818  130D               	bcf	13,6	;volatile
  8311                           
  8312                           ;glucose_meter_main.c: 458: LATBbits.LATB5 = 0;
  8313  0819  128D               	bcf	13,5	;volatile
  8314                           
  8315                           ;glucose_meter_main.c: 459: LATBbits.LATB1 = 0;
  8316  081A  108D               	bcf	13,1	;volatile
  8317                           
  8318                           ;glucose_meter_main.c: 461: TRISBbits.TRISB7 = 1;
  8319  081B  0021               	movlb	1	; select bank1
  8320  081C  178D               	bsf	13,7	;volatile
  8321                           
  8322                           ;glucose_meter_main.c: 462: TRISBbits.TRISB6 = 1;
  8323  081D  170D               	bsf	13,6	;volatile
  8324                           
  8325                           ;glucose_meter_main.c: 463: TRISBbits.TRISB5 = 1;
  8326  081E  168D               	bsf	13,5	;volatile
  8327                           
  8328                           ;glucose_meter_main.c: 464: TRISBbits.TRISB1 = 1;
  8329  081F  148D               	bsf	13,1	;volatile
  8330                           
  8331                           ;glucose_meter_main.c: 466: LATAbits.LATA7 = 0;
  8332  0820  0022               	movlb	2	; select bank2
  8333  0821  138C               	bcf	12,7	;volatile
  8334                           
  8335                           ;glucose_meter_main.c: 467: LATAbits.LATA6 = 0;
  8336  0822  130C               	bcf	12,6	;volatile
  8337                           
  8338                           ;glucose_meter_main.c: 468: TRISAbits.TRISA7 = 1;
  8339  0823  0021               	movlb	1	; select bank1
  8340  0824  178C               	bsf	12,7	;volatile
  8341                           
  8342                           ;glucose_meter_main.c: 469: TRISAbits.TRISA6 = 1;
  8343  0825  170C               	bsf	12,6	;volatile
  8344                           
  8345                           ;glucose_meter_main.c: 470: TRISAbits.TRISA3 = 1;
  8346  0826  158C               	bsf	12,3	;volatile
  8347                           
  8348                           ;glucose_meter_main.c: 472: OPA1CONbits.OPA1EN = 0;
  8349  0827  002A               	movlb	10	; select bank10
  8350  0828  1391               	bcf	17,7	;volatile
  8351                           
  8352                           ;glucose_meter_main.c: 473: DACCON0bits.DACEN = 0;
  8353  0829  0022               	movlb	2	; select bank2
  8354  082A  1398               	bcf	24,7	;volatile
  8355                           
  8356                           ;glucose_meter_main.c: 474: DACCON0bits.DACOE1= 0;
  8357  082B  1298               	bcf	24,5	;volatile
  8358                           
  8359                           ;glucose_meter_main.c: 475: ADCON0bits.ADON = 0;
  8360  082C  0021               	movlb	1	; select bank1
  8361  082D  101D               	bcf	29,0	;volatile
  8362                           
  8363                           ;glucose_meter_main.c: 476: __nop();
  8364  082E  0000               	nop
  8365  082F  0063               	sleep	;# 
  8366                           
  8367                           ;glucose_meter_main.c: 478: __nop();
  8368  0830  0000               	nop
  8369                           
  8370                           ;glucose_meter_main.c: 479: __nop();
  8371  0831  0000               	nop
  8372                           
  8373                           ;glucose_meter_main.c: 480: __nop();
  8374  0832  0000               	nop
  8375  0833  0008               	return
  8376  0834                     __end_of_EnterDeepSleep:	
  8377                           
  8378                           	psect	text20
  8379  123C                     __ptext20:	
  8380 ;; *************** function _SaveGlucoReading *****************
  8381 ;; Defined at:
  8382 ;;		line 84 in file "EEPROM.c"
  8383 ;; Parameters:    Size  Location     Type
  8384 ;;		None
  8385 ;; Auto vars:     Size  Location     Type
  8386 ;;		None
  8387 ;; Return value:  Size  Location     Type
  8388 ;;                  1    wreg      void 
  8389 ;; Registers used:
  8390 ;;		wreg, status,2, status,0, pclath, cstack
  8391 ;; Tracked objects:
  8392 ;;		On entry : 0/0
  8393 ;;		On exit  : 0/0
  8394 ;;		Unchanged: 0/0
  8395 ;; Data sizes:     COMMON   BANK0   BANK1   BANK2   BANK3   BANK4   BANK5   BANK6   BANK7   BANK8   BANK9  BANK10  BANK1
      +1  BANK12
  8396 ;;      Params:         0       0       0       0       0       0       0       0       0       0       0       0       
      +0       0
  8397 ;;      Locals:         0       0       0       0       0       0       0       0       0       0       0       0       
      +0       0
  8398 ;;      Temps:          0       2       0       0       0       0       0       0       0       0       0       0       
      +0       0
  8399 ;;      Totals:         0       2       0       0       0       0       0       0       0       0       0       0       
      +0       0
  8400 ;;Total ram usage:        2 bytes
  8401 ;; Hardware stack levels used:    1
  8402 ;; Hardware stack levels required when called:    4
  8403 ;; This function calls:
  8404 ;;		_eeprom_write
  8405 ;; This function is called by:
  8406 ;;		_main
  8407 ;; This function uses a non-reentrant model
  8408 ;;
  8409                           
  8410                           
  8411                           ;psect for function _SaveGlucoReading
  8412  123C                     _SaveGlucoReading:	
  8413                           
  8414                           ;EEPROM.c: 86: if (gSavedReadingCnt == 32)gSavedReadingCnt = 0;
  8415                           
  8416                           ;incstack = 0
  8417                           ; Regs used in _SaveGlucoReading: [wreg+status,2+status,0+pclath+cstack]
  8418  123C  3020               	movlw	32
  8419  123D  0020               	movlb	0	; select bank0
  8420  123E  0665               	xorwf	_gSavedReadingCnt,w
  8421  123F  1903               	btfsc	3,2
  8422  1240  01E5               	clrf	_gSavedReadingCnt
  8423                           
  8424                           ;EEPROM.c: 87: EEADRS = gSavedReadingCnt<<3;
  8425  1241  0865               	movf	_gSavedReadingCnt,w
  8426  1242  00AD               	movwf	??_SaveGlucoReading
  8427  1243  3002               	movlw	2
  8428  1244                     u6035:	
  8429  1244  35AD               	lslf	??_SaveGlucoReading,f
  8430  1245  3EFF               	addlw	-1
  8431  1246  1D03               	skipz
  8432  1247  2A44               	goto	u6035
  8433  1248  352D               	lslf	??_SaveGlucoReading,w
  8434  1249  00AE               	movwf	??_SaveGlucoReading+1
  8435  124A  082E               	movf	??_SaveGlucoReading+1,w
  8436  124B  00E4               	movwf	_EEADRS
  8437                           
  8438                           ;EEPROM.c: 89: eeprom_write(EEADRS, gSavedReadingCnt);
  8439  124C  0865               	movf	_gSavedReadingCnt,w
  8440  124D  00AD               	movwf	??_SaveGlucoReading
  8441  124E  082D               	movf	??_SaveGlucoReading,w
  8442  124F  00A9               	movwf	eeprom_write@value
  8443  1250  0864               	movf	_EEADRS,w
  8444  1251  319F  2778  3192   	fcall	_eeprom_write
  8445                           
  8446                           ;EEPROM.c: 90: eeprom_write(EEADRS+1, gYmmolchar );
  8447  1254  0020               	movlb	0	; select bank0
  8448  1255  0863               	movf	_gYmmolchar,w
  8449  1256  00AD               	movwf	??_SaveGlucoReading
  8450  1257  082D               	movf	??_SaveGlucoReading,w
  8451  1258  00A9               	movwf	eeprom_write@value
  8452  1259  0864               	movf	_EEADRS,w
  8453  125A  3E01               	addlw	1
  8454  125B  319F  2778  3192   	fcall	_eeprom_write
  8455                           
  8456                           ;EEPROM.c: 91: eeprom_write(EEADRS+2, gYmmoldecimalchar);
  8457  125E  087D               	movf	_gYmmoldecimalchar,w
  8458  125F  0020               	movlb	0	; select bank0
  8459  1260  00AD               	movwf	??_SaveGlucoReading
  8460  1261  082D               	movf	??_SaveGlucoReading,w
  8461  1262  00A9               	movwf	eeprom_write@value
  8462  1263  0864               	movf	_EEADRS,w
  8463  1264  3E02               	addlw	2
  8464  1265  319F  2778  3192   	fcall	_eeprom_write
  8465                           
  8466                           ;EEPROM.c: 92: eeprom_write(EEADRS+3, Hours );
  8467  1268  0020               	movlb	0	; select bank0
  8468  1269  085F               	movf	_Hours,w
  8469  126A  00AD               	movwf	??_SaveGlucoReading
  8470  126B  082D               	movf	??_SaveGlucoReading,w
  8471  126C  00A9               	movwf	eeprom_write@value
  8472  126D  0864               	movf	_EEADRS,w
  8473  126E  3E03               	addlw	3
  8474  126F  319F  2778  3192   	fcall	_eeprom_write
  8475                           
  8476                           ;EEPROM.c: 93: eeprom_write(EEADRS+4, Minutes);
  8477  1272  0020               	movlb	0	; select bank0
  8478  1273  0860               	movf	_Minutes,w
  8479  1274  00AD               	movwf	??_SaveGlucoReading
  8480  1275  082D               	movf	??_SaveGlucoReading,w
  8481  1276  00A9               	movwf	eeprom_write@value
  8482  1277  0864               	movf	_EEADRS,w
  8483  1278  3E04               	addlw	4
  8484  1279  319F  2778  3192   	fcall	_eeprom_write
  8485                           
  8486                           ;EEPROM.c: 94: eeprom_write(EEADRS+5, Month);
  8487  127C  0020               	movlb	0	; select bank0
  8488  127D  0861               	movf	_Month,w
  8489  127E  00AD               	movwf	??_SaveGlucoReading
  8490  127F  082D               	movf	??_SaveGlucoReading,w
  8491  1280  00A9               	movwf	eeprom_write@value
  8492  1281  0864               	movf	_EEADRS,w
  8493  1282  3E05               	addlw	5
  8494  1283  319F  2778  3192   	fcall	_eeprom_write
  8495                           
  8496                           ;EEPROM.c: 95: eeprom_write(EEADRS+6, Days);
  8497  1286  0020               	movlb	0	; select bank0
  8498  1287  085E               	movf	_Days,w
  8499  1288  00AD               	movwf	??_SaveGlucoReading
  8500  1289  082D               	movf	??_SaveGlucoReading,w
  8501  128A  00A9               	movwf	eeprom_write@value
  8502  128B  0864               	movf	_EEADRS,w
  8503  128C  3E06               	addlw	6
  8504  128D  319F  2778  3192   	fcall	_eeprom_write
  8505                           
  8506                           ;EEPROM.c: 96: eeprom_write(EEADRS+7, Year);
  8507  1290  0020               	movlb	0	; select bank0
  8508  1291  0862               	movf	_Year,w
  8509  1292  00AD               	movwf	??_SaveGlucoReading
  8510  1293  082D               	movf	??_SaveGlucoReading,w
  8511  1294  00A9               	movwf	eeprom_write@value
  8512  1295  0864               	movf	_EEADRS,w
  8513  1296  3E07               	addlw	7
  8514  1297  319F  2778         	fcall	_eeprom_write
  8515                           
  8516                           ;EEPROM.c: 97: gSavedReadingCnt++;
  8517  1299  3001               	movlw	1
  8518  129A  0020               	movlb	0	; select bank0
  8519  129B  00AD               	movwf	??_SaveGlucoReading
  8520  129C  082D               	movf	??_SaveGlucoReading,w
  8521  129D  07E5               	addwf	_gSavedReadingCnt,f
  8522                           
  8523                           ;EEPROM.c: 98: __nop();
  8524  129E  0000               	nop
  8525  129F  0008               	return
  8526  12A0                     __end_of_SaveGlucoReading:	
  8527                           
  8528                           	psect	text21
  8529  1F78                     __ptext21:	
  8530 ;; *************** function _eeprom_write *****************
  8531 ;; Defined at:
  8532 ;;		line 6 in file "C:\Program Files (x86)\Microchip\xc8\v1.37\sources\pic\eewrite.c"
  8533 ;; Parameters:    Size  Location     Type
  8534 ;;  addr            1    wreg     unsigned char 
  8535 ;;  value           1    9[BANK0 ] unsigned char 
  8536 ;; Auto vars:     Size  Location     Type
  8537 ;;  addr            1   12[BANK0 ] unsigned char 
  8538 ;; Return value:  Size  Location     Type
  8539 ;;                  1    wreg      void 
  8540 ;; Registers used:
  8541 ;;		wreg, status,2, status,0
  8542 ;; Tracked objects:
  8543 ;;		On entry : 0/0
  8544 ;;		On exit  : 0/0
  8545 ;;		Unchanged: 0/0
  8546 ;; Data sizes:     COMMON   BANK0   BANK1   BANK2   BANK3   BANK4   BANK5   BANK6   BANK7   BANK8   BANK9  BANK10  BANK1
      +1  BANK12
  8547 ;;      Params:         0       1       0       0       0       0       0       0       0       0       0       0       
      +0       0
  8548 ;;      Locals:         0       1       0       0       0       0       0       0       0       0       0       0       
      +0       0
  8549 ;;      Temps:          0       2       0       0       0       0       0       0       0       0       0       0       
      +0       0
  8550 ;;      Totals:         0       4       0       0       0       0       0       0       0       0       0       0       
      +0       0
  8551 ;;Total ram usage:        4 bytes
  8552 ;; Hardware stack levels used:    1
  8553 ;; Hardware stack levels required when called:    3
  8554 ;; This function calls:
  8555 ;;		Nothing
  8556 ;; This function is called by:
  8557 ;;		_SaveGlucoReading
  8558 ;; This function uses a non-reentrant model
  8559 ;;
  8560                           
  8561                           
  8562                           ;psect for function _eeprom_write
  8563  1F78                     _eeprom_write:	
  8564                           
  8565                           ;incstack = 0
  8566                           ; Regs used in _eeprom_write: [wreg+status,2+status,0]
  8567                           ;eeprom_write@addr stored from wreg
  8568  1F78  0020               	movlb	0	; select bank0
  8569  1F79  00AC               	movwf	eeprom_write@addr
  8570  1F7A                     l752:	
  8571  1F7A  0023               	movlb	3	; select bank3
  8572  1F7B  1895               	btfsc	21,1	;volsfr
  8573  1F7C  2F7A               	goto	l752
  8574  1F7D  0020               	movlb	0	; select bank0
  8575  1F7E  082C               	movf	eeprom_write@addr,w
  8576  1F7F  00AA               	movwf	??_eeprom_write
  8577  1F80  01AB               	clrf	??_eeprom_write+1
  8578  1F81  082A               	movf	??_eeprom_write,w
  8579  1F82  0023               	movlb	3	; select bank3
  8580  1F83  0091               	movwf	17	;volatile
  8581  1F84  0020               	movlb	0	; select bank0
  8582  1F85  082B               	movf	??_eeprom_write+1,w
  8583  1F86  0023               	movlb	3	; select bank3
  8584  1F87  0092               	movwf	18	;volatile
  8585  1F88  0020               	movlb	0	; select bank0
  8586  1F89  0829               	movf	eeprom_write@value,w
  8587  1F8A  0023               	movlb	3	; select bank3
  8588  1F8B  0093               	movwf	19	;volatile
  8589  1F8C  303F               	movlw	63
  8590  1F8D  0020               	movlb	0	; select bank0
  8591  1F8E  00AA               	movwf	??_eeprom_write
  8592  1F8F  082A               	movf	??_eeprom_write,w
  8593  1F90  0023               	movlb	3	; select bank3
  8594  1F91  0595               	andwf	21,f	;volsfr
  8595  1F92  0020               	movlb	0	; select bank0
  8596  1F93  1003               	bcf	3,0	;volatile
  8597  1F94  1B8B               	btfsc	11,7	;volatile
  8598  1F95  1403               	bsf	3,0	;volatile
  8599  1F96  138B               	bcf	11,7	;volatile
  8600  1F97  0023               	movlb	3	; select bank3
  8601  1F98  1515               	bsf	21,2	;volsfr
  8602  1F99  3055               	movlw	85
  8603  1F9A  0096               	movwf	22	;volsfr
  8604  1F9B  30AA               	movlw	170
  8605  1F9C  0096               	movwf	22	;volsfr
  8606  1F9D  1495               	bsf	21,1	;volsfr
  8607  1F9E  1115               	bcf	21,2	;volsfr
  8608  1F9F  0020               	movlb	0	; select bank0
  8609  1FA0  1C03               	btfss	3,0	;volatile
  8610  1FA1  0008               	return
  8611  1FA2  178B               	bsf	11,7	;volatile
  8612  1FA3  0008               	return
  8613  1FA4                     __end_of_eeprom_write:	
  8614                           
  8615                           	psect	text22
  8616  137A                     __ptext22:	
  8617 ;; *************** function _ReadSavedGlucoReading *****************
  8618 ;; Defined at:
  8619 ;;		line 117 in file "EEPROM.c"
  8620 ;; Parameters:    Size  Location     Type
  8621 ;;  reading_coun    1    wreg     unsigned char 
  8622 ;; Auto vars:     Size  Location     Type
  8623 ;;  reading_coun    1   15[BANK0 ] unsigned char 
  8624 ;; Return value:  Size  Location     Type
  8625 ;;                  1    wreg      void 
  8626 ;; Registers used:
  8627 ;;		wreg, status,2, status,0, pclath, cstack
  8628 ;; Tracked objects:
  8629 ;;		On entry : 0/0
  8630 ;;		On exit  : 0/0
  8631 ;;		Unchanged: 0/0
  8632 ;; Data sizes:     COMMON   BANK0   BANK1   BANK2   BANK3   BANK4   BANK5   BANK6   BANK7   BANK8   BANK9  BANK10  BANK1
      +1  BANK12
  8633 ;;      Params:         0       0       0       0       0       0       0       0       0       0       0       0       
      +0       0
  8634 ;;      Locals:         0       1       0       0       0       0       0       0       0       0       0       0       
      +0       0
  8635 ;;      Temps:          0       2       0       0       0       0       0       0       0       0       0       0       
      +0       0
  8636 ;;      Totals:         0       3       0       0       0       0       0       0       0       0       0       0       
      +0       0
  8637 ;;Total ram usage:        3 bytes
  8638 ;; Hardware stack levels used:    1
  8639 ;; Hardware stack levels required when called:    4
  8640 ;; This function calls:
  8641 ;;		_eeprom_read
  8642 ;; This function is called by:
  8643 ;;		_main
  8644 ;; This function uses a non-reentrant model
  8645 ;;
  8646                           
  8647                           
  8648                           ;psect for function _ReadSavedGlucoReading
  8649  137A                     _ReadSavedGlucoReading:	
  8650                           
  8651                           ;incstack = 0
  8652                           ; Regs used in _ReadSavedGlucoReading: [wreg+status,2+status,0+pclath+cstack]
  8653                           ;ReadSavedGlucoReading@reading_count stored from wreg
  8654  137A  0020               	movlb	0	; select bank0
  8655  137B  00AF               	movwf	ReadSavedGlucoReading@reading_count
  8656                           
  8657                           ;EEPROM.c: 119: EEADRS = reading_count<<3;
  8658  137C  082F               	movf	ReadSavedGlucoReading@reading_count,w
  8659  137D  00AD               	movwf	??_ReadSavedGlucoReading
  8660  137E  3002               	movlw	2
  8661  137F                     u6045:	
  8662  137F  35AD               	lslf	??_ReadSavedGlucoReading,f
  8663  1380  3EFF               	addlw	-1
  8664  1381  1D03               	skipz
  8665  1382  2B7F               	goto	u6045
  8666  1383  352D               	lslf	??_ReadSavedGlucoReading,w
  8667  1384  00AE               	movwf	??_ReadSavedGlucoReading+1
  8668  1385  082E               	movf	??_ReadSavedGlucoReading+1,w
  8669  1386  00E4               	movwf	_EEADRS
  8670                           
  8671                           ;EEPROM.c: 120: gReadCount = eeprom_read(EEADRS) ;
  8672  1387  0864               	movf	_EEADRS,w
  8673  1388  319E  26E6  3193   	fcall	_eeprom_read
  8674  138B  0020               	movlb	0	; select bank0
  8675  138C  00AD               	movwf	??_ReadSavedGlucoReading
  8676  138D  082D               	movf	??_ReadSavedGlucoReading,w
  8677  138E  0021               	movlb	1	; select bank1
  8678  138F  00CA               	movwf	_gReadCount^(0+128)
  8679                           
  8680                           ;EEPROM.c: 121: EEADRS++;
  8681  1390  3001               	movlw	1
  8682  1391  0020               	movlb	0	; select bank0
  8683  1392  00AD               	movwf	??_ReadSavedGlucoReading
  8684  1393  082D               	movf	??_ReadSavedGlucoReading,w
  8685  1394  07E4               	addwf	_EEADRS,f
  8686                           
  8687                           ;EEPROM.c: 122: gYmmolRead = eeprom_read(EEADRS) ;
  8688  1395  0864               	movf	_EEADRS,w
  8689  1396  319E  26E6  3193   	fcall	_eeprom_read
  8690  1399  0020               	movlb	0	; select bank0
  8691  139A  00AD               	movwf	??_ReadSavedGlucoReading
  8692  139B  082D               	movf	??_ReadSavedGlucoReading,w
  8693  139C  0021               	movlb	1	; select bank1
  8694  139D  00CF               	movwf	_gYmmolRead^(0+128)
  8695                           
  8696                           ;EEPROM.c: 123: EEADRS++;
  8697  139E  3001               	movlw	1
  8698  139F  0020               	movlb	0	; select bank0
  8699  13A0  00AD               	movwf	??_ReadSavedGlucoReading
  8700  13A1  082D               	movf	??_ReadSavedGlucoReading,w
  8701  13A2  07E4               	addwf	_EEADRS,f
  8702                           
  8703                           ;EEPROM.c: 124: gYmmolDecimalRead = eeprom_read(EEADRS) ;
  8704  13A3  0864               	movf	_EEADRS,w
  8705  13A4  319E  26E6  3193   	fcall	_eeprom_read
  8706  13A7  0020               	movlb	0	; select bank0
  8707  13A8  00AD               	movwf	??_ReadSavedGlucoReading
  8708  13A9  082D               	movf	??_ReadSavedGlucoReading,w
  8709  13AA  0021               	movlb	1	; select bank1
  8710  13AB  00CE               	movwf	_gYmmolDecimalRead^(0+128)
  8711                           
  8712                           ;EEPROM.c: 125: EEADRS++;
  8713  13AC  3001               	movlw	1
  8714  13AD  0020               	movlb	0	; select bank0
  8715  13AE  00AD               	movwf	??_ReadSavedGlucoReading
  8716  13AF  082D               	movf	??_ReadSavedGlucoReading,w
  8717  13B0  07E4               	addwf	_EEADRS,f
  8718                           
  8719                           ;EEPROM.c: 126: gHoursRead = eeprom_read(EEADRS) ;
  8720  13B1  0864               	movf	_EEADRS,w
  8721  13B2  319E  26E6  3193   	fcall	_eeprom_read
  8722  13B5  0020               	movlb	0	; select bank0
  8723  13B6  00AD               	movwf	??_ReadSavedGlucoReading
  8724  13B7  082D               	movf	??_ReadSavedGlucoReading,w
  8725  13B8  0021               	movlb	1	; select bank1
  8726  13B9  00C7               	movwf	_gHoursRead^(0+128)
  8727                           
  8728                           ;EEPROM.c: 127: EEADRS++;
  8729  13BA  3001               	movlw	1
  8730  13BB  0020               	movlb	0	; select bank0
  8731  13BC  00AD               	movwf	??_ReadSavedGlucoReading
  8732  13BD  082D               	movf	??_ReadSavedGlucoReading,w
  8733  13BE  07E4               	addwf	_EEADRS,f
  8734                           
  8735                           ;EEPROM.c: 128: gMinutesRead = eeprom_read(EEADRS) ;
  8736  13BF  0864               	movf	_EEADRS,w
  8737  13C0  319E  26E6  3193   	fcall	_eeprom_read
  8738  13C3  0020               	movlb	0	; select bank0
  8739  13C4  00AD               	movwf	??_ReadSavedGlucoReading
  8740  13C5  082D               	movf	??_ReadSavedGlucoReading,w
  8741  13C6  0021               	movlb	1	; select bank1
  8742  13C7  00C8               	movwf	_gMinutesRead^(0+128)
  8743                           
  8744                           ;EEPROM.c: 129: EEADRS++;
  8745  13C8  3001               	movlw	1
  8746  13C9  0020               	movlb	0	; select bank0
  8747  13CA  00AD               	movwf	??_ReadSavedGlucoReading
  8748  13CB  082D               	movf	??_ReadSavedGlucoReading,w
  8749  13CC  07E4               	addwf	_EEADRS,f
  8750                           
  8751                           ;EEPROM.c: 130: gMonthRead = eeprom_read(EEADRS) ;
  8752  13CD  0864               	movf	_EEADRS,w
  8753  13CE  319E  26E6  3193   	fcall	_eeprom_read
  8754  13D1  0020               	movlb	0	; select bank0
  8755  13D2  00AD               	movwf	??_ReadSavedGlucoReading
  8756  13D3  082D               	movf	??_ReadSavedGlucoReading,w
  8757  13D4  0021               	movlb	1	; select bank1
  8758  13D5  00C9               	movwf	_gMonthRead^(0+128)
  8759                           
  8760                           ;EEPROM.c: 131: EEADRS++;
  8761  13D6  3001               	movlw	1
  8762  13D7  0020               	movlb	0	; select bank0
  8763  13D8  00AD               	movwf	??_ReadSavedGlucoReading
  8764  13D9  082D               	movf	??_ReadSavedGlucoReading,w
  8765  13DA  07E4               	addwf	_EEADRS,f
  8766                           
  8767                           ;EEPROM.c: 132: gDaysRead = eeprom_read(EEADRS) ;
  8768  13DB  0864               	movf	_EEADRS,w
  8769  13DC  319E  26E6  3193   	fcall	_eeprom_read
  8770  13DF  0020               	movlb	0	; select bank0
  8771  13E0  00AD               	movwf	??_ReadSavedGlucoReading
  8772  13E1  082D               	movf	??_ReadSavedGlucoReading,w
  8773  13E2  0021               	movlb	1	; select bank1
  8774  13E3  00C4               	movwf	_gDaysRead^(0+128)
  8775                           
  8776                           ;EEPROM.c: 133: EEADRS++;
  8777  13E4  3001               	movlw	1
  8778  13E5  0020               	movlb	0	; select bank0
  8779  13E6  00AD               	movwf	??_ReadSavedGlucoReading
  8780  13E7  082D               	movf	??_ReadSavedGlucoReading,w
  8781  13E8  07E4               	addwf	_EEADRS,f
  8782                           
  8783                           ;EEPROM.c: 134: gYearRead = eeprom_read(EEADRS) ;
  8784  13E9  0864               	movf	_EEADRS,w
  8785  13EA  319E  26E6         	fcall	_eeprom_read
  8786  13EC  0020               	movlb	0	; select bank0
  8787  13ED  00AD               	movwf	??_ReadSavedGlucoReading
  8788  13EE  082D               	movf	??_ReadSavedGlucoReading,w
  8789  13EF  0021               	movlb	1	; select bank1
  8790  13F0  00CD               	movwf	_gYearRead^(0+128)
  8791  13F1  0008               	return
  8792  13F2                     __end_of_ReadSavedGlucoReading:	
  8793                           
  8794                           	psect	text23
  8795  1EE6                     __ptext23:	
  8796 ;; *************** function _eeprom_read *****************
  8797 ;; Defined at:
  8798 ;;		line 6 in file "C:\Program Files (x86)\Microchip\xc8\v1.37\sources\pic\eeread.c"
  8799 ;; Parameters:    Size  Location     Type
  8800 ;;  addr            1    wreg     unsigned char 
  8801 ;; Auto vars:     Size  Location     Type
  8802 ;;  addr            1   12[BANK0 ] unsigned char 
  8803 ;; Return value:  Size  Location     Type
  8804 ;;                  1    wreg      unsigned char 
  8805 ;; Registers used:
  8806 ;;		wreg, status,2, status,0
  8807 ;; Tracked objects:
  8808 ;;		On entry : 0/0
  8809 ;;		On exit  : 0/0
  8810 ;;		Unchanged: 0/0
  8811 ;; Data sizes:     COMMON   BANK0   BANK1   BANK2   BANK3   BANK4   BANK5   BANK6   BANK7   BANK8   BANK9  BANK10  BANK1
      +1  BANK12
  8812 ;;      Params:         0       0       0       0       0       0       0       0       0       0       0       0       
      +0       0
  8813 ;;      Locals:         0       1       0       0       0       0       0       0       0       0       0       0       
      +0       0
  8814 ;;      Temps:          0       3       0       0       0       0       0       0       0       0       0       0       
      +0       0
  8815 ;;      Totals:         0       4       0       0       0       0       0       0       0       0       0       0       
      +0       0
  8816 ;;Total ram usage:        4 bytes
  8817 ;; Hardware stack levels used:    1
  8818 ;; Hardware stack levels required when called:    3
  8819 ;; This function calls:
  8820 ;;		Nothing
  8821 ;; This function is called by:
  8822 ;;		_ReadSavedGlucoReading
  8823 ;; This function uses a non-reentrant model
  8824 ;;
  8825                           
  8826                           
  8827                           ;psect for function _eeprom_read
  8828  1EE6                     _eeprom_read:	
  8829                           
  8830                           ;incstack = 0
  8831                           ; Regs used in _eeprom_read: [wreg+status,2+status,0]
  8832                           ;eeprom_read@addr stored from wreg
  8833  1EE6  0020               	movlb	0	; select bank0
  8834  1EE7  00AC               	movwf	eeprom_read@addr
  8835  1EE8  2EEA               	goto	l730
  8836  1EE9                     u5321:	
  8837  1EE9  0020               	movlb	0	; select bank0
  8838  1EEA                     l730:	
  8839  1EEA  0064               	clrwdt	;# 
  8840  1EEB  0023               	movlb	3	; select bank3
  8841  1EEC  1895               	btfsc	21,1	;volsfr
  8842  1EED  2EE9               	goto	u5321
  8843  1EEE  0020               	movlb	0	; select bank0
  8844  1EEF  082C               	movf	eeprom_read@addr,w
  8845  1EF0  00A9               	movwf	??_eeprom_read
  8846  1EF1  01AA               	clrf	??_eeprom_read+1
  8847  1EF2  0829               	movf	??_eeprom_read,w
  8848  1EF3  0023               	movlb	3	; select bank3
  8849  1EF4  0091               	movwf	17	;volatile
  8850  1EF5  0020               	movlb	0	; select bank0
  8851  1EF6  082A               	movf	??_eeprom_read+1,w
  8852  1EF7  0023               	movlb	3	; select bank3
  8853  1EF8  0092               	movwf	18	;volatile
  8854  1EF9  303F               	movlw	63
  8855  1EFA  0020               	movlb	0	; select bank0
  8856  1EFB  00AB               	movwf	??_eeprom_read+2
  8857  1EFC  082B               	movf	??_eeprom_read+2,w
  8858  1EFD  0023               	movlb	3	; select bank3
  8859  1EFE  0595               	andwf	21,f	;volsfr
  8860  1EFF  1415               	bsf	21,0	;volsfr
  8861  1F00  1003               	clrc
  8862  1F01  1815               	btfsc	21,0	;volsfr
  8863  1F02  1403               	setc
  8864  1F03  3000               	movlw	0
  8865  1F04  3D09               	addwfc	9,w
  8866  1F05  0813               	movf	19,w	;volatile
  8867  1F06  0008               	return
  8868  1F07                     __end_of_eeprom_read:	
  8869                           
  8870                           	psect	text24
  8871  1EC7                     __ptext24:	
  8872 ;; *************** function _HwInit *****************
  8873 ;; Defined at:
  8874 ;;		line 77 in file "user.c"
  8875 ;; Parameters:    Size  Location     Type
  8876 ;;		None
  8877 ;; Auto vars:     Size  Location     Type
  8878 ;;		None
  8879 ;; Return value:  Size  Location     Type
  8880 ;;                  1    wreg      void 
  8881 ;; Registers used:
  8882 ;;		wreg, status,2, status,0, pclath, cstack
  8883 ;; Tracked objects:
  8884 ;;		On entry : 0/0
  8885 ;;		On exit  : 0/0
  8886 ;;		Unchanged: 0/0
  8887 ;; Data sizes:     COMMON   BANK0   BANK1   BANK2   BANK3   BANK4   BANK5   BANK6   BANK7   BANK8   BANK9  BANK10  BANK1
      +1  BANK12
  8888 ;;      Params:         0       0       0       0       0       0       0       0       0       0       0       0       
      +0       0
  8889 ;;      Locals:         0       0       0       0       0       0       0       0       0       0       0       0       
      +0       0
  8890 ;;      Temps:          0       0       0       0       0       0       0       0       0       0       0       0       
      +0       0
  8891 ;;      Totals:         0       0       0       0       0       0       0       0       0       0       0       0       
      +0       0
  8892 ;;Total ram usage:        0 bytes
  8893 ;; Hardware stack levels used:    1
  8894 ;; Hardware stack levels required when called:    5
  8895 ;; This function calls:
  8896 ;;		_ConfigureOscillator
  8897 ;;		_InitADC
  8898 ;;		_InitApp
  8899 ;;		_InitTimer1
  8900 ;;		_LCDInit
  8901 ;; This function is called by:
  8902 ;;		_main
  8903 ;; This function uses a non-reentrant model
  8904 ;;
  8905                           
  8906                           
  8907                           ;psect for function _HwInit
  8908  1EC7                     _HwInit:	
  8909                           
  8910                           ;user.c: 80: ConfigureOscillator();
  8911                           
  8912                           ;incstack = 0
  8913                           ; Regs used in _HwInit: [wreg+status,2+status,0+pclath+cstack]
  8914  1EC7  319D  25AC  319E   	fcall	_ConfigureOscillator
  8915                           
  8916                           ;user.c: 83: InitApp();
  8917  1ECA  3191  2103  319E   	fcall	_InitApp
  8918                           
  8919                           ;user.c: 84: InitTimer1();
  8920  1ECD  319D  25B6  319E   	fcall	_InitTimer1
  8921                           
  8922                           ;user.c: 85: InitADC();
  8923  1ED0  3187  27F8  319E   	fcall	_InitADC
  8924                           
  8925                           ;user.c: 86: LCDInit();
  8926  1ED3  3191  214A         	fcall	_LCDInit
  8927                           
  8928                           ;user.c: 87: gStripIdleTime = 250000;
  8929  1ED5  3000               	movlw	0
  8930  1ED6  0021               	movlb	1	; select bank1
  8931  1ED7  00D6               	movwf	(_gStripIdleTime+3)^(0+128)
  8932  1ED8  3003               	movlw	3
  8933  1ED9  00D5               	movwf	(_gStripIdleTime+2)^(0+128)
  8934  1EDA  30D0               	movlw	208
  8935  1EDB  00D4               	movwf	(_gStripIdleTime+1)^(0+128)
  8936  1EDC  3090               	movlw	144
  8937  1EDD  00D3               	movwf	_gStripIdleTime^(0+128)
  8938                           
  8939                           ;user.c: 88: LATB1 = 1;
  8940  1EDE  0022               	movlb	2	; select bank2
  8941  1EDF  148D               	bsf	13,1	;volatile
  8942                           
  8943                           ;user.c: 90: LATAbits.LATA3 = 0;
  8944  1EE0  118C               	bcf	12,3	;volatile
  8945                           
  8946                           ;user.c: 91: gSavedReadingCnt=0;
  8947  1EE1  0020               	movlb	0	; select bank0
  8948  1EE2  01E5               	clrf	_gSavedReadingCnt
  8949                           
  8950                           ;user.c: 92: gBloodNotInsetrted=0;
  8951  1EE3  0021               	movlb	1	; select bank1
  8952  1EE4  01C3               	clrf	_gBloodNotInsetrted^(0+128)
  8953  1EE5  0008               	return
  8954  1EE6                     __end_of_HwInit:	
  8955                           
  8956                           	psect	text25
  8957  114A                     __ptext25:	
  8958 ;; *************** function _LCDInit *****************
  8959 ;; Defined at:
  8960 ;;		line 234 in file "Nokia5110/Nokia.c"
  8961 ;; Parameters:    Size  Location     Type
  8962 ;;		None
  8963 ;; Auto vars:     Size  Location     Type
  8964 ;;		None
  8965 ;; Return value:  Size  Location     Type
  8966 ;;                  1    wreg      void 
  8967 ;; Registers used:
  8968 ;;		wreg, status,2, status,0, pclath, cstack
  8969 ;; Tracked objects:
  8970 ;;		On entry : 0/0
  8971 ;;		On exit  : 0/0
  8972 ;;		Unchanged: 0/0
  8973 ;; Data sizes:     COMMON   BANK0   BANK1   BANK2   BANK3   BANK4   BANK5   BANK6   BANK7   BANK8   BANK9  BANK10  BANK1
      +1  BANK12
  8974 ;;      Params:         0       0       0       0       0       0       0       0       0       0       0       0       
      +0       0
  8975 ;;      Locals:         0       0       0       0       0       0       0       0       0       0       0       0       
      +0       0
  8976 ;;      Temps:          0       2       0       0       0       0       0       0       0       0       0       0       
      +0       0
  8977 ;;      Totals:         0       2       0       0       0       0       0       0       0       0       0       0       
      +0       0
  8978 ;;Total ram usage:        2 bytes
  8979 ;; Hardware stack levels used:    1
  8980 ;; Hardware stack levels required when called:    4
  8981 ;; This function calls:
  8982 ;;		_LCDWrite
  8983 ;; This function is called by:
  8984 ;;		_HwInit
  8985 ;;		_SetTime
  8986 ;;		_main
  8987 ;; This function uses a non-reentrant model
  8988 ;;
  8989                           
  8990                           
  8991                           ;psect for function _LCDInit
  8992  114A                     _LCDInit:	
  8993                           
  8994                           ;Nokia.c: 236: TRISCbits.TRISC3=0;
  8995                           
  8996                           ;incstack = 0
  8997                           ; Regs used in _LCDInit: [wreg+status,2+status,0+pclath+cstack]
  8998  114A  0021               	movlb	1	; select bank1
  8999  114B  118E               	bcf	14,3	;volatile
  9000                           
  9001                           ;Nokia.c: 237: TRISCbits.TRISC4=0;
  9002  114C  120E               	bcf	14,4	;volatile
  9003                           
  9004                           ;Nokia.c: 238: TRISCbits.TRISC5=0;
  9005  114D  128E               	bcf	14,5	;volatile
  9006                           
  9007                           ;Nokia.c: 239: TRISCbits.TRISC6=0;
  9008  114E  130E               	bcf	14,6	;volatile
  9009                           
  9010                           ;Nokia.c: 240: TRISCbits.TRISC7=0;
  9011  114F  138E               	bcf	14,7	;volatile
  9012                           
  9013                           ;Nokia.c: 242: LATCbits.LATC4=0;
  9014  1150  0022               	movlb	2	; select bank2
  9015  1151  120E               	bcf	14,4	;volatile
  9016                           
  9017                           ;Nokia.c: 243: LATCbits.LATC5=0;
  9018  1152  128E               	bcf	14,5	;volatile
  9019                           
  9020                           ;Nokia.c: 244: LATCbits.LATC3=0;
  9021  1153  118E               	bcf	14,3	;volatile
  9022                           
  9023                           ;Nokia.c: 247: LATCbits.LATC7=0;
  9024  1154  138E               	bcf	14,7	;volatile
  9025                           
  9026                           ;Nokia.c: 248: _delay((unsigned long)((10)*(800000/4000.0)));
  9027  1155  3003               	movlw	3
  9028  1156  0020               	movlb	0	; select bank0
  9029  1157  00B5               	movwf	??_LCDInit+1
  9030  1158  3097               	movlw	151
  9031  1159  00B4               	movwf	??_LCDInit
  9032  115A                     u6667:	
  9033  115A  0BB4               	decfsz	??_LCDInit,f
  9034  115B  295A               	goto	u6667
  9035  115C  0BB5               	decfsz	??_LCDInit+1,f
  9036  115D  295A               	goto	u6667
  9037  115E  3200               	nop2
  9038                           
  9039                           ;Nokia.c: 249: LATCbits.LATC7=1;
  9040  115F  0022               	movlb	2	; select bank2
  9041  1160  178E               	bsf	14,7	;volatile
  9042                           
  9043                           ;Nokia.c: 251: LCDWrite(0, 0x21);
  9044  1161  3021               	movlw	33
  9045  1162  0020               	movlb	0	; select bank0
  9046  1163  00B4               	movwf	??_LCDInit
  9047  1164  0834               	movf	??_LCDInit,w
  9048  1165  00AF               	movwf	LCDWrite@data
  9049  1166  3000               	movlw	0
  9050  1167  319F  27D1  3191   	fcall	_LCDWrite
  9051                           
  9052                           ;Nokia.c: 252: LCDWrite(0, 0xBB);
  9053  116A  30BB               	movlw	187
  9054  116B  0020               	movlb	0	; select bank0
  9055  116C  00B4               	movwf	??_LCDInit
  9056  116D  0834               	movf	??_LCDInit,w
  9057  116E  00AF               	movwf	LCDWrite@data
  9058  116F  3000               	movlw	0
  9059  1170  319F  27D1  3191   	fcall	_LCDWrite
  9060                           
  9061                           ;Nokia.c: 253: LCDWrite(0, 0x04);
  9062  1173  3004               	movlw	4
  9063  1174  0020               	movlb	0	; select bank0
  9064  1175  00B4               	movwf	??_LCDInit
  9065  1176  0834               	movf	??_LCDInit,w
  9066  1177  00AF               	movwf	LCDWrite@data
  9067  1178  3000               	movlw	0
  9068  1179  319F  27D1  3191   	fcall	_LCDWrite
  9069                           
  9070                           ;Nokia.c: 254: LCDWrite(0, 0x14);
  9071  117C  3014               	movlw	20
  9072  117D  0020               	movlb	0	; select bank0
  9073  117E  00B4               	movwf	??_LCDInit
  9074  117F  0834               	movf	??_LCDInit,w
  9075  1180  00AF               	movwf	LCDWrite@data
  9076  1181  3000               	movlw	0
  9077  1182  319F  27D1  3191   	fcall	_LCDWrite
  9078                           
  9079                           ;Nokia.c: 256: LCDWrite(0, 0x20);
  9080  1185  3020               	movlw	32
  9081  1186  0020               	movlb	0	; select bank0
  9082  1187  00B4               	movwf	??_LCDInit
  9083  1188  0834               	movf	??_LCDInit,w
  9084  1189  00AF               	movwf	LCDWrite@data
  9085  118A  3000               	movlw	0
  9086  118B  319F  27D1  3191   	fcall	_LCDWrite
  9087                           
  9088                           ;Nokia.c: 257: LCDWrite(0, 0x0C);
  9089  118E  300C               	movlw	12
  9090  118F  0020               	movlb	0	; select bank0
  9091  1190  00B4               	movwf	??_LCDInit
  9092  1191  0834               	movf	??_LCDInit,w
  9093  1192  00AF               	movwf	LCDWrite@data
  9094  1193  3000               	movlw	0
  9095  1194  319F  27D1         	fcall	_LCDWrite
  9096  1196  0008               	return
  9097  1197                     __end_of_LCDInit:	
  9098                           
  9099                           	psect	text26
  9100  1DB6                     __ptext26:	
  9101 ;; *************** function _InitTimer1 *****************
  9102 ;; Defined at:
  9103 ;;		line 512 in file "user.c"
  9104 ;; Parameters:    Size  Location     Type
  9105 ;;		None
  9106 ;; Auto vars:     Size  Location     Type
  9107 ;;		None
  9108 ;; Return value:  Size  Location     Type
  9109 ;;                  1    wreg      void 
  9110 ;; Registers used:
  9111 ;;		wreg, status,2, status,0
  9112 ;; Tracked objects:
  9113 ;;		On entry : 0/0
  9114 ;;		On exit  : 0/0
  9115 ;;		Unchanged: 0/0
  9116 ;; Data sizes:     COMMON   BANK0   BANK1   BANK2   BANK3   BANK4   BANK5   BANK6   BANK7   BANK8   BANK9  BANK10  BANK1
      +1  BANK12
  9117 ;;      Params:         0       0       0       0       0       0       0       0       0       0       0       0       
      +0       0
  9118 ;;      Locals:         0       0       0       0       0       0       0       0       0       0       0       0       
      +0       0
  9119 ;;      Temps:          0       0       0       0       0       0       0       0       0       0       0       0       
      +0       0
  9120 ;;      Totals:         0       0       0       0       0       0       0       0       0       0       0       0       
      +0       0
  9121 ;;Total ram usage:        0 bytes
  9122 ;; Hardware stack levels used:    1
  9123 ;; Hardware stack levels required when called:    3
  9124 ;; This function calls:
  9125 ;;		Nothing
  9126 ;; This function is called by:
  9127 ;;		_HwInit
  9128 ;; This function uses a non-reentrant model
  9129 ;;
  9130                           
  9131                           
  9132                           ;psect for function _InitTimer1
  9133  1DB6                     _InitTimer1:	
  9134                           
  9135                           ;user.c: 514: T1CONbits.TMR1CS = 0b10;
  9136                           
  9137                           ;incstack = 0
  9138                           ; Regs used in _InitTimer1: [wreg+status,2+status,0]
  9139  1DB6  0020               	movlb	0	; select bank0
  9140  1DB7  0818               	movf	24,w	;volatile
  9141  1DB8  393F               	andlw	-193
  9142  1DB9  3880               	iorlw	128
  9143  1DBA  0098               	movwf	24	;volatile
  9144                           
  9145                           ;user.c: 515: T1CONbits.T1OSCEN =1;
  9146  1DBB  1598               	bsf	24,3	;volatile
  9147                           
  9148                           ;user.c: 516: T1CONbits.TMR1ON = 1;
  9149  1DBC  1418               	bsf	24,0	;volatile
  9150                           
  9151                           ;user.c: 517: T1CONbits.nT1SYNC = 1;
  9152  1DBD  1518               	bsf	24,2	;volatile
  9153                           
  9154                           ;user.c: 518: PIE1bits.TMR1IE = 1;
  9155  1DBE  0021               	movlb	1	; select bank1
  9156  1DBF  1411               	bsf	17,0	;volatile
  9157  1DC0  0008               	return
  9158  1DC1                     __end_of_InitTimer1:	
  9159                           
  9160                           	psect	text27
  9161  1103                     __ptext27:	
  9162 ;; *************** function _InitApp *****************
  9163 ;; Defined at:
  9164 ;;		line 110 in file "user.c"
  9165 ;; Parameters:    Size  Location     Type
  9166 ;;		None
  9167 ;; Auto vars:     Size  Location     Type
  9168 ;;		None
  9169 ;; Return value:  Size  Location     Type
  9170 ;;                  1    wreg      void 
  9171 ;; Registers used:
  9172 ;;		wreg, status,2, status,0
  9173 ;; Tracked objects:
  9174 ;;		On entry : 0/0
  9175 ;;		On exit  : 0/0
  9176 ;;		Unchanged: 0/0
  9177 ;; Data sizes:     COMMON   BANK0   BANK1   BANK2   BANK3   BANK4   BANK5   BANK6   BANK7   BANK8   BANK9  BANK10  BANK1
      +1  BANK12
  9178 ;;      Params:         0       0       0       0       0       0       0       0       0       0       0       0       
      +0       0
  9179 ;;      Locals:         0       0       0       0       0       0       0       0       0       0       0       0       
      +0       0
  9180 ;;      Temps:          0       0       0       0       0       0       0       0       0       0       0       0       
      +0       0
  9181 ;;      Totals:         0       0       0       0       0       0       0       0       0       0       0       0       
      +0       0
  9182 ;;Total ram usage:        0 bytes
  9183 ;; Hardware stack levels used:    1
  9184 ;; Hardware stack levels required when called:    3
  9185 ;; This function calls:
  9186 ;;		Nothing
  9187 ;; This function is called by:
  9188 ;;		_HwInit
  9189 ;; This function uses a non-reentrant model
  9190 ;;
  9191                           
  9192                           
  9193                           ;psect for function _InitApp
  9194  1103                     _InitApp:	
  9195                           
  9196                           ;user.c: 114: FVRCONbits.FVREN = 1;
  9197                           
  9198                           ;incstack = 0
  9199                           ; Regs used in _InitApp: [wreg+status,2+status,0]
  9200  1103  0022               	movlb	2	; select bank2
  9201  1104  1797               	bsf	23,7	;volatile
  9202                           
  9203                           ;user.c: 115: FVRCONbits.CDAFVR = 0b10;
  9204  1105  0817               	movf	23,w	;volatile
  9205  1106  39F3               	andlw	-13
  9206  1107  3808               	iorlw	8
  9207  1108  0097               	movwf	23	;volatile
  9208                           
  9209                           ;user.c: 116: FVRCONbits.ADFVR = 0b10;
  9210  1109  0817               	movf	23,w	;volatile
  9211  110A  39FC               	andlw	-4
  9212  110B  3802               	iorlw	2
  9213  110C  0097               	movwf	23	;volatile
  9214                           
  9215                           ;user.c: 119: ANSELA = 0x3F;
  9216  110D  303F               	movlw	63
  9217  110E  0023               	movlb	3	; select bank3
  9218  110F  008C               	movwf	12	;volatile
  9219                           
  9220                           ;user.c: 120: TRISA = 0x3F;
  9221  1110  303F               	movlw	63
  9222  1111  0021               	movlb	1	; select bank1
  9223  1112  008C               	movwf	12	;volatile
  9224                           
  9225                           ;user.c: 121: ANSELAbits.ANSA3 = 0;
  9226  1113  0023               	movlb	3	; select bank3
  9227  1114  118C               	bcf	12,3	;volatile
  9228                           
  9229                           ;user.c: 122: TRISAbits.TRISA3 = 0;
  9230  1115  0021               	movlb	1	; select bank1
  9231  1116  118C               	bcf	12,3	;volatile
  9232                           
  9233                           ;user.c: 125: TRISB = 0;
  9234  1117  018D               	clrf	13	;volatile
  9235                           
  9236                           ;user.c: 126: ANSELB = 0;
  9237  1118  0023               	movlb	3	; select bank3
  9238  1119  018D               	clrf	13	;volatile
  9239                           
  9240                           ;user.c: 127: TRISBbits.TRISB0 = 1;
  9241  111A  0021               	movlb	1	; select bank1
  9242  111B  140D               	bsf	13,0	;volatile
  9243                           
  9244                           ;user.c: 128: TRISBbits.TRISB5 = 1;
  9245  111C  168D               	bsf	13,5	;volatile
  9246                           
  9247                           ;user.c: 129: LATB1 = 0;
  9248  111D  0022               	movlb	2	; select bank2
  9249  111E  108D               	bcf	13,1	;volatile
  9250                           
  9251                           ;user.c: 130: TRISBbits.TRISB2 = 1;
  9252  111F  0021               	movlb	1	; select bank1
  9253  1120  150D               	bsf	13,2	;volatile
  9254                           
  9255                           ;user.c: 131: ANSELBbits.ANSB2 = 1;
  9256  1121  0023               	movlb	3	; select bank3
  9257  1122  150D               	bsf	13,2	;volatile
  9258                           
  9259                           ;user.c: 132: TRISBbits.TRISB3 = 1;
  9260  1123  0021               	movlb	1	; select bank1
  9261  1124  158D               	bsf	13,3	;volatile
  9262                           
  9263                           ;user.c: 133: TRISBbits.TRISB4 = 1;
  9264  1125  160D               	bsf	13,4	;volatile
  9265                           
  9266                           ;user.c: 134: IOCBNbits.IOCBN4 = 1;
  9267  1126  0027               	movlb	7	; select bank7
  9268  1127  1615               	bsf	21,4	;volatile
  9269                           
  9270                           ;user.c: 135: IOCBFbits.IOCBF4 = 0;
  9271  1128  1216               	bcf	22,4	;volatile
  9272                           
  9273                           ;user.c: 136: IOCBNbits.IOCBN3 = 1;
  9274  1129  1595               	bsf	21,3	;volatile
  9275                           
  9276                           ;user.c: 137: IOCBFbits.IOCBF3 = 0;
  9277  112A  1196               	bcf	22,3	;volatile
  9278                           
  9279                           ;user.c: 138: LATB5 = 0;
  9280  112B  0022               	movlb	2	; select bank2
  9281  112C  128D               	bcf	13,5	;volatile
  9282                           
  9283                           ;user.c: 141: TRISC = 0;
  9284  112D  0021               	movlb	1	; select bank1
  9285  112E  018E               	clrf	14	;volatile
  9286                           
  9287                           ;user.c: 145: OPA1CONbits.OPA1EN = 1;
  9288  112F  002A               	movlb	10	; select bank10
  9289  1130  1791               	bsf	17,7	;volatile
  9290                           
  9291                           ;user.c: 146: OPA1CONbits.OPA1SP = 0;
  9292  1131  1311               	bcf	17,6	;volatile
  9293                           
  9294                           ;user.c: 147: OPA1CONbits.OPA1PCH0 = 0b1;
  9295  1132  1411               	bsf	17,0	;volatile
  9296                           
  9297                           ;user.c: 148: OPA1CONbits.OPA1PCH1 = 0b1;
  9298  1133  1491               	bsf	17,1	;volatile
  9299                           
  9300                           ;user.c: 151: DACCON0bits.DACEN = 1;
  9301  1134  0022               	movlb	2	; select bank2
  9302  1135  1798               	bsf	24,7	;volatile
  9303                           
  9304                           ;user.c: 152: DACCON0bits.DACOE1= 1;
  9305  1136  1698               	bsf	24,5	;volatile
  9306                           
  9307                           ;user.c: 153: DACCON0bits.DACNSS = 0;
  9308  1137  1018               	bcf	24,0	;volatile
  9309                           
  9310                           ;user.c: 154: DACCON0bits.DACPSS= 0b10;
  9311  1138  0818               	movf	24,w	;volatile
  9312  1139  39F3               	andlw	-13
  9313  113A  3808               	iorlw	8
  9314  113B  0098               	movwf	24	;volatile
  9315                           
  9316                           ;user.c: 156: OPTION_REGbits.INTEDG = 0;
  9317  113C  0021               	movlb	1	; select bank1
  9318  113D  1315               	bcf	21,6	;volatile
  9319                           
  9320                           ;user.c: 157: OPTION_REGbits.PS = 0b111;
  9321  113E  3007               	movlw	7
  9322  113F  0495               	iorwf	21,f	;volatile
  9323                           
  9324                           ;user.c: 160: INTCONbits.INTF = 0;
  9325  1140  108B               	bcf	11,1	;volatile
  9326                           
  9327                           ;user.c: 161: INTCONbits.INTE = 1;
  9328  1141  160B               	bsf	11,4	;volatile
  9329                           
  9330                           ;user.c: 162: INTCONbits.GIE = 1;
  9331  1142  178B               	bsf	11,7	;volatile
  9332                           
  9333                           ;user.c: 163: INTCONbits.PEIE = 1;
  9334  1143  170B               	bsf	11,6	;volatile
  9335                           
  9336                           ;user.c: 164: PIE1bits.ADIE=1;
  9337  1144  1711               	bsf	17,6	;volatile
  9338                           
  9339                           ;user.c: 165: INTCONbits.IOCIF= 0;
  9340  1145  100B               	bcf	11,0	;volatile
  9341                           
  9342                           ;user.c: 166: INTCONbits.IOCIE= 1;
  9343  1146  158B               	bsf	11,3	;volatile
  9344                           
  9345                           ;user.c: 169: VREGCONbits.VREGPM= 1;
  9346  1147  0023               	movlb	3	; select bank3
  9347  1148  1497               	bsf	23,1	;volatile
  9348  1149  0008               	return
  9349  114A                     __end_of_InitApp:	
  9350                           
  9351                           	psect	text28
  9352  07F8                     __ptext28:	
  9353 ;; *************** function _InitADC *****************
  9354 ;; Defined at:
  9355 ;;		line 214 in file "user.c"
  9356 ;; Parameters:    Size  Location     Type
  9357 ;;		None
  9358 ;; Auto vars:     Size  Location     Type
  9359 ;;		None
  9360 ;; Return value:  Size  Location     Type
  9361 ;;                  1    wreg      void 
  9362 ;; Registers used:
  9363 ;;		wreg
  9364 ;; Tracked objects:
  9365 ;;		On entry : 0/0
  9366 ;;		On exit  : 0/0
  9367 ;;		Unchanged: 0/0
  9368 ;; Data sizes:     COMMON   BANK0   BANK1   BANK2   BANK3   BANK4   BANK5   BANK6   BANK7   BANK8   BANK9  BANK10  BANK1
      +1  BANK12
  9369 ;;      Params:         0       0       0       0       0       0       0       0       0       0       0       0       
      +0       0
  9370 ;;      Locals:         0       0       0       0       0       0       0       0       0       0       0       0       
      +0       0
  9371 ;;      Temps:          0       0       0       0       0       0       0       0       0       0       0       0       
      +0       0
  9372 ;;      Totals:         0       0       0       0       0       0       0       0       0       0       0       0       
      +0       0
  9373 ;;Total ram usage:        0 bytes
  9374 ;; Hardware stack levels used:    1
  9375 ;; Hardware stack levels required when called:    3
  9376 ;; This function calls:
  9377 ;;		Nothing
  9378 ;; This function is called by:
  9379 ;;		_HwInit
  9380 ;;		_SenseTestStrip
  9381 ;; This function uses a non-reentrant model
  9382 ;;
  9383                           
  9384                           
  9385                           ;psect for function _InitADC
  9386  07F8                     _InitADC:	
  9387                           
  9388                           ;user.c: 216: ADCON0 = 0x01;
  9389                           
  9390                           ;incstack = 0
  9391                           ; Regs used in _InitADC: [wreg]
  9392  07F8  3001               	movlw	1
  9393  07F9  0021               	movlb	1	; select bank1
  9394  07FA  009D               	movwf	29	;volatile
  9395                           
  9396                           ;user.c: 217: ADCON1 = 0xA3;
  9397  07FB  30A3               	movlw	163
  9398  07FC  009E               	movwf	30	;volatile
  9399                           
  9400                           ;user.c: 218: ADCON2 = 0x0F;
  9401  07FD  300F               	movlw	15
  9402  07FE  009F               	movwf	31	;volatile
  9403  07FF  0008               	return
  9404  0800                     __end_of_InitADC:	
  9405                           
  9406                           	psect	text29
  9407  1DAC                     __ptext29:	
  9408 ;; *************** function _ConfigureOscillator *****************
  9409 ;; Defined at:
  9410 ;;		line 188 in file "user.c"
  9411 ;; Parameters:    Size  Location     Type
  9412 ;;		None
  9413 ;; Auto vars:     Size  Location     Type
  9414 ;;		None
  9415 ;; Return value:  Size  Location     Type
  9416 ;;                  1    wreg      void 
  9417 ;; Registers used:
  9418 ;;		wreg
  9419 ;; Tracked objects:
  9420 ;;		On entry : 0/0
  9421 ;;		On exit  : 0/0
  9422 ;;		Unchanged: 0/0
  9423 ;; Data sizes:     COMMON   BANK0   BANK1   BANK2   BANK3   BANK4   BANK5   BANK6   BANK7   BANK8   BANK9  BANK10  BANK1
      +1  BANK12
  9424 ;;      Params:         0       0       0       0       0       0       0       0       0       0       0       0       
      +0       0
  9425 ;;      Locals:         0       0       0       0       0       0       0       0       0       0       0       0       
      +0       0
  9426 ;;      Temps:          0       0       0       0       0       0       0       0       0       0       0       0       
      +0       0
  9427 ;;      Totals:         0       0       0       0       0       0       0       0       0       0       0       0       
      +0       0
  9428 ;;Total ram usage:        0 bytes
  9429 ;; Hardware stack levels used:    1
  9430 ;; Hardware stack levels required when called:    3
  9431 ;; This function calls:
  9432 ;;		Nothing
  9433 ;; This function is called by:
  9434 ;;		_HwInit
  9435 ;; This function uses a non-reentrant model
  9436 ;;
  9437                           
  9438                           
  9439                           ;psect for function _ConfigureOscillator
  9440  1DAC                     _ConfigureOscillator:	
  9441                           
  9442                           ;user.c: 195: OSCCON = 0x68;
  9443                           
  9444                           ;incstack = 0
  9445                           ; Regs used in _ConfigureOscillator: [wreg]
  9446  1DAC  3068               	movlw	104
  9447  1DAD  0021               	movlb	1	; select bank1
  9448  1DAE  0099               	movwf	25	;volatile
  9449  1DAF  0008               	return
  9450  1DB0                     __end_of_ConfigureOscillator:	
  9451                           
  9452                           	psect	text30
  9453  1305                     __ptext30:	
  9454 ;; *************** function _DisplaySavedGlucoReading *****************
  9455 ;; Defined at:
  9456 ;;		line 153 in file "EEPROM.c"
  9457 ;; Parameters:    Size  Location     Type
  9458 ;;		None
  9459 ;; Auto vars:     Size  Location     Type
  9460 ;;  read_mgdl       3    2[BANK1 ] float 
  9461 ;;  read_mgdl_in    2    0[BANK1 ] int 
  9462 ;; Return value:  Size  Location     Type
  9463 ;;                  1    wreg      void 
  9464 ;; Registers used:
  9465 ;;		wreg, status,2, status,0, pclath, cstack
  9466 ;; Tracked objects:
  9467 ;;		On entry : 0/0
  9468 ;;		On exit  : 0/0
  9469 ;;		Unchanged: 0/0
  9470 ;; Data sizes:     COMMON   BANK0   BANK1   BANK2   BANK3   BANK4   BANK5   BANK6   BANK7   BANK8   BANK9  BANK10  BANK1
      +1  BANK12
  9471 ;;      Params:         0       0       0       0       0       0       0       0       0       0       0       0       
      +0       0
  9472 ;;      Locals:         0       0       5       0       0       0       0       0       0       0       0       0       
      +0       0
  9473 ;;      Temps:          0       2       0       0       0       0       0       0       0       0       0       0       
      +0       0
  9474 ;;      Totals:         0       2       5       0       0       0       0       0       0       0       0       0       
      +0       0
  9475 ;;Total ram usage:        7 bytes
  9476 ;; Hardware stack levels used:    1
  9477 ;; Hardware stack levels required when called:    6
  9478 ;; This function calls:
  9479 ;;		_LCDClear
  9480 ;;		___awdiv
  9481 ;;		___awtoft
  9482 ;;		___ftmul
  9483 ;;		___fttol
  9484 ;;		_gotoXY
  9485 ;; This function is called by:
  9486 ;;		_main
  9487 ;; This function uses a non-reentrant model
  9488 ;;
  9489                           
  9490                           
  9491                           ;psect for function _DisplaySavedGlucoReading
  9492  1305                     _DisplaySavedGlucoReading:	
  9493                           
  9494                           ;EEPROM.c: 155: float read_mgdl=0;
  9495                           
  9496                           ;incstack = 0
  9497                           ; Regs used in _DisplaySavedGlucoReading: [wreg+status,2+status,0+pclath+cstack]
  9498  1305  3000               	movlw	0
  9499  1306  0021               	movlb	1	; select bank1
  9500  1307  00E5               	movwf	DisplaySavedGlucoReading@read_mgdl^(0+128)
  9501  1308  3000               	movlw	0
  9502  1309  00E6               	movwf	(DisplaySavedGlucoReading@read_mgdl+1)^(0+128)
  9503  130A  3000               	movlw	0
  9504  130B  00E7               	movwf	(DisplaySavedGlucoReading@read_mgdl+2)^(0+128)
  9505                           
  9506                           ;EEPROM.c: 156: int read_mgdl_int = 0;
  9507  130C  01E3               	clrf	DisplaySavedGlucoReading@read_mgdl_int^(0+128)
  9508  130D  01E4               	clrf	(DisplaySavedGlucoReading@read_mgdl_int+1)^(0+128)
  9509                           
  9510                           ;EEPROM.c: 158: read_mgdl = gYmmolRead + (gYmmolDecimalRead/10);
  9511  130E  300A               	movlw	10
  9512  130F  0020               	movlb	0	; select bank0
  9513  1310  00A9               	movwf	___awdiv@divisor
  9514  1311  3000               	movlw	0
  9515  1312  00AA               	movwf	___awdiv@divisor+1
  9516  1313  0021               	movlb	1	; select bank1
  9517  1314  084E               	movf	_gYmmolDecimalRead^(0+128),w
  9518  1315  0020               	movlb	0	; select bank0
  9519  1316  00D9               	movwf	??_DisplaySavedGlucoReading
  9520  1317  01DA               	clrf	??_DisplaySavedGlucoReading+1
  9521  1318  0859               	movf	??_DisplaySavedGlucoReading,w
  9522  1319  00AB               	movwf	___awdiv@dividend
  9523  131A  085A               	movf	??_DisplaySavedGlucoReading+1,w
  9524  131B  00AC               	movwf	___awdiv@dividend+1
  9525  131C  3191  2197  3193   	fcall	___awdiv
  9526  131F  0021               	movlb	1	; select bank1
  9527  1320  084F               	movf	_gYmmolRead^(0+128),w
  9528  1321  0020               	movlb	0	; select bank0
  9529  1322  0729               	addwf	?___awdiv,w
  9530  1323  00B2               	movwf	___awtoft@c
  9531  1324  082A               	movf	?___awdiv+1,w
  9532  1325  1803               	skipnc
  9533  1326  0A2A               	incf	?___awdiv+1,w
  9534  1327  00B3               	movwf	___awtoft@c+1
  9535  1328  319F  2707  3193   	fcall	___awtoft
  9536  132B  0020               	movlb	0	; select bank0
  9537  132C  0832               	movf	?___awtoft,w
  9538  132D  0021               	movlb	1	; select bank1
  9539  132E  00E5               	movwf	DisplaySavedGlucoReading@read_mgdl^(0+128)
  9540  132F  0020               	movlb	0	; select bank0
  9541  1330  0833               	movf	?___awtoft+1,w
  9542  1331  0021               	movlb	1	; select bank1
  9543  1332  00E6               	movwf	(DisplaySavedGlucoReading@read_mgdl+1)^(0+128)
  9544  1333  0020               	movlb	0	; select bank0
  9545  1334  0834               	movf	?___awtoft+2,w
  9546  1335  0021               	movlb	1	; select bank1
  9547  1336  00E7               	movwf	(DisplaySavedGlucoReading@read_mgdl+2)^(0+128)
  9548                           
  9549                           ;EEPROM.c: 159: read_mgdl = read_mgdl*18;
  9550  1337  3000               	movlw	0
  9551  1338  0020               	movlb	0	; select bank0
  9552  1339  00C9               	movwf	___ftmul@f1
  9553  133A  3090               	movlw	144
  9554  133B  00CA               	movwf	___ftmul@f1+1
  9555  133C  3041               	movlw	65
  9556  133D  00CB               	movwf	___ftmul@f1+2
  9557  133E  0021               	movlb	1	; select bank1
  9558  133F  0865               	movf	DisplaySavedGlucoReading@read_mgdl^(0+128),w
  9559  1340  0020               	movlb	0	; select bank0
  9560  1341  00CC               	movwf	___ftmul@f2
  9561  1342  0021               	movlb	1	; select bank1
  9562  1343  0866               	movf	(DisplaySavedGlucoReading@read_mgdl+1)^(0+128),w
  9563  1344  0020               	movlb	0	; select bank0
  9564  1345  00CD               	movwf	___ftmul@f2+1
  9565  1346  0021               	movlb	1	; select bank1
  9566  1347  0867               	movf	(DisplaySavedGlucoReading@read_mgdl+2)^(0+128),w
  9567  1348  0020               	movlb	0	; select bank0
  9568  1349  00CE               	movwf	___ftmul@f2+2
  9569  134A  3188  2034  3193   	fcall	___ftmul
  9570  134D  0020               	movlb	0	; select bank0
  9571  134E  0849               	movf	?___ftmul,w
  9572  134F  0021               	movlb	1	; select bank1
  9573  1350  00E5               	movwf	DisplaySavedGlucoReading@read_mgdl^(0+128)
  9574  1351  0020               	movlb	0	; select bank0
  9575  1352  084A               	movf	?___ftmul+1,w
  9576  1353  0021               	movlb	1	; select bank1
  9577  1354  00E6               	movwf	(DisplaySavedGlucoReading@read_mgdl+1)^(0+128)
  9578  1355  0020               	movlb	0	; select bank0
  9579  1356  084B               	movf	?___ftmul+2,w
  9580  1357  0021               	movlb	1	; select bank1
  9581  1358  00E7               	movwf	(DisplaySavedGlucoReading@read_mgdl+2)^(0+128)
  9582                           
  9583                           ;EEPROM.c: 160: read_mgdl_int = (int)read_mgdl;
  9584  1359  0865               	movf	DisplaySavedGlucoReading@read_mgdl^(0+128),w
  9585  135A  0020               	movlb	0	; select bank0
  9586  135B  00A9               	movwf	___fttol@f1
  9587  135C  0021               	movlb	1	; select bank1
  9588  135D  0866               	movf	(DisplaySavedGlucoReading@read_mgdl+1)^(0+128),w
  9589  135E  0020               	movlb	0	; select bank0
  9590  135F  00AA               	movwf	___fttol@f1+1
  9591  1360  0021               	movlb	1	; select bank1
  9592  1361  0867               	movf	(DisplaySavedGlucoReading@read_mgdl+2)^(0+128),w
  9593  1362  0020               	movlb	0	; select bank0
  9594  1363  00AB               	movwf	___fttol@f1+2
  9595  1364  3193  23F2  3193   	fcall	___fttol
  9596  1367  0020               	movlb	0	; select bank0
  9597  1368  082A               	movf	?___fttol+1,w
  9598  1369  0021               	movlb	1	; select bank1
  9599  136A  00E4               	movwf	(DisplaySavedGlucoReading@read_mgdl_int+1)^(0+128)
  9600  136B  0020               	movlb	0	; select bank0
  9601  136C  0829               	movf	?___fttol,w
  9602  136D  0021               	movlb	1	; select bank1
  9603  136E  00E3               	movwf	DisplaySavedGlucoReading@read_mgdl_int^(0+128)
  9604                           
  9605                           ;EEPROM.c: 162: LCDClear();
  9606  136F  319F  274E  3193   	fcall	_LCDClear
  9607                           
  9608                           ;EEPROM.c: 164: gotoXY(0,1);
  9609  1372  0020               	movlb	0	; select bank0
  9610  1373  01B4               	clrf	gotoXY@y
  9611  1374  0AB4               	incf	gotoXY@y,f
  9612  1375  3000               	movlw	0
  9613  1376  319E  2630         	fcall	_gotoXY
  9614                           
  9615                           ;EEPROM.c: 166: __nop();
  9616  1378  0000               	nop
  9617  1379  0008               	return
  9618  137A                     __end_of_DisplaySavedGlucoReading:	
  9619                           
  9620                           	psect	text31
  9621  13F2                     __ptext31:	
  9622 ;; *************** function ___fttol *****************
  9623 ;; Defined at:
  9624 ;;		line 44 in file "C:\Program Files (x86)\Microchip\xc8\v1.37\sources\common\fttol.c"
  9625 ;; Parameters:    Size  Location     Type
  9626 ;;  f1              3    9[BANK0 ] float 
  9627 ;; Auto vars:     Size  Location     Type
  9628 ;;  lval            4   18[BANK0 ] unsigned long 
  9629 ;;  exp1            1   22[BANK0 ] unsigned char 
  9630 ;;  sign1           1   17[BANK0 ] unsigned char 
  9631 ;; Return value:  Size  Location     Type
  9632 ;;                  4    9[BANK0 ] long 
  9633 ;; Registers used:
  9634 ;;		wreg, status,2, status,0
  9635 ;; Tracked objects:
  9636 ;;		On entry : 0/0
  9637 ;;		On exit  : 0/0
  9638 ;;		Unchanged: 0/0
  9639 ;; Data sizes:     COMMON   BANK0   BANK1   BANK2   BANK3   BANK4   BANK5   BANK6   BANK7   BANK8   BANK9  BANK10  BANK1
      +1  BANK12
  9640 ;;      Params:         0       4       0       0       0       0       0       0       0       0       0       0       
      +0       0
  9641 ;;      Locals:         0       6       0       0       0       0       0       0       0       0       0       0       
      +0       0
  9642 ;;      Temps:          0       4       0       0       0       0       0       0       0       0       0       0       
      +0       0
  9643 ;;      Totals:         0      14       0       0       0       0       0       0       0       0       0       0       
      +0       0
  9644 ;;Total ram usage:       14 bytes
  9645 ;; Hardware stack levels used:    1
  9646 ;; Hardware stack levels required when called:    3
  9647 ;; This function calls:
  9648 ;;		Nothing
  9649 ;; This function is called by:
  9650 ;;		_DisplaySavedGlucoReading
  9651 ;;		_main
  9652 ;; This function uses a non-reentrant model
  9653 ;;
  9654                           
  9655                           
  9656                           ;psect for function ___fttol
  9657  13F2                     ___fttol:	
  9658                           
  9659                           ;incstack = 0
  9660                           ; Regs used in ___fttol: [wreg+status,2+status,0]
  9661  13F2  0020               	movlb	0	; select bank0
  9662  13F3  0829               	movf	___fttol@f1,w
  9663  13F4  00AD               	movwf	??___fttol
  9664  13F5  082A               	movf	___fttol@f1+1,w
  9665  13F6  00AE               	movwf	??___fttol+1
  9666  13F7  082B               	movf	___fttol@f1+2,w
  9667  13F8  00AF               	movwf	??___fttol+2
  9668  13F9  1003               	clrc
  9669  13FA  0D2E               	rlf	??___fttol+1,w
  9670  13FB  0D2F               	rlf	??___fttol+2,w
  9671  13FC  00B0               	movwf	??___fttol+3
  9672  13FD  0830               	movf	??___fttol+3,w
  9673  13FE  00B6               	movwf	___fttol@exp1
  9674  13FF  0836               	movf	___fttol@exp1,w
  9675  1400  1D03               	btfss	3,2
  9676  1401  2C0B               	goto	l5556
  9677  1402  3000               	movlw	0
  9678  1403  00AC               	movwf	?___fttol+3
  9679  1404  3000               	movlw	0
  9680  1405  00AB               	movwf	?___fttol+2
  9681  1406  3000               	movlw	0
  9682  1407  00AA               	movwf	?___fttol+1
  9683  1408  3000               	movlw	0
  9684  1409  00A9               	movwf	?___fttol
  9685  140A  0008               	return
  9686  140B                     l5556:	
  9687  140B  0829               	movf	___fttol@f1,w
  9688  140C  00AD               	movwf	??___fttol
  9689  140D  082A               	movf	___fttol@f1+1,w
  9690  140E  00AE               	movwf	??___fttol+1
  9691  140F  082B               	movf	___fttol@f1+2,w
  9692  1410  00AF               	movwf	??___fttol+2
  9693  1411  3017               	movlw	23
  9694  1412                     u5865:	
  9695  1412  36AF               	lsrf	??___fttol+2,f
  9696  1413  0CAE               	rrf	??___fttol+1,f
  9697  1414  0CAD               	rrf	??___fttol,f
  9698  1415  0B89               	decfsz	9,f
  9699  1416  2C12               	goto	u5865
  9700  1417  082D               	movf	??___fttol,w
  9701  1418  00B0               	movwf	??___fttol+3
  9702  1419  0830               	movf	??___fttol+3,w
  9703  141A  00B1               	movwf	___fttol@sign1
  9704  141B  17AA               	bsf	___fttol@f1+1,7
  9705  141C  30FF               	movlw	255
  9706  141D  05A9               	andwf	___fttol@f1,f
  9707  141E  30FF               	movlw	255
  9708  141F  05AA               	andwf	___fttol@f1+1,f
  9709  1420  3000               	movlw	0
  9710  1421  05AB               	andwf	___fttol@f1+2,f
  9711  1422  0829               	movf	___fttol@f1,w
  9712  1423  00B2               	movwf	___fttol@lval
  9713  1424  082A               	movf	___fttol@f1+1,w
  9714  1425  00B3               	movwf	___fttol@lval+1
  9715  1426  082B               	movf	___fttol@f1+2,w
  9716  1427  00B4               	movwf	___fttol@lval+2
  9717  1428  01B5               	clrf	___fttol@lval+3
  9718  1429  308E               	movlw	142
  9719  142A  02B6               	subwf	___fttol@exp1,f
  9720  142B  1FB6               	btfss	___fttol@exp1,7
  9721  142C  2C49               	goto	l5576
  9722  142D  0836               	movf	___fttol@exp1,w
  9723  142E  3A80               	xorlw	128
  9724  142F  3E8F               	addlw	143
  9725  1430  1803               	skipnc
  9726  1431  2C3B               	goto	l5574
  9727  1432  3000               	movlw	0
  9728  1433  00AC               	movwf	?___fttol+3
  9729  1434  3000               	movlw	0
  9730  1435  00AB               	movwf	?___fttol+2
  9731  1436  3000               	movlw	0
  9732  1437  00AA               	movwf	?___fttol+1
  9733  1438  3000               	movlw	0
  9734  1439  00A9               	movwf	?___fttol
  9735  143A  0008               	return
  9736  143B                     l5574:	
  9737  143B  3001               	movlw	1
  9738  143C                     u5895:	
  9739  143C  36B5               	lsrf	___fttol@lval+3,f
  9740  143D  0CB4               	rrf	___fttol@lval+2,f
  9741  143E  0CB3               	rrf	___fttol@lval+1,f
  9742  143F  0CB2               	rrf	___fttol@lval,f
  9743  1440  0B89               	decfsz	9,f
  9744  1441  2C3C               	goto	u5895
  9745  1442  3001               	movlw	1
  9746  1443  00AD               	movwf	??___fttol
  9747  1444  082D               	movf	??___fttol,w
  9748  1445  07B6               	addwf	___fttol@exp1,f
  9749  1446  1903               	btfsc	3,2
  9750  1447  2C62               	goto	l5584
  9751  1448  2C3B               	goto	l5574
  9752  1449                     l5576:	
  9753  1449  3018               	movlw	24
  9754  144A  0236               	subwf	___fttol@exp1,w
  9755  144B  1C03               	skipc
  9756  144C  2C5F               	goto	l1094
  9757  144D  3000               	movlw	0
  9758  144E  00AC               	movwf	?___fttol+3
  9759  144F  3000               	movlw	0
  9760  1450  00AB               	movwf	?___fttol+2
  9761  1451  3000               	movlw	0
  9762  1452  00AA               	movwf	?___fttol+1
  9763  1453  3000               	movlw	0
  9764  1454  00A9               	movwf	?___fttol
  9765  1455  0008               	return
  9766  1456                     l5582:	
  9767  1456  3001               	movlw	1
  9768  1457                     u5925:	
  9769  1457  35B2               	lslf	___fttol@lval,f
  9770  1458  0DB3               	rlf	___fttol@lval+1,f
  9771  1459  0DB4               	rlf	___fttol@lval+2,f
  9772  145A  0DB5               	rlf	___fttol@lval+3,f
  9773  145B  0B89               	decfsz	9,f
  9774  145C  2C57               	goto	u5925
  9775  145D  3001               	movlw	1
  9776  145E  02B6               	subwf	___fttol@exp1,f
  9777  145F                     l1094:	
  9778  145F  0836               	movf	___fttol@exp1,w
  9779  1460  1D03               	btfss	3,2
  9780  1461  2C56               	goto	l5582
  9781  1462                     l5584:	
  9782  1462  0831               	movf	___fttol@sign1,w
  9783  1463  1903               	btfsc	3,2
  9784  1464  2C70               	goto	l5588
  9785  1465  09B2               	comf	___fttol@lval,f
  9786  1466  09B3               	comf	___fttol@lval+1,f
  9787  1467  09B4               	comf	___fttol@lval+2,f
  9788  1468  09B5               	comf	___fttol@lval+3,f
  9789  1469  0AB2               	incf	___fttol@lval,f
  9790  146A  1903               	skipnz
  9791  146B  0AB3               	incf	___fttol@lval+1,f
  9792  146C  1903               	skipnz
  9793  146D  0AB4               	incf	___fttol@lval+2,f
  9794  146E  1903               	skipnz
  9795  146F  0AB5               	incf	___fttol@lval+3,f
  9796  1470                     l5588:	
  9797  1470  0835               	movf	___fttol@lval+3,w
  9798  1471  00AC               	movwf	?___fttol+3
  9799  1472  0834               	movf	___fttol@lval+2,w
  9800  1473  00AB               	movwf	?___fttol+2
  9801  1474  0833               	movf	___fttol@lval+1,w
  9802  1475  00AA               	movwf	?___fttol+1
  9803  1476  0832               	movf	___fttol@lval,w
  9804  1477  00A9               	movwf	?___fttol
  9805  1478  0008               	return
  9806  1479                     __end_of___fttol:	
  9807                           
  9808                           	psect	text32
  9809  1197                     __ptext32:	
  9810 ;; *************** function ___awdiv *****************
  9811 ;; Defined at:
  9812 ;;		line 6 in file "C:\Program Files (x86)\Microchip\xc8\v1.37\sources\common\awdiv.c"
  9813 ;; Parameters:    Size  Location     Type
  9814 ;;  divisor         2    9[BANK0 ] int 
  9815 ;;  dividend        2   11[BANK0 ] int 
  9816 ;; Auto vars:     Size  Location     Type
  9817 ;;  quotient        2   16[BANK0 ] int 
  9818 ;;  sign            1   15[BANK0 ] unsigned char 
  9819 ;;  counter         1   14[BANK0 ] unsigned char 
  9820 ;; Return value:  Size  Location     Type
  9821 ;;                  2    9[BANK0 ] int 
  9822 ;; Registers used:
  9823 ;;		wreg, status,2, status,0
  9824 ;; Tracked objects:
  9825 ;;		On entry : 0/0
  9826 ;;		On exit  : 0/0
  9827 ;;		Unchanged: 0/0
  9828 ;; Data sizes:     COMMON   BANK0   BANK1   BANK2   BANK3   BANK4   BANK5   BANK6   BANK7   BANK8   BANK9  BANK10  BANK1
      +1  BANK12
  9829 ;;      Params:         0       4       0       0       0       0       0       0       0       0       0       0       
      +0       0
  9830 ;;      Locals:         0       4       0       0       0       0       0       0       0       0       0       0       
      +0       0
  9831 ;;      Temps:          0       1       0       0       0       0       0       0       0       0       0       0       
      +0       0
  9832 ;;      Totals:         0       9       0       0       0       0       0       0       0       0       0       0       
      +0       0
  9833 ;;Total ram usage:        9 bytes
  9834 ;; Hardware stack levels used:    1
  9835 ;; Hardware stack levels required when called:    3
  9836 ;; This function calls:
  9837 ;;		Nothing
  9838 ;; This function is called by:
  9839 ;;		_DisplaySavedGlucoReading
  9840 ;; This function uses a non-reentrant model
  9841 ;;
  9842                           
  9843                           
  9844                           ;psect for function ___awdiv
  9845  1197                     ___awdiv:	
  9846                           
  9847                           ;incstack = 0
  9848                           ; Regs used in ___awdiv: [wreg+status,2+status,0]
  9849  1197  0020               	movlb	0	; select bank0
  9850  1198  01AF               	clrf	___awdiv@sign
  9851  1199  1FAA               	btfss	___awdiv@divisor+1,7
  9852  119A  29A2               	goto	l5362
  9853  119B  09A9               	comf	___awdiv@divisor,f
  9854  119C  09AA               	comf	___awdiv@divisor+1,f
  9855  119D  0AA9               	incf	___awdiv@divisor,f
  9856  119E  1903               	skipnz
  9857  119F  0AAA               	incf	___awdiv@divisor+1,f
  9858  11A0  01AF               	clrf	___awdiv@sign
  9859  11A1  0AAF               	incf	___awdiv@sign,f
  9860  11A2                     l5362:	
  9861  11A2  1FAC               	btfss	___awdiv@dividend+1,7
  9862  11A3  29AD               	goto	l5368
  9863  11A4  09AB               	comf	___awdiv@dividend,f
  9864  11A5  09AC               	comf	___awdiv@dividend+1,f
  9865  11A6  0AAB               	incf	___awdiv@dividend,f
  9866  11A7  1903               	skipnz
  9867  11A8  0AAC               	incf	___awdiv@dividend+1,f
  9868  11A9  3001               	movlw	1
  9869  11AA  00AD               	movwf	??___awdiv
  9870  11AB  082D               	movf	??___awdiv,w
  9871  11AC  06AF               	xorwf	___awdiv@sign,f
  9872  11AD                     l5368:	
  9873  11AD  01B0               	clrf	___awdiv@quotient
  9874  11AE  01B1               	clrf	___awdiv@quotient+1
  9875  11AF  0829               	movf	___awdiv@divisor,w
  9876  11B0  042A               	iorwf	___awdiv@divisor+1,w
  9877  11B1  1903               	btfsc	3,2
  9878  11B2  29DC               	goto	l5390
  9879  11B3  01AE               	clrf	___awdiv@counter
  9880  11B4  0AAE               	incf	___awdiv@counter,f
  9881  11B5                     l5378:	
  9882  11B5  1BAA               	btfsc	___awdiv@divisor+1,7
  9883  11B6  29C1               	goto	l5380
  9884  11B7  3001               	movlw	1
  9885  11B8                     u5395:	
  9886  11B8  35A9               	lslf	___awdiv@divisor,f
  9887  11B9  0DAA               	rlf	___awdiv@divisor+1,f
  9888  11BA  0B89               	decfsz	9,f
  9889  11BB  29B8               	goto	u5395
  9890  11BC  3001               	movlw	1
  9891  11BD  00AD               	movwf	??___awdiv
  9892  11BE  082D               	movf	??___awdiv,w
  9893  11BF  07AE               	addwf	___awdiv@counter,f
  9894  11C0  29B5               	goto	l5378
  9895  11C1                     l5380:	
  9896  11C1  3001               	movlw	1
  9897  11C2                     u5415:	
  9898  11C2  35B0               	lslf	___awdiv@quotient,f
  9899  11C3  0DB1               	rlf	___awdiv@quotient+1,f
  9900  11C4  0B89               	decfsz	9,f
  9901  11C5  29C2               	goto	u5415
  9902  11C6  082A               	movf	___awdiv@divisor+1,w
  9903  11C7  022C               	subwf	___awdiv@dividend+1,w
  9904  11C8  1D03               	skipz
  9905  11C9  29CC               	goto	u5425
  9906  11CA  0829               	movf	___awdiv@divisor,w
  9907  11CB  022B               	subwf	___awdiv@dividend,w
  9908  11CC                     u5425:	
  9909  11CC  1C03               	skipc
  9910  11CD  29D3               	goto	l5386
  9911  11CE  0829               	movf	___awdiv@divisor,w
  9912  11CF  02AB               	subwf	___awdiv@dividend,f
  9913  11D0  082A               	movf	___awdiv@divisor+1,w
  9914  11D1  3BAC               	subwfb	___awdiv@dividend+1,f
  9915  11D2  1430               	bsf	___awdiv@quotient,0
  9916  11D3                     l5386:	
  9917  11D3  3001               	movlw	1
  9918  11D4                     u5435:	
  9919  11D4  36AA               	lsrf	___awdiv@divisor+1,f
  9920  11D5  0CA9               	rrf	___awdiv@divisor,f
  9921  11D6  0B89               	decfsz	9,f
  9922  11D7  29D4               	goto	u5435
  9923  11D8  3001               	movlw	1
  9924  11D9  02AE               	subwf	___awdiv@counter,f
  9925  11DA  1D03               	btfss	3,2
  9926  11DB  29C1               	goto	l5380
  9927  11DC                     l5390:	
  9928  11DC  082F               	movf	___awdiv@sign,w
  9929  11DD  1903               	btfsc	3,2
  9930  11DE  29E4               	goto	l5394
  9931  11DF  09B0               	comf	___awdiv@quotient,f
  9932  11E0  09B1               	comf	___awdiv@quotient+1,f
  9933  11E1  0AB0               	incf	___awdiv@quotient,f
  9934  11E2  1903               	skipnz
  9935  11E3  0AB1               	incf	___awdiv@quotient+1,f
  9936  11E4                     l5394:	
  9937  11E4  0831               	movf	___awdiv@quotient+1,w
  9938  11E5  00AA               	movwf	?___awdiv+1
  9939  11E6  0830               	movf	___awdiv@quotient,w
  9940  11E7  00A9               	movwf	?___awdiv
  9941  11E8  0008               	return
  9942  11E9                     __end_of___awdiv:	
  9943                           
  9944                           	psect	text33
  9945  1F4E                     __ptext33:	
  9946 ;; *************** function _LCDClear *****************
  9947 ;; Defined at:
  9948 ;;		line 226 in file "Nokia5110/Nokia.c"
  9949 ;; Parameters:    Size  Location     Type
  9950 ;;		None
  9951 ;; Auto vars:     Size  Location     Type
  9952 ;;  index           2   24[BANK0 ] int 
  9953 ;; Return value:  Size  Location     Type
  9954 ;;                  1    wreg      void 
  9955 ;; Registers used:
  9956 ;;		wreg, status,2, status,0, pclath, cstack
  9957 ;; Tracked objects:
  9958 ;;		On entry : 0/0
  9959 ;;		On exit  : 0/0
  9960 ;;		Unchanged: 0/0
  9961 ;; Data sizes:     COMMON   BANK0   BANK1   BANK2   BANK3   BANK4   BANK5   BANK6   BANK7   BANK8   BANK9  BANK10  BANK1
      +1  BANK12
  9962 ;;      Params:         0       0       0       0       0       0       0       0       0       0       0       0       
      +0       0
  9963 ;;      Locals:         0       2       0       0       0       0       0       0       0       0       0       0       
      +0       0
  9964 ;;      Temps:          0       1       0       0       0       0       0       0       0       0       0       0       
      +0       0
  9965 ;;      Totals:         0       3       0       0       0       0       0       0       0       0       0       0       
      +0       0
  9966 ;;Total ram usage:        3 bytes
  9967 ;; Hardware stack levels used:    1
  9968 ;; Hardware stack levels required when called:    5
  9969 ;; This function calls:
  9970 ;;		_LCDWrite
  9971 ;;		_gotoXY
  9972 ;; This function is called by:
  9973 ;;		_SetTime
  9974 ;;		_DisplaySavedGlucoReading
  9975 ;;		_main
  9976 ;;		_SenseTestStrip
  9977 ;; This function uses a non-reentrant model
  9978 ;;
  9979                           
  9980                           
  9981                           ;psect for function _LCDClear
  9982  1F4E                     _LCDClear:	
  9983                           
  9984                           ;Nokia.c: 227: for (int index = 0 ; index < (84 * (48 / 8)) ; index++){
  9985                           
  9986                           ;incstack = 0
  9987                           ; Regs used in _LCDClear: [wreg+status,2+status,0+pclath+cstack]
  9988  1F4E  0020               	movlb	0	; select bank0
  9989  1F4F  01B8               	clrf	LCDClear@index
  9990  1F50  01B9               	clrf	LCDClear@index+1
  9991  1F51  0839               	movf	LCDClear@index+1,w
  9992  1F52  3A80               	xorlw	128
  9993  1F53  00B7               	movwf	??_LCDClear
  9994  1F54  3081               	movlw	129
  9995  1F55  0237               	subwf	??_LCDClear,w
  9996  1F56  1D03               	skipz
  9997  1F57  2F5A               	goto	u5235
  9998  1F58  30F8               	movlw	248
  9999  1F59  0238               	subwf	LCDClear@index,w
 10000  1F5A                     u5235:	
 10001  1F5A  1803               	btfsc	3,0
 10002  1F5B  2F72               	goto	l5198
 10003  1F5C                     l5192:	
 10004                           
 10005                           ;Nokia.c: 228: LCDWrite(1, 0x00);
 10006  1F5C  0020               	movlb	0	; select bank0
 10007  1F5D  01AF               	clrf	LCDWrite@data
 10008  1F5E  3001               	movlw	1
 10009  1F5F  319F  27D1  319F   	fcall	_LCDWrite
 10010  1F62  3001               	movlw	1
 10011  1F63  0020               	movlb	0	; select bank0
 10012  1F64  07B8               	addwf	LCDClear@index,f
 10013  1F65  3000               	movlw	0
 10014  1F66  3DB9               	addwfc	LCDClear@index+1,f
 10015  1F67  0839               	movf	LCDClear@index+1,w
 10016  1F68  3A80               	xorlw	128
 10017  1F69  00B7               	movwf	??_LCDClear
 10018  1F6A  3081               	movlw	129
 10019  1F6B  0237               	subwf	??_LCDClear,w
 10020  1F6C  1D03               	skipz
 10021  1F6D  2F70               	goto	u5245
 10022  1F6E  30F8               	movlw	248
 10023  1F6F  0238               	subwf	LCDClear@index,w
 10024  1F70                     u5245:	
 10025  1F70  1C03               	skipc
 10026  1F71  2F5C               	goto	l5192
 10027  1F72                     l5198:	
 10028                           
 10029                           ;Nokia.c: 229: }
 10030                           ;Nokia.c: 230: gotoXY(0, 0);
 10031  1F72  0020               	movlb	0	; select bank0
 10032  1F73  01B4               	clrf	gotoXY@y
 10033  1F74  3000               	movlw	0
 10034  1F75  319E  2630         	fcall	_gotoXY
 10035  1F77  0008               	return
 10036  1F78                     __end_of_LCDClear:	
 10037                           
 10038                           	psect	text34
 10039  1E30                     __ptext34:	
 10040 ;; *************** function _gotoXY *****************
 10041 ;; Defined at:
 10042 ;;		line 190 in file "Nokia5110/Nokia.c"
 10043 ;; Parameters:    Size  Location     Type
 10044 ;;  x               1    wreg     unsigned char 
 10045 ;;  y               1   20[BANK0 ] unsigned char 
 10046 ;; Auto vars:     Size  Location     Type
 10047 ;;  x               1   22[BANK0 ] unsigned char 
 10048 ;; Return value:  Size  Location     Type
 10049 ;;                  1    wreg      void 
 10050 ;; Registers used:
 10051 ;;		wreg, status,2, status,0, pclath, cstack
 10052 ;; Tracked objects:
 10053 ;;		On entry : 0/0
 10054 ;;		On exit  : 0/0
 10055 ;;		Unchanged: 0/0
 10056 ;; Data sizes:     COMMON   BANK0   BANK1   BANK2   BANK3   BANK4   BANK5   BANK6   BANK7   BANK8   BANK9  BANK10  BANK1
      +1  BANK12
 10057 ;;      Params:         0       1       0       0       0       0       0       0       0       0       0       0       
      +0       0
 10058 ;;      Locals:         0       1       0       0       0       0       0       0       0       0       0       0       
      +0       0
 10059 ;;      Temps:          0       1       0       0       0       0       0       0       0       0       0       0       
      +0       0
 10060 ;;      Totals:         0       3       0       0       0       0       0       0       0       0       0       0       
      +0       0
 10061 ;;Total ram usage:        3 bytes
 10062 ;; Hardware stack levels used:    1
 10063 ;; Hardware stack levels required when called:    4
 10064 ;; This function calls:
 10065 ;;		_LCDWrite
 10066 ;; This function is called by:
 10067 ;;		_SetTime
 10068 ;;		_DisplaySavedGlucoReading
 10069 ;;		_main
 10070 ;;		_SenseTestStrip
 10071 ;;		_LCDClear
 10072 ;; This function uses a non-reentrant model
 10073 ;;
 10074                           
 10075                           
 10076                           ;psect for function _gotoXY
 10077  1E30                     _gotoXY:	
 10078                           
 10079                           ;incstack = 0
 10080                           ; Regs used in _gotoXY: [wreg+status,2+status,0+pclath+cstack]
 10081                           ;gotoXY@x stored from wreg
 10082  1E30  0020               	movlb	0	; select bank0
 10083  1E31  00B6               	movwf	gotoXY@x
 10084                           
 10085                           ;Nokia.c: 191: LCDWrite(0, 0x80 | x);
 10086  1E32  0836               	movf	gotoXY@x,w
 10087  1E33  3880               	iorlw	128
 10088  1E34  00B5               	movwf	??_gotoXY
 10089  1E35  0835               	movf	??_gotoXY,w
 10090  1E36  00AF               	movwf	LCDWrite@data
 10091  1E37  3000               	movlw	0
 10092  1E38  319F  27D1  319E   	fcall	_LCDWrite
 10093                           
 10094                           ;Nokia.c: 192: LCDWrite(0, 0x40 | y);
 10095  1E3B  0020               	movlb	0	; select bank0
 10096  1E3C  0834               	movf	gotoXY@y,w
 10097  1E3D  3840               	iorlw	64
 10098  1E3E  00B5               	movwf	??_gotoXY
 10099  1E3F  0835               	movf	??_gotoXY,w
 10100  1E40  00AF               	movwf	LCDWrite@data
 10101  1E41  3000               	movlw	0
 10102  1E42  319F  27D1         	fcall	_LCDWrite
 10103  1E44  0008               	return
 10104  1E45                     __end_of_gotoXY:	
 10105                           
 10106                           	psect	text35
 10107  1FD1                     __ptext35:	
 10108 ;; *************** function _LCDWrite *****************
 10109 ;; Defined at:
 10110 ;;		line 263 in file "Nokia5110/Nokia.c"
 10111 ;; Parameters:    Size  Location     Type
 10112 ;;  data_or_comm    1    wreg     unsigned char 
 10113 ;;  data            1   15[BANK0 ] unsigned char 
 10114 ;; Auto vars:     Size  Location     Type
 10115 ;;  data_or_comm    1   17[BANK0 ] unsigned char 
 10116 ;;  i               1   19[BANK0 ] unsigned char 
 10117 ;;  d               1   18[BANK0 ] unsigned char 
 10118 ;; Return value:  Size  Location     Type
 10119 ;;                  1    wreg      void 
 10120 ;; Registers used:
 10121 ;;		wreg, status,2, status,0
 10122 ;; Tracked objects:
 10123 ;;		On entry : 0/0
 10124 ;;		On exit  : 0/0
 10125 ;;		Unchanged: 0/0
 10126 ;; Data sizes:     COMMON   BANK0   BANK1   BANK2   BANK3   BANK4   BANK5   BANK6   BANK7   BANK8   BANK9  BANK10  BANK1
      +1  BANK12
 10127 ;;      Params:         0       1       0       0       0       0       0       0       0       0       0       0       
      +0       0
 10128 ;;      Locals:         0       3       0       0       0       0       0       0       0       0       0       0       
      +0       0
 10129 ;;      Temps:          0       1       0       0       0       0       0       0       0       0       0       0       
      +0       0
 10130 ;;      Totals:         0       5       0       0       0       0       0       0       0       0       0       0       
      +0       0
 10131 ;;Total ram usage:        5 bytes
 10132 ;; Hardware stack levels used:    1
 10133 ;; Hardware stack levels required when called:    3
 10134 ;; This function calls:
 10135 ;;		Nothing
 10136 ;; This function is called by:
 10137 ;;		_main
 10138 ;;		_gotoXY
 10139 ;;		_LCDCharacter
 10140 ;;		_LCDClear
 10141 ;;		_LCDInit
 10142 ;;		_LCDBigNum
 10143 ;; This function uses a non-reentrant model
 10144 ;;
 10145                           
 10146                           
 10147                           ;psect for function _LCDWrite
 10148  1FD1                     _LCDWrite:	
 10149                           
 10150                           ;incstack = 0
 10151                           ; Regs used in _LCDWrite: [wreg+status,2+status,0]
 10152                           ;LCDWrite@data_or_command stored from wreg
 10153  1FD1  0020               	movlb	0	; select bank0
 10154  1FD2  00B1               	movwf	LCDWrite@data_or_command
 10155                           
 10156                           ;Nokia.c: 264: char i,d;
 10157                           ;Nokia.c: 265: d=data;
 10158  1FD3  082F               	movf	LCDWrite@data,w
 10159  1FD4  00B0               	movwf	??_LCDWrite
 10160  1FD5  0830               	movf	??_LCDWrite,w
 10161  1FD6  00B2               	movwf	LCDWrite@d
 10162                           
 10163                           ;Nokia.c: 266: if(data_or_command==0)LATCbits.LATC3=0;
 10164  1FD7  0831               	movf	LCDWrite@data_or_command,w
 10165  1FD8  1D03               	btfss	3,2
 10166  1FD9  2FDD               	goto	l648
 10167  1FDA  0022               	movlb	2	; select bank2
 10168  1FDB  118E               	bcf	14,3	;volatile
 10169  1FDC  2FDF               	goto	l649
 10170  1FDD                     l648:	
 10171                           
 10172                           ;Nokia.c: 267: else LATCbits.LATC3=1;
 10173  1FDD  0022               	movlb	2	; select bank2
 10174  1FDE  158E               	bsf	14,3	;volatile
 10175  1FDF                     l649:	
 10176                           
 10177                           ;Nokia.c: 270: LATCbits.LATC6=0;
 10178  1FDF  130E               	bcf	14,6	;volatile
 10179                           
 10180                           ;Nokia.c: 272: for(i=0;i<8;i++) {
 10181  1FE0  0020               	movlb	0	; select bank0
 10182  1FE1  01B3               	clrf	LCDWrite@i
 10183  1FE2  3008               	movlw	8
 10184  1FE3  0233               	subwf	LCDWrite@i,w
 10185  1FE4  1803               	btfsc	3,0
 10186  1FE5  2FFD               	goto	l651
 10187  1FE6                     l650:	
 10188                           
 10189                           ;Nokia.c: 273: LATCbits.LATC4=0;
 10190  1FE6  0022               	movlb	2	; select bank2
 10191  1FE7  120E               	bcf	14,4	;volatile
 10192                           
 10193                           ;Nokia.c: 274: if(d&0x80)LATCbits.LATC4=1;
 10194  1FE8  0020               	movlb	0	; select bank0
 10195  1FE9  1FB2               	btfss	LCDWrite@d,7
 10196  1FEA  2FED               	goto	l652
 10197  1FEB  0022               	movlb	2	; select bank2
 10198  1FEC  160E               	bsf	14,4	;volatile
 10199  1FED                     l652:	
 10200                           
 10201                           ;Nokia.c: 275: LATCbits.LATC5=1;
 10202  1FED  0022               	movlb	2	; select bank2
 10203  1FEE  168E               	bsf	14,5	;volatile
 10204                           
 10205                           ;Nokia.c: 276: d<<=1;
 10206  1FEF  1003               	clrc
 10207  1FF0  0020               	movlb	0	; select bank0
 10208  1FF1  0DB2               	rlf	LCDWrite@d,f
 10209                           
 10210                           ;Nokia.c: 277: LATCbits.LATC5=0;
 10211  1FF2  0022               	movlb	2	; select bank2
 10212  1FF3  128E               	bcf	14,5	;volatile
 10213  1FF4  3001               	movlw	1
 10214  1FF5  0020               	movlb	0	; select bank0
 10215  1FF6  00B0               	movwf	??_LCDWrite
 10216  1FF7  0830               	movf	??_LCDWrite,w
 10217  1FF8  07B3               	addwf	LCDWrite@i,f
 10218  1FF9  3008               	movlw	8
 10219  1FFA  0233               	subwf	LCDWrite@i,w
 10220  1FFB  1C03               	skipc
 10221  1FFC  2FE6               	goto	l650
 10222  1FFD                     l651:	
 10223                           
 10224                           ;Nokia.c: 278: }
 10225                           ;Nokia.c: 279: LATCbits.LATC6=1;
 10226  1FFD  0022               	movlb	2	; select bank2
 10227  1FFE  170E               	bsf	14,6	;volatile
 10228  1FFF  0008               	return
 10229  2000                     __end_of_LCDWrite:	
 10230                           
 10231                           	psect	text36
 10232  107B                     __ptext36:	
 10233 ;; *************** function _Delay_1_Second *****************
 10234 ;; Defined at:
 10235 ;;		line 536 in file "user.c"
 10236 ;; Parameters:    Size  Location     Type
 10237 ;;		None
 10238 ;; Auto vars:     Size  Location     Type
 10239 ;;		None
 10240 ;; Return value:  Size  Location     Type
 10241 ;;                  1    wreg      void 
 10242 ;; Registers used:
 10243 ;;		wreg
 10244 ;; Tracked objects:
 10245 ;;		On entry : 0/0
 10246 ;;		On exit  : 0/0
 10247 ;;		Unchanged: 0/0
 10248 ;; Data sizes:     COMMON   BANK0   BANK1   BANK2   BANK3   BANK4   BANK5   BANK6   BANK7   BANK8   BANK9  BANK10  BANK1
      +1  BANK12
 10249 ;;      Params:         0       0       0       0       0       0       0       0       0       0       0       0       
      +0       0
 10250 ;;      Locals:         0       0       0       0       0       0       0       0       0       0       0       0       
      +0       0
 10251 ;;      Temps:          0       3       0       0       0       0       0       0       0       0       0       0       
      +0       0
 10252 ;;      Totals:         0       3       0       0       0       0       0       0       0       0       0       0       
      +0       0
 10253 ;;Total ram usage:        3 bytes
 10254 ;; Hardware stack levels used:    1
 10255 ;; Hardware stack levels required when called:    3
 10256 ;; This function calls:
 10257 ;;		Nothing
 10258 ;; This function is called by:
 10259 ;;		_main
 10260 ;; This function uses a non-reentrant model
 10261 ;;
 10262                           
 10263                           
 10264                           ;psect for function _Delay_1_Second
 10265  107B                     _Delay_1_Second:	
 10266                           
 10267                           ;user.c: 538: _delay((unsigned long)((200)*(8000000/4000.0)));
 10268                           
 10269                           ;incstack = 0
 10270                           ; Regs used in _Delay_1_Second: [wreg]
 10271  107B  3003               	movlw	3
 10272  107C  0020               	movlb	0	; select bank0
 10273  107D  00AB               	movwf	??_Delay_1_Second+2
 10274  107E  3008               	movlw	8
 10275  107F  00AA               	movwf	??_Delay_1_Second+1
 10276  1080  3078               	movlw	120
 10277  1081  00A9               	movwf	??_Delay_1_Second
 10278  1082                     u6677:	
 10279  1082  0BA9               	decfsz	??_Delay_1_Second,f
 10280  1083  2882               	goto	u6677
 10281  1084  0BAA               	decfsz	??_Delay_1_Second+1,f
 10282  1085  2882               	goto	u6677
 10283  1086  0BAB               	decfsz	??_Delay_1_Second+2,f
 10284  1087  2882               	goto	u6677
 10285                           
 10286                           ;user.c: 539: _delay((unsigned long)((200)*(8000000/4000.0)));
 10287  1088  3003               	movlw	3
 10288  1089  0020               	movlb	0	; select bank0
 10289  108A  00AB               	movwf	??_Delay_1_Second+2
 10290  108B  3008               	movlw	8
 10291  108C  00AA               	movwf	??_Delay_1_Second+1
 10292  108D  3078               	movlw	120
 10293  108E  00A9               	movwf	??_Delay_1_Second
 10294  108F                     u6687:	
 10295  108F  0BA9               	decfsz	??_Delay_1_Second,f
 10296  1090  288F               	goto	u6687
 10297  1091  0BAA               	decfsz	??_Delay_1_Second+1,f
 10298  1092  288F               	goto	u6687
 10299  1093  0BAB               	decfsz	??_Delay_1_Second+2,f
 10300  1094  288F               	goto	u6687
 10301                           
 10302                           ;user.c: 540: _delay((unsigned long)((200)*(8000000/4000.0)));
 10303  1095  3003               	movlw	3
 10304  1096  0020               	movlb	0	; select bank0
 10305  1097  00AB               	movwf	??_Delay_1_Second+2
 10306  1098  3008               	movlw	8
 10307  1099  00AA               	movwf	??_Delay_1_Second+1
 10308  109A  3078               	movlw	120
 10309  109B  00A9               	movwf	??_Delay_1_Second
 10310  109C                     u6697:	
 10311  109C  0BA9               	decfsz	??_Delay_1_Second,f
 10312  109D  289C               	goto	u6697
 10313  109E  0BAA               	decfsz	??_Delay_1_Second+1,f
 10314  109F  289C               	goto	u6697
 10315  10A0  0BAB               	decfsz	??_Delay_1_Second+2,f
 10316  10A1  289C               	goto	u6697
 10317                           
 10318                           ;user.c: 541: _delay((unsigned long)((200)*(8000000/4000.0)));
 10319  10A2  3003               	movlw	3
 10320  10A3  0020               	movlb	0	; select bank0
 10321  10A4  00AB               	movwf	??_Delay_1_Second+2
 10322  10A5  3008               	movlw	8
 10323  10A6  00AA               	movwf	??_Delay_1_Second+1
 10324  10A7  3078               	movlw	120
 10325  10A8  00A9               	movwf	??_Delay_1_Second
 10326  10A9                     u6707:	
 10327  10A9  0BA9               	decfsz	??_Delay_1_Second,f
 10328  10AA  28A9               	goto	u6707
 10329  10AB  0BAA               	decfsz	??_Delay_1_Second+1,f
 10330  10AC  28A9               	goto	u6707
 10331  10AD  0BAB               	decfsz	??_Delay_1_Second+2,f
 10332  10AE  28A9               	goto	u6707
 10333                           
 10334                           ;user.c: 542: _delay((unsigned long)((200)*(8000000/4000.0)));
 10335  10AF  3003               	movlw	3
 10336  10B0  0020               	movlb	0	; select bank0
 10337  10B1  00AB               	movwf	??_Delay_1_Second+2
 10338  10B2  3008               	movlw	8
 10339  10B3  00AA               	movwf	??_Delay_1_Second+1
 10340  10B4  3078               	movlw	120
 10341  10B5  00A9               	movwf	??_Delay_1_Second
 10342  10B6                     u6717:	
 10343  10B6  0BA9               	decfsz	??_Delay_1_Second,f
 10344  10B7  28B6               	goto	u6717
 10345  10B8  0BAA               	decfsz	??_Delay_1_Second+1,f
 10346  10B9  28B6               	goto	u6717
 10347  10BA  0BAB               	decfsz	??_Delay_1_Second+2,f
 10348  10BB  28B6               	goto	u6717
 10349  10BC  0008               	return
 10350  10BD                     __end_of_Delay_1_Second:	
 10351                           
 10352                           	psect	text37
 10353  1479                     __ptext37:	
 10354 ;; *************** function _CalcGlucose *****************
 10355 ;; Defined at:
 10356 ;;		line 407 in file "glucose_meter_main.c"
 10357 ;; Parameters:    Size  Location     Type
 10358 ;;		None
 10359 ;; Auto vars:     Size  Location     Type
 10360 ;;		None
 10361 ;; Return value:  Size  Location     Type
 10362 ;;                  1    wreg      void 
 10363 ;; Registers used:
 10364 ;;		wreg, status,2, status,0, pclath, cstack
 10365 ;; Tracked objects:
 10366 ;;		On entry : 0/0
 10367 ;;		On exit  : 0/0
 10368 ;;		Unchanged: 0/0
 10369 ;; Data sizes:     COMMON   BANK0   BANK1   BANK2   BANK3   BANK4   BANK5   BANK6   BANK7   BANK8   BANK9  BANK10  BANK1
      +1  BANK12
 10370 ;;      Params:         0       0       0       0       0       0       0       0       0       0       0       0       
      +0       0
 10371 ;;      Locals:         0       0       0       0       0       0       0       0       0       0       0       0       
      +0       0
 10372 ;;      Temps:          0       0       0       0       0       0       0       0       0       0       0       0       
      +0       0
 10373 ;;      Totals:         0       0       0       0       0       0       0       0       0       0       0       0       
      +0       0
 10374 ;;Total ram usage:        0 bytes
 10375 ;; Hardware stack levels used:    1
 10376 ;; Hardware stack levels required when called:    5
 10377 ;; This function calls:
 10378 ;;		___awtoft
 10379 ;;		___ftadd
 10380 ;;		___ftge
 10381 ;;		___ftmul
 10382 ;; This function is called by:
 10383 ;;		_main
 10384 ;; This function uses a non-reentrant model
 10385 ;;
 10386                           
 10387                           
 10388                           ;psect for function _CalcGlucose
 10389  1479                     _CalcGlucose:	
 10390                           
 10391                           ;glucose_meter_main.c: 413: gXadc = (float) gcaptured2SValue;
 10392                           
 10393                           ;incstack = 0
 10394                           ; Regs used in _CalcGlucose: [wreg+status,2+status,0+pclath+cstack]
 10395  1479  0021               	movlb	1	; select bank1
 10396  147A  083F               	movf	(_gcaptured2SValue+1)^(0+128),w
 10397  147B  0020               	movlb	0	; select bank0
 10398  147C  00B3               	movwf	___awtoft@c+1
 10399  147D  0021               	movlb	1	; select bank1
 10400  147E  083E               	movf	_gcaptured2SValue^(0+128),w
 10401  147F  0020               	movlb	0	; select bank0
 10402  1480  00B2               	movwf	___awtoft@c
 10403  1481  319F  2707  3194   	fcall	___awtoft
 10404  1484  0020               	movlb	0	; select bank0
 10405  1485  0832               	movf	?___awtoft,w
 10406  1486  0021               	movlb	1	; select bank1
 10407  1487  00D0               	movwf	_gXadc^(0+128)
 10408  1488  0020               	movlb	0	; select bank0
 10409  1489  0833               	movf	?___awtoft+1,w
 10410  148A  0021               	movlb	1	; select bank1
 10411  148B  00D1               	movwf	(_gXadc+1)^(0+128)
 10412  148C  0020               	movlb	0	; select bank0
 10413  148D  0834               	movf	?___awtoft+2,w
 10414  148E  0021               	movlb	1	; select bank1
 10415  148F  00D2               	movwf	(_gXadc+2)^(0+128)
 10416                           
 10417                           ;glucose_meter_main.c: 415: if (gXadc <=1400)
 10418  1490  3000               	movlw	0
 10419  1491  0020               	movlb	0	; select bank0
 10420  1492  00A9               	movwf	___ftge@ff1
 10421  1493  30AF               	movlw	175
 10422  1494  00AA               	movwf	___ftge@ff1+1
 10423  1495  3044               	movlw	68
 10424  1496  00AB               	movwf	___ftge@ff1+2
 10425  1497  0021               	movlb	1	; select bank1
 10426  1498  0850               	movf	_gXadc^(0+128),w
 10427  1499  0020               	movlb	0	; select bank0
 10428  149A  00AC               	movwf	___ftge@ff2
 10429  149B  0021               	movlb	1	; select bank1
 10430  149C  0851               	movf	(_gXadc+1)^(0+128),w
 10431  149D  0020               	movlb	0	; select bank0
 10432  149E  00AD               	movwf	___ftge@ff2+1
 10433  149F  0021               	movlb	1	; select bank1
 10434  14A0  0852               	movf	(_gXadc+2)^(0+128),w
 10435  14A1  0020               	movlb	0	; select bank0
 10436  14A2  00AE               	movwf	___ftge@ff2+2
 10437  14A3  3190  203F  3194   	fcall	___ftge
 10438  14A6  1C03               	btfss	3,0
 10439  14A7  2CDA               	goto	l5998
 10440                           
 10441                           ;glucose_meter_main.c: 416: {
 10442                           ;glucose_meter_main.c: 417: gY = (0.362 * gXadc) + -368;
 10443  14A8  3000               	movlw	0
 10444  14A9  0020               	movlb	0	; select bank0
 10445  14AA  00BC               	movwf	___ftadd@f1
 10446  14AB  30B8               	movlw	184
 10447  14AC  00BD               	movwf	___ftadd@f1+1
 10448  14AD  30C3               	movlw	195
 10449  14AE  00BE               	movwf	___ftadd@f1+2
 10450  14AF  3058               	movlw	88
 10451  14B0  00C9               	movwf	___ftmul@f1
 10452  14B1  30B9               	movlw	185
 10453  14B2  00CA               	movwf	___ftmul@f1+1
 10454  14B3  303E               	movlw	62
 10455  14B4  00CB               	movwf	___ftmul@f1+2
 10456  14B5  0021               	movlb	1	; select bank1
 10457  14B6  0850               	movf	_gXadc^(0+128),w
 10458  14B7  0020               	movlb	0	; select bank0
 10459  14B8  00CC               	movwf	___ftmul@f2
 10460  14B9  0021               	movlb	1	; select bank1
 10461  14BA  0851               	movf	(_gXadc+1)^(0+128),w
 10462  14BB  0020               	movlb	0	; select bank0
 10463  14BC  00CD               	movwf	___ftmul@f2+1
 10464  14BD  0021               	movlb	1	; select bank1
 10465  14BE  0852               	movf	(_gXadc+2)^(0+128),w
 10466  14BF  0020               	movlb	0	; select bank0
 10467  14C0  00CE               	movwf	___ftmul@f2+2
 10468  14C1  3188  2034  3194   	fcall	___ftmul
 10469  14C4  0020               	movlb	0	; select bank0
 10470  14C5  0849               	movf	?___ftmul,w
 10471  14C6  00BF               	movwf	___ftadd@f2
 10472  14C7  084A               	movf	?___ftmul+1,w
 10473  14C8  00C0               	movwf	___ftadd@f2+1
 10474  14C9  084B               	movf	?___ftmul+2,w
 10475  14CA  00C1               	movwf	___ftadd@f2+2
 10476  14CB  3188  20E8         	fcall	___ftadd
 10477  14CD  0020               	movlb	0	; select bank0
 10478  14CE  083C               	movf	?___ftadd,w
 10479  14CF  0021               	movlb	1	; select bank1
 10480  14D0  00AB               	movwf	_gY^(0+128)
 10481  14D1  0020               	movlb	0	; select bank0
 10482  14D2  083D               	movf	?___ftadd+1,w
 10483  14D3  0021               	movlb	1	; select bank1
 10484  14D4  00AC               	movwf	(_gY+1)^(0+128)
 10485  14D5  0020               	movlb	0	; select bank0
 10486  14D6  083E               	movf	?___ftadd+2,w
 10487  14D7  0021               	movlb	1	; select bank1
 10488  14D8  00AD               	movwf	(_gY+2)^(0+128)
 10489                           
 10490                           ;glucose_meter_main.c: 419: }
 10491  14D9  0008               	return
 10492  14DA                     l5998:	
 10493                           
 10494                           ;glucose_meter_main.c: 420: else
 10495                           ;glucose_meter_main.c: 421: {
 10496                           ;glucose_meter_main.c: 422: gY = (0.362 * gXadc) + -368;
 10497  14DA  3000               	movlw	0
 10498  14DB  0020               	movlb	0	; select bank0
 10499  14DC  00BC               	movwf	___ftadd@f1
 10500  14DD  30B8               	movlw	184
 10501  14DE  00BD               	movwf	___ftadd@f1+1
 10502  14DF  30C3               	movlw	195
 10503  14E0  00BE               	movwf	___ftadd@f1+2
 10504  14E1  3058               	movlw	88
 10505  14E2  00C9               	movwf	___ftmul@f1
 10506  14E3  30B9               	movlw	185
 10507  14E4  00CA               	movwf	___ftmul@f1+1
 10508  14E5  303E               	movlw	62
 10509  14E6  00CB               	movwf	___ftmul@f1+2
 10510  14E7  0021               	movlb	1	; select bank1
 10511  14E8  0850               	movf	_gXadc^(0+128),w
 10512  14E9  0020               	movlb	0	; select bank0
 10513  14EA  00CC               	movwf	___ftmul@f2
 10514  14EB  0021               	movlb	1	; select bank1
 10515  14EC  0851               	movf	(_gXadc+1)^(0+128),w
 10516  14ED  0020               	movlb	0	; select bank0
 10517  14EE  00CD               	movwf	___ftmul@f2+1
 10518  14EF  0021               	movlb	1	; select bank1
 10519  14F0  0852               	movf	(_gXadc+2)^(0+128),w
 10520  14F1  0020               	movlb	0	; select bank0
 10521  14F2  00CE               	movwf	___ftmul@f2+2
 10522  14F3  3188  2034  3194   	fcall	___ftmul
 10523  14F6  0020               	movlb	0	; select bank0
 10524  14F7  0849               	movf	?___ftmul,w
 10525  14F8  00BF               	movwf	___ftadd@f2
 10526  14F9  084A               	movf	?___ftmul+1,w
 10527  14FA  00C0               	movwf	___ftadd@f2+1
 10528  14FB  084B               	movf	?___ftmul+2,w
 10529  14FC  00C1               	movwf	___ftadd@f2+2
 10530  14FD  3188  20E8         	fcall	___ftadd
 10531  14FF  0020               	movlb	0	; select bank0
 10532  1500  083C               	movf	?___ftadd,w
 10533  1501  0021               	movlb	1	; select bank1
 10534  1502  00AB               	movwf	_gY^(0+128)
 10535  1503  0020               	movlb	0	; select bank0
 10536  1504  083D               	movf	?___ftadd+1,w
 10537  1505  0021               	movlb	1	; select bank1
 10538  1506  00AC               	movwf	(_gY+1)^(0+128)
 10539  1507  0020               	movlb	0	; select bank0
 10540  1508  083E               	movf	?___ftadd+2,w
 10541  1509  0021               	movlb	1	; select bank1
 10542  150A  00AD               	movwf	(_gY+2)^(0+128)
 10543  150B  0008               	return
 10544  150C                     __end_of_CalcGlucose:	
 10545                           
 10546                           	psect	text38
 10547  0834                     __ptext38:	
 10548 ;; *************** function ___ftmul *****************
 10549 ;; Defined at:
 10550 ;;		line 62 in file "C:\Program Files (x86)\Microchip\xc8\v1.37\sources\common\ftmul.c"
 10551 ;; Parameters:    Size  Location     Type
 10552 ;;  f1              3   41[BANK0 ] float 
 10553 ;;  f2              3   44[BANK0 ] float 
 10554 ;; Auto vars:     Size  Location     Type
 10555 ;;  f3_as_produc    3   52[BANK0 ] unsigned um
 10556 ;;  sign            1   56[BANK0 ] unsigned char 
 10557 ;;  cntr            1   55[BANK0 ] unsigned char 
 10558 ;;  exp             1   51[BANK0 ] unsigned char 
 10559 ;; Return value:  Size  Location     Type
 10560 ;;                  3   41[BANK0 ] float 
 10561 ;; Registers used:
 10562 ;;		wreg, status,2, status,0, pclath, cstack
 10563 ;; Tracked objects:
 10564 ;;		On entry : 0/0
 10565 ;;		On exit  : 0/0
 10566 ;;		Unchanged: 0/0
 10567 ;; Data sizes:     COMMON   BANK0   BANK1   BANK2   BANK3   BANK4   BANK5   BANK6   BANK7   BANK8   BANK9  BANK10  BANK1
      +1  BANK12
 10568 ;;      Params:         0       6       0       0       0       0       0       0       0       0       0       0       
      +0       0
 10569 ;;      Locals:         0       6       0       0       0       0       0       0       0       0       0       0       
      +0       0
 10570 ;;      Temps:          0       4       0       0       0       0       0       0       0       0       0       0       
      +0       0
 10571 ;;      Totals:         0      16       0       0       0       0       0       0       0       0       0       0       
      +0       0
 10572 ;;Total ram usage:       16 bytes
 10573 ;; Hardware stack levels used:    1
 10574 ;; Hardware stack levels required when called:    4
 10575 ;; This function calls:
 10576 ;;		___ftpack
 10577 ;; This function is called by:
 10578 ;;		_DisplaySavedGlucoReading
 10579 ;;		_main
 10580 ;;		_CalcGlucose
 10581 ;; This function uses a non-reentrant model
 10582 ;;
 10583                           
 10584                           
 10585                           ;psect for function ___ftmul
 10586  0834                     ___ftmul:	
 10587                           
 10588                           ;incstack = 0
 10589                           ; Regs used in ___ftmul: [wreg+status,2+status,0+pclath+cstack]
 10590  0834  0020               	movlb	0	; select bank0
 10591  0835  0849               	movf	___ftmul@f1,w
 10592  0836  00CF               	movwf	??___ftmul
 10593  0837  084A               	movf	___ftmul@f1+1,w
 10594  0838  00D0               	movwf	??___ftmul+1
 10595  0839  084B               	movf	___ftmul@f1+2,w
 10596  083A  00D1               	movwf	??___ftmul+2
 10597  083B  1003               	clrc
 10598  083C  0D50               	rlf	??___ftmul+1,w
 10599  083D  0D51               	rlf	??___ftmul+2,w
 10600  083E  00D2               	movwf	??___ftmul+3
 10601  083F  0852               	movf	??___ftmul+3,w
 10602  0840  00D3               	movwf	___ftmul@exp
 10603  0841  0853               	movf	___ftmul@exp,w
 10604  0842  1D03               	btfss	3,2
 10605  0843  284B               	goto	l5506
 10606  0844  3000               	movlw	0
 10607  0845  00C9               	movwf	?___ftmul
 10608  0846  3000               	movlw	0
 10609  0847  00CA               	movwf	?___ftmul+1
 10610  0848  3000               	movlw	0
 10611  0849  00CB               	movwf	?___ftmul+2
 10612  084A  0008               	return
 10613  084B                     l5506:	
 10614  084B  084C               	movf	___ftmul@f2,w
 10615  084C  00CF               	movwf	??___ftmul
 10616  084D  084D               	movf	___ftmul@f2+1,w
 10617  084E  00D0               	movwf	??___ftmul+1
 10618  084F  084E               	movf	___ftmul@f2+2,w
 10619  0850  00D1               	movwf	??___ftmul+2
 10620  0851  1003               	clrc
 10621  0852  0D50               	rlf	??___ftmul+1,w
 10622  0853  0D51               	rlf	??___ftmul+2,w
 10623  0854  00D2               	movwf	??___ftmul+3
 10624  0855  0852               	movf	??___ftmul+3,w
 10625  0856  00D8               	movwf	___ftmul@sign
 10626  0857  0858               	movf	___ftmul@sign,w
 10627  0858  1D03               	btfss	3,2
 10628  0859  2861               	goto	l5512
 10629  085A  3000               	movlw	0
 10630  085B  00C9               	movwf	?___ftmul
 10631  085C  3000               	movlw	0
 10632  085D  00CA               	movwf	?___ftmul+1
 10633  085E  3000               	movlw	0
 10634  085F  00CB               	movwf	?___ftmul+2
 10635  0860  0008               	return
 10636  0861                     l5512:	
 10637  0861  0858               	movf	___ftmul@sign,w
 10638  0862  3E7B               	addlw	123
 10639  0863  00CF               	movwf	??___ftmul
 10640  0864  084F               	movf	??___ftmul,w
 10641  0865  07D3               	addwf	___ftmul@exp,f
 10642  0866  0849               	movf	___ftmul@f1,w
 10643  0867  00CF               	movwf	??___ftmul
 10644  0868  084A               	movf	___ftmul@f1+1,w
 10645  0869  00D0               	movwf	??___ftmul+1
 10646  086A  084B               	movf	___ftmul@f1+2,w
 10647  086B  00D1               	movwf	??___ftmul+2
 10648  086C  3010               	movlw	16
 10649  086D                     u5755:	
 10650  086D  36D1               	lsrf	??___ftmul+2,f
 10651  086E  0CD0               	rrf	??___ftmul+1,f
 10652  086F  0CCF               	rrf	??___ftmul,f
 10653  0870  0B89               	decfsz	9,f
 10654  0871  286D               	goto	u5755
 10655  0872  084F               	movf	??___ftmul,w
 10656  0873  00D2               	movwf	??___ftmul+3
 10657  0874  0852               	movf	??___ftmul+3,w
 10658  0875  00D8               	movwf	___ftmul@sign
 10659  0876  084C               	movf	___ftmul@f2,w
 10660  0877  00CF               	movwf	??___ftmul
 10661  0878  084D               	movf	___ftmul@f2+1,w
 10662  0879  00D0               	movwf	??___ftmul+1
 10663  087A  084E               	movf	___ftmul@f2+2,w
 10664  087B  00D1               	movwf	??___ftmul+2
 10665  087C  3010               	movlw	16
 10666  087D                     u5765:	
 10667  087D  36D1               	lsrf	??___ftmul+2,f
 10668  087E  0CD0               	rrf	??___ftmul+1,f
 10669  087F  0CCF               	rrf	??___ftmul,f
 10670  0880  0B89               	decfsz	9,f
 10671  0881  287D               	goto	u5765
 10672  0882  084F               	movf	??___ftmul,w
 10673  0883  00D2               	movwf	??___ftmul+3
 10674  0884  0852               	movf	??___ftmul+3,w
 10675  0885  06D8               	xorwf	___ftmul@sign,f
 10676  0886  3080               	movlw	128
 10677  0887  00CF               	movwf	??___ftmul
 10678  0888  084F               	movf	??___ftmul,w
 10679  0889  05D8               	andwf	___ftmul@sign,f
 10680  088A  17CA               	bsf	___ftmul@f1+1,7
 10681  088B  17CD               	bsf	___ftmul@f2+1,7
 10682  088C  30FF               	movlw	255
 10683  088D  05CC               	andwf	___ftmul@f2,f
 10684  088E  30FF               	movlw	255
 10685  088F  05CD               	andwf	___ftmul@f2+1,f
 10686  0890  3000               	movlw	0
 10687  0891  05CE               	andwf	___ftmul@f2+2,f
 10688  0892  3000               	movlw	0
 10689  0893  00D4               	movwf	___ftmul@f3_as_product
 10690  0894  3000               	movlw	0
 10691  0895  00D5               	movwf	___ftmul@f3_as_product+1
 10692  0896  3000               	movlw	0
 10693  0897  00D6               	movwf	___ftmul@f3_as_product+2
 10694  0898  3007               	movlw	7
 10695  0899  00CF               	movwf	??___ftmul
 10696  089A  084F               	movf	??___ftmul,w
 10697  089B  00D7               	movwf	___ftmul@cntr
 10698  089C                     l5524:	
 10699  089C  1C49               	btfss	___ftmul@f1,0
 10700  089D  28A4               	goto	l5528
 10701  089E  084C               	movf	___ftmul@f2,w
 10702  089F  07D4               	addwf	___ftmul@f3_as_product,f
 10703  08A0  084D               	movf	___ftmul@f2+1,w
 10704  08A1  3DD5               	addwfc	___ftmul@f3_as_product+1,f
 10705  08A2  084E               	movf	___ftmul@f2+2,w
 10706  08A3  3DD6               	addwfc	___ftmul@f3_as_product+2,f
 10707  08A4                     l5528:	
 10708  08A4  3001               	movlw	1
 10709  08A5                     u5785:	
 10710  08A5  36CB               	lsrf	___ftmul@f1+2,f
 10711  08A6  0CCA               	rrf	___ftmul@f1+1,f
 10712  08A7  0CC9               	rrf	___ftmul@f1,f
 10713  08A8  0B89               	decfsz	9,f
 10714  08A9  28A5               	goto	u5785
 10715  08AA  3001               	movlw	1
 10716  08AB                     u5795:	
 10717  08AB  35CC               	lslf	___ftmul@f2,f
 10718  08AC  0DCD               	rlf	___ftmul@f2+1,f
 10719  08AD  0DCE               	rlf	___ftmul@f2+2,f
 10720  08AE  0B89               	decfsz	9,f
 10721  08AF  28AB               	goto	u5795
 10722  08B0  3001               	movlw	1
 10723  08B1  02D7               	subwf	___ftmul@cntr,f
 10724  08B2  1D03               	btfss	3,2
 10725  08B3  289C               	goto	l5524
 10726  08B4  3009               	movlw	9
 10727  08B5  00CF               	movwf	??___ftmul
 10728  08B6  084F               	movf	??___ftmul,w
 10729  08B7  00D7               	movwf	___ftmul@cntr
 10730  08B8                     l5536:	
 10731  08B8  1C49               	btfss	___ftmul@f1,0
 10732  08B9  28C0               	goto	l5540
 10733  08BA  084C               	movf	___ftmul@f2,w
 10734  08BB  07D4               	addwf	___ftmul@f3_as_product,f
 10735  08BC  084D               	movf	___ftmul@f2+1,w
 10736  08BD  3DD5               	addwfc	___ftmul@f3_as_product+1,f
 10737  08BE  084E               	movf	___ftmul@f2+2,w
 10738  08BF  3DD6               	addwfc	___ftmul@f3_as_product+2,f
 10739  08C0                     l5540:	
 10740  08C0  3001               	movlw	1
 10741  08C1                     u5825:	
 10742  08C1  36CB               	lsrf	___ftmul@f1+2,f
 10743  08C2  0CCA               	rrf	___ftmul@f1+1,f
 10744  08C3  0CC9               	rrf	___ftmul@f1,f
 10745  08C4  0B89               	decfsz	9,f
 10746  08C5  28C1               	goto	u5825
 10747  08C6  3001               	movlw	1
 10748  08C7                     u5835:	
 10749  08C7  36D6               	lsrf	___ftmul@f3_as_product+2,f
 10750  08C8  0CD5               	rrf	___ftmul@f3_as_product+1,f
 10751  08C9  0CD4               	rrf	___ftmul@f3_as_product,f
 10752  08CA  0B89               	decfsz	9,f
 10753  08CB  28C7               	goto	u5835
 10754  08CC  3001               	movlw	1
 10755  08CD  02D7               	subwf	___ftmul@cntr,f
 10756  08CE  1D03               	btfss	3,2
 10757  08CF  28B8               	goto	l5536
 10758  08D0  0854               	movf	___ftmul@f3_as_product,w
 10759  08D1  00A9               	movwf	___ftpack@arg
 10760  08D2  0855               	movf	___ftmul@f3_as_product+1,w
 10761  08D3  00AA               	movwf	___ftpack@arg+1
 10762  08D4  0856               	movf	___ftmul@f3_as_product+2,w
 10763  08D5  00AB               	movwf	___ftpack@arg+2
 10764  08D6  0853               	movf	___ftmul@exp,w
 10765  08D7  00CF               	movwf	??___ftmul
 10766  08D8  084F               	movf	??___ftmul,w
 10767  08D9  00AC               	movwf	___ftpack@exp
 10768  08DA  0858               	movf	___ftmul@sign,w
 10769  08DB  00D0               	movwf	??___ftmul+1
 10770  08DC  0850               	movf	??___ftmul+1,w
 10771  08DD  00AD               	movwf	___ftpack@sign
 10772  08DE  3192  22A0         	fcall	___ftpack
 10773  08E0  0020               	movlb	0	; select bank0
 10774  08E1  0829               	movf	?___ftpack,w
 10775  08E2  00C9               	movwf	?___ftmul
 10776  08E3  082A               	movf	?___ftpack+1,w
 10777  08E4  00CA               	movwf	?___ftmul+1
 10778  08E5  082B               	movf	?___ftpack+2,w
 10779  08E6  00CB               	movwf	?___ftmul+2
 10780  08E7  0008               	return
 10781  08E8                     __end_of___ftmul:	
 10782                           
 10783                           	psect	text39
 10784  103F                     __ptext39:	
 10785 ;; *************** function ___ftge *****************
 10786 ;; Defined at:
 10787 ;;		line 4 in file "C:\Program Files (x86)\Microchip\xc8\v1.37\sources\common\ftge.c"
 10788 ;; Parameters:    Size  Location     Type
 10789 ;;  ff1             3    9[BANK0 ] float 
 10790 ;;  ff2             3   12[BANK0 ] float 
 10791 ;; Auto vars:     Size  Location     Type
 10792 ;;		None
 10793 ;; Return value:  Size  Location     Type
 10794 ;;		None               void
 10795 ;; Registers used:
 10796 ;;		wreg, status,2, status,0
 10797 ;; Tracked objects:
 10798 ;;		On entry : 0/0
 10799 ;;		On exit  : 0/0
 10800 ;;		Unchanged: 0/0
 10801 ;; Data sizes:     COMMON   BANK0   BANK1   BANK2   BANK3   BANK4   BANK5   BANK6   BANK7   BANK8   BANK9  BANK10  BANK1
      +1  BANK12
 10802 ;;      Params:         0       6       0       0       0       0       0       0       0       0       0       0       
      +0       0
 10803 ;;      Locals:         0       0       0       0       0       0       0       0       0       0       0       0       
      +0       0
 10804 ;;      Temps:          0       3       0       0       0       0       0       0       0       0       0       0       
      +0       0
 10805 ;;      Totals:         0       9       0       0       0       0       0       0       0       0       0       0       
      +0       0
 10806 ;;Total ram usage:        9 bytes
 10807 ;; Hardware stack levels used:    1
 10808 ;; Hardware stack levels required when called:    3
 10809 ;; This function calls:
 10810 ;;		Nothing
 10811 ;; This function is called by:
 10812 ;;		_CalcGlucose
 10813 ;; This function uses a non-reentrant model
 10814 ;;
 10815                           
 10816                           
 10817                           ;psect for function ___ftge
 10818  103F                     ___ftge:	
 10819                           
 10820                           ;incstack = 0
 10821                           ; Regs used in ___ftge: [wreg+status,2+status,0]
 10822  103F  0020               	movlb	0	; select bank0
 10823  1040  1FAB               	btfss	___ftge@ff1+2,7
 10824  1041  2856               	goto	l5484
 10825  1042  0929               	comf	___ftge@ff1,w
 10826  1043  00AF               	movwf	??___ftge
 10827  1044  092A               	comf	___ftge@ff1+1,w
 10828  1045  00B0               	movwf	??___ftge+1
 10829  1046  092B               	comf	___ftge@ff1+2,w
 10830  1047  00B1               	movwf	??___ftge+2
 10831  1048  0AAF               	incf	??___ftge,f
 10832  1049  1903               	skipnz
 10833  104A  0AB0               	incf	??___ftge+1,f
 10834  104B  1903               	skipnz
 10835  104C  0AB1               	incf	??___ftge+2,f
 10836  104D  3000               	movlw	0
 10837  104E  072F               	addwf	??___ftge,w
 10838  104F  00A9               	movwf	___ftge@ff1
 10839  1050  3000               	movlw	0
 10840  1051  3D30               	addwfc	??___ftge+1,w
 10841  1052  00AA               	movwf	___ftge@ff1+1
 10842  1053  3080               	movlw	128
 10843  1054  3D31               	addwfc	??___ftge+2,w
 10844  1055  00AB               	movwf	___ftge@ff1+2
 10845  1056                     l5484:	
 10846  1056  1FAE               	btfss	___ftge@ff2+2,7
 10847  1057  286C               	goto	l5488
 10848  1058  092C               	comf	___ftge@ff2,w
 10849  1059  00AF               	movwf	??___ftge
 10850  105A  092D               	comf	___ftge@ff2+1,w
 10851  105B  00B0               	movwf	??___ftge+1
 10852  105C  092E               	comf	___ftge@ff2+2,w
 10853  105D  00B1               	movwf	??___ftge+2
 10854  105E  0AAF               	incf	??___ftge,f
 10855  105F  1903               	skipnz
 10856  1060  0AB0               	incf	??___ftge+1,f
 10857  1061  1903               	skipnz
 10858  1062  0AB1               	incf	??___ftge+2,f
 10859  1063  3000               	movlw	0
 10860  1064  072F               	addwf	??___ftge,w
 10861  1065  00AC               	movwf	___ftge@ff2
 10862  1066  3000               	movlw	0
 10863  1067  3D30               	addwfc	??___ftge+1,w
 10864  1068  00AD               	movwf	___ftge@ff2+1
 10865  1069  3080               	movlw	128
 10866  106A  3D31               	addwfc	??___ftge+2,w
 10867  106B  00AE               	movwf	___ftge@ff2+2
 10868  106C                     l5488:	
 10869  106C  3080               	movlw	128
 10870  106D  06AB               	xorwf	___ftge@ff1+2,f
 10871  106E  3080               	movlw	128
 10872  106F  06AE               	xorwf	___ftge@ff2+2,f
 10873  1070  082E               	movf	___ftge@ff2+2,w
 10874  1071  022B               	subwf	___ftge@ff1+2,w
 10875  1072  1D03               	skipz
 10876  1073  0008               	return
 10877  1074  082D               	movf	___ftge@ff2+1,w
 10878  1075  022A               	subwf	___ftge@ff1+1,w
 10879  1076  1D03               	skipz
 10880  1077  0008               	return
 10881  1078  082C               	movf	___ftge@ff2,w
 10882  1079  0229               	subwf	___ftge@ff1,w
 10883  107A  0008               	return
 10884  107B                     __end_of___ftge:	
 10885                           
 10886                           	psect	text40
 10887  08E8                     __ptext40:	
 10888 ;; *************** function ___ftadd *****************
 10889 ;; Defined at:
 10890 ;;		line 86 in file "C:\Program Files (x86)\Microchip\xc8\v1.37\sources\common\ftadd.c"
 10891 ;; Parameters:    Size  Location     Type
 10892 ;;  f1              3   28[BANK0 ] float 
 10893 ;;  f2              3   31[BANK0 ] float 
 10894 ;; Auto vars:     Size  Location     Type
 10895 ;;  exp1            1   40[BANK0 ] unsigned char 
 10896 ;;  exp2            1   39[BANK0 ] unsigned char 
 10897 ;;  sign            1   38[BANK0 ] unsigned char 
 10898 ;; Return value:  Size  Location     Type
 10899 ;;                  3   28[BANK0 ] float 
 10900 ;; Registers used:
 10901 ;;		wreg, status,2, status,0, pclath, cstack
 10902 ;; Tracked objects:
 10903 ;;		On entry : 0/0
 10904 ;;		On exit  : 0/0
 10905 ;;		Unchanged: 0/0
 10906 ;; Data sizes:     COMMON   BANK0   BANK1   BANK2   BANK3   BANK4   BANK5   BANK6   BANK7   BANK8   BANK9  BANK10  BANK1
      +1  BANK12
 10907 ;;      Params:         0       6       0       0       0       0       0       0       0       0       0       0       
      +0       0
 10908 ;;      Locals:         0       3       0       0       0       0       0       0       0       0       0       0       
      +0       0
 10909 ;;      Temps:          0       4       0       0       0       0       0       0       0       0       0       0       
      +0       0
 10910 ;;      Totals:         0      13       0       0       0       0       0       0       0       0       0       0       
      +0       0
 10911 ;;Total ram usage:       13 bytes
 10912 ;; Hardware stack levels used:    1
 10913 ;; Hardware stack levels required when called:    4
 10914 ;; This function calls:
 10915 ;;		___ftpack
 10916 ;; This function is called by:
 10917 ;;		_main
 10918 ;;		_CalcGlucose
 10919 ;; This function uses a non-reentrant model
 10920 ;;
 10921                           
 10922                           
 10923                           ;psect for function ___ftadd
 10924  08E8                     ___ftadd:	
 10925                           
 10926                           ;incstack = 0
 10927                           ; Regs used in ___ftadd: [wreg+status,2+status,0+pclath+cstack]
 10928  08E8  0020               	movlb	0	; select bank0
 10929  08E9  083C               	movf	___ftadd@f1,w
 10930  08EA  00C2               	movwf	??___ftadd
 10931  08EB  083D               	movf	___ftadd@f1+1,w
 10932  08EC  00C3               	movwf	??___ftadd+1
 10933  08ED  083E               	movf	___ftadd@f1+2,w
 10934  08EE  00C4               	movwf	??___ftadd+2
 10935  08EF  1003               	clrc
 10936  08F0  0D43               	rlf	??___ftadd+1,w
 10937  08F1  0D44               	rlf	??___ftadd+2,w
 10938  08F2  00C5               	movwf	??___ftadd+3
 10939  08F3  0845               	movf	??___ftadd+3,w
 10940  08F4  00C8               	movwf	___ftadd@exp1
 10941  08F5  083F               	movf	___ftadd@f2,w
 10942  08F6  00C2               	movwf	??___ftadd
 10943  08F7  0840               	movf	___ftadd@f2+1,w
 10944  08F8  00C3               	movwf	??___ftadd+1
 10945  08F9  0841               	movf	___ftadd@f2+2,w
 10946  08FA  00C4               	movwf	??___ftadd+2
 10947  08FB  1003               	clrc
 10948  08FC  0D43               	rlf	??___ftadd+1,w
 10949  08FD  0D44               	rlf	??___ftadd+2,w
 10950  08FE  00C5               	movwf	??___ftadd+3
 10951  08FF  0845               	movf	??___ftadd+3,w
 10952  0900  00C7               	movwf	___ftadd@exp2
 10953  0901  0848               	movf	___ftadd@exp1,w
 10954  0902  1903               	btfsc	3,2
 10955  0903  2910               	goto	l5416
 10956  0904  0847               	movf	___ftadd@exp2,w
 10957  0905  0248               	subwf	___ftadd@exp1,w
 10958  0906  1803               	skipnc
 10959  0907  2917               	goto	l5420
 10960  0908  0348               	decf	___ftadd@exp1,w
 10961  0909  3AFF               	xorlw	255
 10962  090A  0747               	addwf	___ftadd@exp2,w
 10963  090B  00C2               	movwf	??___ftadd
 10964  090C  3019               	movlw	25
 10965  090D  0242               	subwf	??___ftadd,w
 10966  090E  1C03               	skipc
 10967  090F  2917               	goto	l5420
 10968  0910                     l5416:	
 10969  0910  083F               	movf	___ftadd@f2,w
 10970  0911  00BC               	movwf	?___ftadd
 10971  0912  0840               	movf	___ftadd@f2+1,w
 10972  0913  00BD               	movwf	?___ftadd+1
 10973  0914  0841               	movf	___ftadd@f2+2,w
 10974  0915  00BE               	movwf	?___ftadd+2
 10975  0916  0008               	return
 10976  0917                     l5420:	
 10977  0917  0847               	movf	___ftadd@exp2,w
 10978  0918  1903               	btfsc	3,2
 10979  0919  0008               	return
 10980  091A  0848               	movf	___ftadd@exp1,w
 10981  091B  0247               	subwf	___ftadd@exp2,w
 10982  091C  1803               	skipnc
 10983  091D  2926               	goto	l5426
 10984  091E  0347               	decf	___ftadd@exp2,w
 10985  091F  3AFF               	xorlw	255
 10986  0920  0748               	addwf	___ftadd@exp1,w
 10987  0921  00C2               	movwf	??___ftadd
 10988  0922  3019               	movlw	25
 10989  0923  0242               	subwf	??___ftadd,w
 10990  0924  1803               	btfsc	3,0
 10991  0925  0008               	return
 10992  0926                     l5426:	
 10993  0926  3006               	movlw	6
 10994  0927  00C2               	movwf	??___ftadd
 10995  0928  0842               	movf	??___ftadd,w
 10996  0929  00C6               	movwf	___ftadd@sign
 10997  092A  1BBE               	btfsc	___ftadd@f1+2,7
 10998  092B  17C6               	bsf	___ftadd@sign,7
 10999  092C  1BC1               	btfsc	___ftadd@f2+2,7
 11000  092D  1746               	bsf	___ftadd@sign,6
 11001  092E  17BD               	bsf	___ftadd@f1+1,7
 11002  092F  30FF               	movlw	255
 11003  0930  05BC               	andwf	___ftadd@f1,f
 11004  0931  30FF               	movlw	255
 11005  0932  05BD               	andwf	___ftadd@f1+1,f
 11006  0933  3000               	movlw	0
 11007  0934  05BE               	andwf	___ftadd@f1+2,f
 11008  0935  17C0               	bsf	___ftadd@f2+1,7
 11009  0936  30FF               	movlw	255
 11010  0937  05BF               	andwf	___ftadd@f2,f
 11011  0938  30FF               	movlw	255
 11012  0939  05C0               	andwf	___ftadd@f2+1,f
 11013  093A  3000               	movlw	0
 11014  093B  05C1               	andwf	___ftadd@f2+2,f
 11015  093C  0847               	movf	___ftadd@exp2,w
 11016  093D  0248               	subwf	___ftadd@exp1,w
 11017  093E  1803               	skipnc
 11018  093F  2962               	goto	l5448
 11019  0940                     l5438:	
 11020  0940  3001               	movlw	1
 11021  0941                     u5565:	
 11022  0941  35BF               	lslf	___ftadd@f2,f
 11023  0942  0DC0               	rlf	___ftadd@f2+1,f
 11024  0943  0DC1               	rlf	___ftadd@f2+2,f
 11025  0944  0B89               	decfsz	9,f
 11026  0945  2941               	goto	u5565
 11027  0946  3001               	movlw	1
 11028  0947  02C7               	subwf	___ftadd@exp2,f
 11029  0948  0847               	movf	___ftadd@exp2,w
 11030  0949  0648               	xorwf	___ftadd@exp1,w
 11031  094A  1903               	skipnz
 11032  094B  295D               	goto	l5446
 11033  094C  3001               	movlw	1
 11034  094D  02C6               	subwf	___ftadd@sign,f
 11035  094E  0846               	movf	___ftadd@sign,w
 11036  094F  3907               	andlw	7
 11037  0950  1903               	btfsc	3,2
 11038  0951  295D               	goto	l5446
 11039  0952  2940               	goto	l5438
 11040  0953                     l5444:	
 11041  0953  3001               	movlw	1
 11042  0954                     u5595:	
 11043  0954  36BE               	lsrf	___ftadd@f1+2,f
 11044  0955  0CBD               	rrf	___ftadd@f1+1,f
 11045  0956  0CBC               	rrf	___ftadd@f1,f
 11046  0957  0B89               	decfsz	9,f
 11047  0958  2954               	goto	u5595
 11048  0959  3001               	movlw	1
 11049  095A  00C2               	movwf	??___ftadd
 11050  095B  0842               	movf	??___ftadd,w
 11051  095C  07C8               	addwf	___ftadd@exp1,f
 11052  095D                     l5446:	
 11053  095D  0848               	movf	___ftadd@exp1,w
 11054  095E  0647               	xorwf	___ftadd@exp2,w
 11055  095F  1903               	btfsc	3,2
 11056  0960  2987               	goto	l1034
 11057  0961  2953               	goto	l5444
 11058  0962                     l5448:	
 11059  0962  0848               	movf	___ftadd@exp1,w
 11060  0963  0247               	subwf	___ftadd@exp2,w
 11061  0964  1803               	skipnc
 11062  0965  2987               	goto	l1034
 11063  0966                     l5450:	
 11064  0966  3001               	movlw	1
 11065  0967                     u5625:	
 11066  0967  35BC               	lslf	___ftadd@f1,f
 11067  0968  0DBD               	rlf	___ftadd@f1+1,f
 11068  0969  0DBE               	rlf	___ftadd@f1+2,f
 11069  096A  0B89               	decfsz	9,f
 11070  096B  2967               	goto	u5625
 11071  096C  3001               	movlw	1
 11072  096D  02C8               	subwf	___ftadd@exp1,f
 11073  096E  0847               	movf	___ftadd@exp2,w
 11074  096F  0648               	xorwf	___ftadd@exp1,w
 11075  0970  1903               	skipnz
 11076  0971  2983               	goto	l5458
 11077  0972  3001               	movlw	1
 11078  0973  02C6               	subwf	___ftadd@sign,f
 11079  0974  0846               	movf	___ftadd@sign,w
 11080  0975  3907               	andlw	7
 11081  0976  1903               	btfsc	3,2
 11082  0977  2983               	goto	l5458
 11083  0978  2966               	goto	l5450
 11084  0979                     l5456:	
 11085  0979  3001               	movlw	1
 11086  097A                     u5655:	
 11087  097A  36C1               	lsrf	___ftadd@f2+2,f
 11088  097B  0CC0               	rrf	___ftadd@f2+1,f
 11089  097C  0CBF               	rrf	___ftadd@f2,f
 11090  097D  0B89               	decfsz	9,f
 11091  097E  297A               	goto	u5655
 11092  097F  3001               	movlw	1
 11093  0980  00C2               	movwf	??___ftadd
 11094  0981  0842               	movf	??___ftadd,w
 11095  0982  07C7               	addwf	___ftadd@exp2,f
 11096  0983                     l5458:	
 11097  0983  0848               	movf	___ftadd@exp1,w
 11098  0984  0647               	xorwf	___ftadd@exp2,w
 11099  0985  1D03               	skipz
 11100  0986  2979               	goto	l5456
 11101  0987                     l1034:	
 11102  0987  1FC6               	btfss	___ftadd@sign,7
 11103  0988  2999               	goto	l5462
 11104  0989  30FF               	movlw	255
 11105  098A  06BC               	xorwf	___ftadd@f1,f
 11106  098B  30FF               	movlw	255
 11107  098C  06BD               	xorwf	___ftadd@f1+1,f
 11108  098D  30FF               	movlw	255
 11109  098E  06BE               	xorwf	___ftadd@f1+2,f
 11110  098F  3001               	movlw	1
 11111  0990  07BC               	addwf	___ftadd@f1,f
 11112  0991  3000               	movlw	0
 11113  0992  1803               	skipnc
 11114  0993  3001               	movlw	1
 11115  0994  07BD               	addwf	___ftadd@f1+1,f
 11116  0995  3000               	movlw	0
 11117  0996  1803               	skipnc
 11118  0997  3001               	movlw	1
 11119  0998  07BE               	addwf	___ftadd@f1+2,f
 11120  0999                     l5462:	
 11121  0999  1F46               	btfss	___ftadd@sign,6
 11122  099A  29AB               	goto	l5466
 11123  099B  30FF               	movlw	255
 11124  099C  06BF               	xorwf	___ftadd@f2,f
 11125  099D  30FF               	movlw	255
 11126  099E  06C0               	xorwf	___ftadd@f2+1,f
 11127  099F  30FF               	movlw	255
 11128  09A0  06C1               	xorwf	___ftadd@f2+2,f
 11129  09A1  3001               	movlw	1
 11130  09A2  07BF               	addwf	___ftadd@f2,f
 11131  09A3  3000               	movlw	0
 11132  09A4  1803               	skipnc
 11133  09A5  3001               	movlw	1
 11134  09A6  07C0               	addwf	___ftadd@f2+1,f
 11135  09A7  3000               	movlw	0
 11136  09A8  1803               	skipnc
 11137  09A9  3001               	movlw	1
 11138  09AA  07C1               	addwf	___ftadd@f2+2,f
 11139  09AB                     l5466:	
 11140  09AB  01C6               	clrf	___ftadd@sign
 11141  09AC  083C               	movf	___ftadd@f1,w
 11142  09AD  07BF               	addwf	___ftadd@f2,f
 11143  09AE  083D               	movf	___ftadd@f1+1,w
 11144  09AF  3DC0               	addwfc	___ftadd@f2+1,f
 11145  09B0  083E               	movf	___ftadd@f1+2,w
 11146  09B1  3DC1               	addwfc	___ftadd@f2+2,f
 11147  09B2  1FC1               	btfss	___ftadd@f2+2,7
 11148  09B3  29C6               	goto	l5476
 11149  09B4  30FF               	movlw	255
 11150  09B5  06BF               	xorwf	___ftadd@f2,f
 11151  09B6  30FF               	movlw	255
 11152  09B7  06C0               	xorwf	___ftadd@f2+1,f
 11153  09B8  30FF               	movlw	255
 11154  09B9  06C1               	xorwf	___ftadd@f2+2,f
 11155  09BA  3001               	movlw	1
 11156  09BB  07BF               	addwf	___ftadd@f2,f
 11157  09BC  3000               	movlw	0
 11158  09BD  1803               	skipnc
 11159  09BE  3001               	movlw	1
 11160  09BF  07C0               	addwf	___ftadd@f2+1,f
 11161  09C0  3000               	movlw	0
 11162  09C1  1803               	skipnc
 11163  09C2  3001               	movlw	1
 11164  09C3  07C1               	addwf	___ftadd@f2+2,f
 11165  09C4  01C6               	clrf	___ftadd@sign
 11166  09C5  0AC6               	incf	___ftadd@sign,f
 11167  09C6                     l5476:	
 11168  09C6  083F               	movf	___ftadd@f2,w
 11169  09C7  00A9               	movwf	___ftpack@arg
 11170  09C8  0840               	movf	___ftadd@f2+1,w
 11171  09C9  00AA               	movwf	___ftpack@arg+1
 11172  09CA  0841               	movf	___ftadd@f2+2,w
 11173  09CB  00AB               	movwf	___ftpack@arg+2
 11174  09CC  0848               	movf	___ftadd@exp1,w
 11175  09CD  00C2               	movwf	??___ftadd
 11176  09CE  0842               	movf	??___ftadd,w
 11177  09CF  00AC               	movwf	___ftpack@exp
 11178  09D0  0846               	movf	___ftadd@sign,w
 11179  09D1  00C3               	movwf	??___ftadd+1
 11180  09D2  0843               	movf	??___ftadd+1,w
 11181  09D3  00AD               	movwf	___ftpack@sign
 11182  09D4  3192  22A0         	fcall	___ftpack
 11183  09D6  0020               	movlb	0	; select bank0
 11184  09D7  0829               	movf	?___ftpack,w
 11185  09D8  00BC               	movwf	?___ftadd
 11186  09D9  082A               	movf	?___ftpack+1,w
 11187  09DA  00BD               	movwf	?___ftadd+1
 11188  09DB  082B               	movf	?___ftpack+2,w
 11189  09DC  00BE               	movwf	?___ftadd+2
 11190  09DD  0008               	return
 11191  09DE                     __end_of___ftadd:	
 11192                           
 11193                           	psect	text41
 11194  1F07                     __ptext41:	
 11195 ;; *************** function ___awtoft *****************
 11196 ;; Defined at:
 11197 ;;		line 32 in file "C:\Program Files (x86)\Microchip\xc8\v1.37\sources\common\awtoft.c"
 11198 ;; Parameters:    Size  Location     Type
 11199 ;;  c               2   18[BANK0 ] int 
 11200 ;; Auto vars:     Size  Location     Type
 11201 ;;  sign            1   23[BANK0 ] unsigned char 
 11202 ;; Return value:  Size  Location     Type
 11203 ;;                  3   18[BANK0 ] float 
 11204 ;; Registers used:
 11205 ;;		wreg, status,2, status,0, pclath, cstack
 11206 ;; Tracked objects:
 11207 ;;		On entry : 0/0
 11208 ;;		On exit  : 0/0
 11209 ;;		Unchanged: 0/0
 11210 ;; Data sizes:     COMMON   BANK0   BANK1   BANK2   BANK3   BANK4   BANK5   BANK6   BANK7   BANK8   BANK9  BANK10  BANK1
      +1  BANK12
 11211 ;;      Params:         0       3       0       0       0       0       0       0       0       0       0       0       
      +0       0
 11212 ;;      Locals:         0       1       0       0       0       0       0       0       0       0       0       0       
      +0       0
 11213 ;;      Temps:          0       2       0       0       0       0       0       0       0       0       0       0       
      +0       0
 11214 ;;      Totals:         0       6       0       0       0       0       0       0       0       0       0       0       
      +0       0
 11215 ;;Total ram usage:        6 bytes
 11216 ;; Hardware stack levels used:    1
 11217 ;; Hardware stack levels required when called:    4
 11218 ;; This function calls:
 11219 ;;		___ftpack
 11220 ;; This function is called by:
 11221 ;;		_DisplaySavedGlucoReading
 11222 ;;		_CalcGlucose
 11223 ;; This function uses a non-reentrant model
 11224 ;;
 11225                           
 11226                           
 11227                           ;psect for function ___awtoft
 11228  1F07                     ___awtoft:	
 11229                           
 11230                           ;incstack = 0
 11231                           ; Regs used in ___awtoft: [wreg+status,2+status,0+pclath+cstack]
 11232  1F07  0020               	movlb	0	; select bank0
 11233  1F08  01B7               	clrf	___awtoft@sign
 11234  1F09  1FB3               	btfss	___awtoft@c+1,7
 11235  1F0A  2F12               	goto	l5406
 11236  1F0B  09B2               	comf	___awtoft@c,f
 11237  1F0C  09B3               	comf	___awtoft@c+1,f
 11238  1F0D  0AB2               	incf	___awtoft@c,f
 11239  1F0E  1903               	skipnz
 11240  1F0F  0AB3               	incf	___awtoft@c+1,f
 11241  1F10  01B7               	clrf	___awtoft@sign
 11242  1F11  0AB7               	incf	___awtoft@sign,f
 11243  1F12                     l5406:	
 11244  1F12  0832               	movf	___awtoft@c,w
 11245  1F13  00A9               	movwf	___ftpack@arg
 11246  1F14  0833               	movf	___awtoft@c+1,w
 11247  1F15  00AA               	movwf	___ftpack@arg+1
 11248  1F16  01AB               	clrf	___ftpack@arg+2
 11249  1F17  308E               	movlw	142
 11250  1F18  00B5               	movwf	??___awtoft
 11251  1F19  0835               	movf	??___awtoft,w
 11252  1F1A  00AC               	movwf	___ftpack@exp
 11253  1F1B  0837               	movf	___awtoft@sign,w
 11254  1F1C  00B6               	movwf	??___awtoft+1
 11255  1F1D  0836               	movf	??___awtoft+1,w
 11256  1F1E  00AD               	movwf	___ftpack@sign
 11257  1F1F  3192  22A0         	fcall	___ftpack
 11258  1F21  0020               	movlb	0	; select bank0
 11259  1F22  0829               	movf	?___ftpack,w
 11260  1F23  00B2               	movwf	?___awtoft
 11261  1F24  082A               	movf	?___ftpack+1,w
 11262  1F25  00B3               	movwf	?___awtoft+1
 11263  1F26  082B               	movf	?___ftpack+2,w
 11264  1F27  00B4               	movwf	?___awtoft+2
 11265  1F28  0008               	return
 11266  1F29                     __end_of___awtoft:	
 11267                           
 11268                           	psect	text42
 11269  12A0                     __ptext42:	
 11270 ;; *************** function ___ftpack *****************
 11271 ;; Defined at:
 11272 ;;		line 62 in file "C:\Program Files (x86)\Microchip\xc8\v1.37\sources\common\float.c"
 11273 ;; Parameters:    Size  Location     Type
 11274 ;;  arg             3    9[BANK0 ] unsigned um
 11275 ;;  exp             1   12[BANK0 ] unsigned char 
 11276 ;;  sign            1   13[BANK0 ] unsigned char 
 11277 ;; Auto vars:     Size  Location     Type
 11278 ;;		None
 11279 ;; Return value:  Size  Location     Type
 11280 ;;                  3    9[BANK0 ] float 
 11281 ;; Registers used:
 11282 ;;		wreg, status,2, status,0
 11283 ;; Tracked objects:
 11284 ;;		On entry : 0/0
 11285 ;;		On exit  : 0/0
 11286 ;;		Unchanged: 0/0
 11287 ;; Data sizes:     COMMON   BANK0   BANK1   BANK2   BANK3   BANK4   BANK5   BANK6   BANK7   BANK8   BANK9  BANK10  BANK1
      +1  BANK12
 11288 ;;      Params:         0       5       0       0       0       0       0       0       0       0       0       0       
      +0       0
 11289 ;;      Locals:         0       0       0       0       0       0       0       0       0       0       0       0       
      +0       0
 11290 ;;      Temps:          0       3       0       0       0       0       0       0       0       0       0       0       
      +0       0
 11291 ;;      Totals:         0       8       0       0       0       0       0       0       0       0       0       0       
      +0       0
 11292 ;;Total ram usage:        8 bytes
 11293 ;; Hardware stack levels used:    1
 11294 ;; Hardware stack levels required when called:    3
 11295 ;; This function calls:
 11296 ;;		Nothing
 11297 ;; This function is called by:
 11298 ;;		___awtoft
 11299 ;;		___ftadd
 11300 ;;		___ftdiv
 11301 ;;		___ftmul
 11302 ;;		___lbtoft
 11303 ;; This function uses a non-reentrant model
 11304 ;;
 11305                           
 11306                           
 11307                           ;psect for function ___ftpack
 11308  12A0                     ___ftpack:	
 11309                           
 11310                           ;incstack = 0
 11311                           ; Regs used in ___ftpack: [wreg+status,2+status,0]
 11312  12A0  0020               	movlb	0	; select bank0
 11313  12A1  082C               	movf	___ftpack@exp,w
 11314  12A2  1903               	btfsc	3,2
 11315  12A3  2AA9               	goto	l5048
 11316  12A4  082B               	movf	___ftpack@arg+2,w
 11317  12A5  042A               	iorwf	___ftpack@arg+1,w
 11318  12A6  0429               	iorwf	___ftpack@arg,w
 11319  12A7  1D03               	skipz
 11320  12A8  2ABA               	goto	l5054
 11321  12A9                     l5048:	
 11322  12A9  3000               	movlw	0
 11323  12AA  00A9               	movwf	?___ftpack
 11324  12AB  3000               	movlw	0
 11325  12AC  00AA               	movwf	?___ftpack+1
 11326  12AD  3000               	movlw	0
 11327  12AE  00AB               	movwf	?___ftpack+2
 11328  12AF  0008               	return
 11329  12B0                     l5052:	
 11330  12B0  3001               	movlw	1
 11331  12B1  00AE               	movwf	??___ftpack
 11332  12B2  082E               	movf	??___ftpack,w
 11333  12B3  07AC               	addwf	___ftpack@exp,f
 11334  12B4  3001               	movlw	1
 11335  12B5                     u5135:	
 11336  12B5  36AB               	lsrf	___ftpack@arg+2,f
 11337  12B6  0CAA               	rrf	___ftpack@arg+1,f
 11338  12B7  0CA9               	rrf	___ftpack@arg,f
 11339  12B8  0B89               	decfsz	9,f
 11340  12B9  2AB5               	goto	u5135
 11341  12BA                     l5054:	
 11342  12BA  30FE               	movlw	254
 11343  12BB  052B               	andwf	___ftpack@arg+2,w
 11344  12BC  1903               	btfsc	3,2
 11345  12BD  2AD3               	goto	l1003
 11346  12BE  2AB0               	goto	l5052
 11347  12BF                     l5056:	
 11348  12BF  3001               	movlw	1
 11349  12C0  00AE               	movwf	??___ftpack
 11350  12C1  082E               	movf	??___ftpack,w
 11351  12C2  07AC               	addwf	___ftpack@exp,f
 11352  12C3  3001               	movlw	1
 11353  12C4  07A9               	addwf	___ftpack@arg,f
 11354  12C5  3000               	movlw	0
 11355  12C6  1803               	skipnc
 11356  12C7  3001               	movlw	1
 11357  12C8  07AA               	addwf	___ftpack@arg+1,f
 11358  12C9  3000               	movlw	0
 11359  12CA  1803               	skipnc
 11360  12CB  3001               	movlw	1
 11361  12CC  07AB               	addwf	___ftpack@arg+2,f
 11362  12CD  3001               	movlw	1
 11363  12CE                     u5155:	
 11364  12CE  36AB               	lsrf	___ftpack@arg+2,f
 11365  12CF  0CAA               	rrf	___ftpack@arg+1,f
 11366  12D0  0CA9               	rrf	___ftpack@arg,f
 11367  12D1  0B89               	decfsz	9,f
 11368  12D2  2ACE               	goto	u5155
 11369  12D3                     l1003:	
 11370  12D3  30FF               	movlw	255
 11371  12D4  052B               	andwf	___ftpack@arg+2,w
 11372  12D5  1903               	btfsc	3,2
 11373  12D6  2AE0               	goto	l5064
 11374  12D7  2ABF               	goto	l5056
 11375  12D8                     l5062:	
 11376  12D8  3001               	movlw	1
 11377  12D9  02AC               	subwf	___ftpack@exp,f
 11378  12DA  3001               	movlw	1
 11379  12DB                     u5175:	
 11380  12DB  35A9               	lslf	___ftpack@arg,f
 11381  12DC  0DAA               	rlf	___ftpack@arg+1,f
 11382  12DD  0DAB               	rlf	___ftpack@arg+2,f
 11383  12DE  0B89               	decfsz	9,f
 11384  12DF  2ADB               	goto	u5175
 11385  12E0                     l5064:	
 11386  12E0  1BAA               	btfsc	___ftpack@arg+1,7
 11387  12E1  2AE6               	goto	l1010
 11388  12E2  3002               	movlw	2
 11389  12E3  022C               	subwf	___ftpack@exp,w
 11390  12E4  1803               	skipnc
 11391  12E5  2AD8               	goto	l5062
 11392  12E6                     l1010:	
 11393  12E6  182C               	btfsc	___ftpack@exp,0
 11394  12E7  2AEE               	goto	l1011
 11395  12E8  30FF               	movlw	255
 11396  12E9  05A9               	andwf	___ftpack@arg,f
 11397  12EA  307F               	movlw	127
 11398  12EB  05AA               	andwf	___ftpack@arg+1,f
 11399  12EC  30FF               	movlw	255
 11400  12ED  05AB               	andwf	___ftpack@arg+2,f
 11401  12EE                     l1011:	
 11402  12EE  1003               	clrc
 11403  12EF  0CAC               	rrf	___ftpack@exp,f
 11404  12F0  082C               	movf	___ftpack@exp,w
 11405  12F1  00AE               	movwf	??___ftpack
 11406  12F2  01AF               	clrf	??___ftpack+1
 11407  12F3  01B0               	clrf	??___ftpack+2
 11408  12F4  3010               	movlw	16
 11409  12F5                     u5215:	
 11410  12F5  35AE               	lslf	??___ftpack,f
 11411  12F6  0DAF               	rlf	??___ftpack+1,f
 11412  12F7  0DB0               	rlf	??___ftpack+2,f
 11413  12F8  0B89               	decfsz	9,f
 11414  12F9  2AF5               	goto	u5215
 11415  12FA  082E               	movf	??___ftpack,w
 11416  12FB  04A9               	iorwf	___ftpack@arg,f
 11417  12FC  082F               	movf	??___ftpack+1,w
 11418  12FD  04AA               	iorwf	___ftpack@arg+1,f
 11419  12FE  0830               	movf	??___ftpack+2,w
 11420  12FF  04AB               	iorwf	___ftpack@arg+2,f
 11421  1300  082D               	movf	___ftpack@sign,w
 11422  1301  1903               	btfsc	3,2
 11423  1302  0008               	return
 11424  1303  17AB               	bsf	___ftpack@arg+2,7
 11425  1304  0008               	return
 11426  1305                     __end_of___ftpack:	
 11427                           
 11428                           	psect	intentry
 11429  0004                     __pintentry:	
 11430 ;; *************** function _isr *****************
 11431 ;; Defined at:
 11432 ;;		line 497 in file "glucose_meter_main.c"
 11433 ;; Parameters:    Size  Location     Type
 11434 ;;		None
 11435 ;; Auto vars:     Size  Location     Type
 11436 ;;		None
 11437 ;; Return value:  Size  Location     Type
 11438 ;;                  1    wreg      void 
 11439 ;; Registers used:
 11440 ;;		wreg, status,2, status,0, pclath, cstack
 11441 ;; Tracked objects:
 11442 ;;		On entry : 0/0
 11443 ;;		On exit  : 0/0
 11444 ;;		Unchanged: 0/0
 11445 ;; Data sizes:     COMMON   BANK0   BANK1   BANK2   BANK3   BANK4   BANK5   BANK6   BANK7   BANK8   BANK9  BANK10  BANK1
      +1  BANK12
 11446 ;;      Params:         0       0       0       0       0       0       0       0       0       0       0       0       
      +0       0
 11447 ;;      Locals:         0       0       0       0       0       0       0       0       0       0       0       0       
      +0       0
 11448 ;;      Temps:          0       9       0       0       0       0       0       0       0       0       0       0       
      +0       0
 11449 ;;      Totals:         0       9       0       0       0       0       0       0       0       0       0       0       
      +0       0
 11450 ;;Total ram usage:        9 bytes
 11451 ;; Hardware stack levels used:    1
 11452 ;; Hardware stack levels required when called:    2
 11453 ;; This function calls:
 11454 ;;		i1_LCDInit
 11455 ;; This function is called by:
 11456 ;;		Interrupt level 1
 11457 ;; This function uses a non-reentrant model
 11458 ;;
 11459                           
 11460  0004                     _isr:	
 11461                           
 11462                           ;incstack = 0
 11463                           ; Regs used in _isr: [wreg+status,2+status,0+pclath+cstack]
 11464  0004  147E               	bsf	126,0	;set compiler interrupt flag (level 1)
 11465  0005  3180               	pagesel	$
 11466  0006  0020               	movlb	0	; select bank0
 11467  0007  087F               	movf	127,w
 11468  0008  00A8               	movwf	??_isr+8
 11469                           
 11470                           ;glucose_meter_main.c: 499: if (PIR1bits.TMR1IF == 1)
 11471  0009  1C11               	btfss	17,0	;volatile
 11472  000A  286C               	goto	i1l4596
 11473                           
 11474                           ;glucose_meter_main.c: 500: {
 11475                           ;glucose_meter_main.c: 501: PIR1bits.TMR1IF = 0;
 11476  000B  1011               	bcf	17,0	;volatile
 11477                           
 11478                           ;glucose_meter_main.c: 503: TMR1H |= 0x80;
 11479  000C  1797               	bsf	23,7	;volatile
 11480                           
 11481                           ;glucose_meter_main.c: 504: Seconds++;
 11482  000D  3001               	movlw	1
 11483  000E  00A0               	movwf	??_isr
 11484  000F  0820               	movf	??_isr,w
 11485  0010  0021               	movlb	1	; select bank1
 11486  0011  07C2               	addwf	_Seconds^(0+128),f
 11487                           
 11488                           ;glucose_meter_main.c: 506: if (Seconds == 60) {Minutes++; Seconds=0;
 11489  0012  303C               	movlw	60
 11490  0013  0642               	xorwf	_Seconds^(0+128),w
 11491  0014  1D03               	btfss	3,2
 11492  0015  286C               	goto	i1l4596
 11493  0016  3001               	movlw	1
 11494  0017  0020               	movlb	0	; select bank0
 11495  0018  00A0               	movwf	??_isr
 11496  0019  0820               	movf	??_isr,w
 11497  001A  07E0               	addwf	_Minutes,f
 11498  001B  0021               	movlb	1	; select bank1
 11499  001C  01C2               	clrf	_Seconds^(0+128)
 11500                           
 11501                           ;glucose_meter_main.c: 507: if (Minutes == 60) {Hours++; Minutes=0;
 11502  001D  303C               	movlw	60
 11503  001E  0020               	movlb	0	; select bank0
 11504  001F  0660               	xorwf	_Minutes,w
 11505  0020  1D03               	btfss	3,2
 11506  0021  286C               	goto	i1l4596
 11507  0022  3001               	movlw	1
 11508  0023  00A0               	movwf	??_isr
 11509  0024  0820               	movf	??_isr,w
 11510  0025  07DF               	addwf	_Hours,f
 11511  0026  01E0               	clrf	_Minutes
 11512                           
 11513                           ;glucose_meter_main.c: 508: if (Hours == 24) {Days++; Hours=0;
 11514  0027  3018               	movlw	24
 11515  0028  065F               	xorwf	_Hours,w
 11516  0029  1D03               	btfss	3,2
 11517  002A  286C               	goto	i1l4596
 11518  002B  3001               	movlw	1
 11519  002C  00A0               	movwf	??_isr
 11520  002D  0820               	movf	??_isr,w
 11521  002E  07DE               	addwf	_Days,f
 11522  002F  01DF               	clrf	_Hours
 11523                           
 11524                           ;glucose_meter_main.c: 509: if ( (Days == 29 && Month==2 && !(Year%4 == 0))
 11525                           ;glucose_meter_main.c: 510: || (Days == 30 && Month==2)
 11526                           ;glucose_meter_main.c: 511: || (Days == 31 && (Month==4 || Month==6 || Month==9 || Month
      +                          ==11 ))
 11527                           ;glucose_meter_main.c: 512: || (Days == 32)
 11528                           ;glucose_meter_main.c: 513: ) {Month++; Days=1;}
 11529  0030  301D               	movlw	29
 11530  0031  065E               	xorwf	_Days,w
 11531  0032  1D03               	btfss	3,2
 11532  0033  283C               	goto	i1l4572
 11533  0034  3002               	movlw	2
 11534  0035  0661               	xorwf	_Month,w
 11535  0036  1D03               	btfss	3,2
 11536  0037  283C               	goto	i1l4572
 11537  0038  0862               	movf	_Year,w
 11538  0039  3903               	andlw	3
 11539  003A  1D03               	btfss	3,2
 11540  003B  285C               	goto	i1l4588
 11541  003C                     i1l4572:	
 11542  003C  301E               	movlw	30
 11543  003D  065E               	xorwf	_Days,w
 11544  003E  1D03               	btfss	3,2
 11545  003F  2844               	goto	i1l4576
 11546  0040  3002               	movlw	2
 11547  0041  0661               	xorwf	_Month,w
 11548  0042  1903               	btfsc	3,2
 11549  0043  285C               	goto	i1l4588
 11550  0044                     i1l4576:	
 11551  0044  301F               	movlw	31
 11552  0045  065E               	xorwf	_Days,w
 11553  0046  1D03               	btfss	3,2
 11554  0047  2858               	goto	i1l4586
 11555  0048  3004               	movlw	4
 11556  0049  0661               	xorwf	_Month,w
 11557  004A  1903               	btfsc	3,2
 11558  004B  285C               	goto	i1l4588
 11559  004C  3006               	movlw	6
 11560  004D  0661               	xorwf	_Month,w
 11561  004E  1903               	btfsc	3,2
 11562  004F  285C               	goto	i1l4588
 11563  0050  3009               	movlw	9
 11564  0051  0661               	xorwf	_Month,w
 11565  0052  1903               	btfsc	3,2
 11566  0053  285C               	goto	i1l4588
 11567  0054  300B               	movlw	11
 11568  0055  0661               	xorwf	_Month,w
 11569  0056  1903               	btfsc	3,2
 11570  0057  285C               	goto	i1l4588
 11571  0058                     i1l4586:	
 11572  0058  3020               	movlw	32
 11573  0059  065E               	xorwf	_Days,w
 11574  005A  1D03               	btfss	3,2
 11575  005B  2862               	goto	i1l563
 11576  005C                     i1l4588:	
 11577  005C  3001               	movlw	1
 11578  005D  00A0               	movwf	??_isr
 11579  005E  0820               	movf	??_isr,w
 11580  005F  07E1               	addwf	_Month,f
 11581  0060  01DE               	clrf	_Days
 11582  0061  0ADE               	incf	_Days,f
 11583  0062                     i1l563:	
 11584                           
 11585                           ;glucose_meter_main.c: 514: if (Month == 13) {Year++; Month=1;}
 11586  0062  300D               	movlw	13
 11587  0063  0661               	xorwf	_Month,w
 11588  0064  1D03               	btfss	3,2
 11589  0065  286C               	goto	i1l4596
 11590  0066  3001               	movlw	1
 11591  0067  00A0               	movwf	??_isr
 11592  0068  0820               	movf	??_isr,w
 11593  0069  07E2               	addwf	_Year,f
 11594  006A  01E1               	clrf	_Month
 11595  006B  0AE1               	incf	_Month,f
 11596  006C                     i1l4596:	
 11597                           
 11598                           ;glucose_meter_main.c: 515: }}}
 11599                           ;glucose_meter_main.c: 517: }
 11600                           ;glucose_meter_main.c: 519: if (INTCONbits.INTF == 1)
 11601  006C  1C8B               	btfss	11,1	;volatile
 11602  006D  289A               	goto	i1l4638
 11603                           
 11604                           ;glucose_meter_main.c: 520: {
 11605                           ;glucose_meter_main.c: 521: INTCONbits.INTF = 0;
 11606  006E  108B               	bcf	11,1	;volatile
 11607                           
 11608                           ;glucose_meter_main.c: 522: gcountIdleTime = 120000;
 11609  006F  3000               	movlw	0
 11610  0070  0021               	movlb	1	; select bank1
 11611  0071  00DA               	movwf	(_gcountIdleTime+3)^(0+128)
 11612  0072  3001               	movlw	1
 11613  0073  00D9               	movwf	(_gcountIdleTime+2)^(0+128)
 11614  0074  30D4               	movlw	212
 11615  0075  00D8               	movwf	(_gcountIdleTime+1)^(0+128)
 11616  0076  30C0               	movlw	192
 11617  0077  00D7               	movwf	_gcountIdleTime^(0+128)
 11618                           
 11619                           ;glucose_meter_main.c: 523: gStripIdleTime = 250000;
 11620  0078  3000               	movlw	0
 11621  0079  00D6               	movwf	(_gStripIdleTime+3)^(0+128)
 11622  007A  3003               	movlw	3
 11623  007B  00D5               	movwf	(_gStripIdleTime+2)^(0+128)
 11624  007C  30D0               	movlw	208
 11625  007D  00D4               	movwf	(_gStripIdleTime+1)^(0+128)
 11626  007E  3090               	movlw	144
 11627  007F  00D3               	movwf	_gStripIdleTime^(0+128)
 11628                           
 11629                           ;glucose_meter_main.c: 524: gStripInserted = 0;
 11630  0080  01CC               	clrf	_gStripInserted^(0+128)
 11631                           
 11632                           ;glucose_meter_main.c: 525: gStripRemoved = 0;
 11633  0081  01FB               	clrf	_gStripRemoved
 11634                           
 11635                           ;glucose_meter_main.c: 526: gBloodNotInsetrted = 0;
 11636  0082  01C3               	clrf	_gBloodNotInsetrted^(0+128)
 11637                           
 11638                           ;glucose_meter_main.c: 527: TRISC = 0;
 11639  0083  018E               	clrf	14	;volatile
 11640                           
 11641                           ;glucose_meter_main.c: 528: TRISBbits.TRISB5 = 0;
 11642  0084  128D               	bcf	13,5	;volatile
 11643                           
 11644                           ;glucose_meter_main.c: 529: TRISBbits.TRISB1 = 0;
 11645  0085  108D               	bcf	13,1	;volatile
 11646                           
 11647                           ;glucose_meter_main.c: 530: TRISAbits.TRISA7 = 0;
 11648  0086  138C               	bcf	12,7	;volatile
 11649                           
 11650                           ;glucose_meter_main.c: 531: TRISAbits.TRISA6 = 0;
 11651  0087  130C               	bcf	12,6	;volatile
 11652                           
 11653                           ;glucose_meter_main.c: 532: TRISAbits.TRISA3 = 0;
 11654  0088  118C               	bcf	12,3	;volatile
 11655                           
 11656                           ;glucose_meter_main.c: 533: FVRCONbits.FVREN = 1;
 11657  0089  0022               	movlb	2	; select bank2
 11658  008A  1797               	bsf	23,7	;volatile
 11659                           
 11660                           ;glucose_meter_main.c: 534: OPA1CONbits.OPA1EN = 1;
 11661  008B  002A               	movlb	10	; select bank10
 11662  008C  1791               	bsf	17,7	;volatile
 11663                           
 11664                           ;glucose_meter_main.c: 535: DACCON0bits.DACEN = 1;
 11665  008D  0022               	movlb	2	; select bank2
 11666  008E  1798               	bsf	24,7	;volatile
 11667                           
 11668                           ;glucose_meter_main.c: 536: DACCON0bits.DACOE1= 1;
 11669  008F  1698               	bsf	24,5	;volatile
 11670                           
 11671                           ;glucose_meter_main.c: 537: ADCON0bits.ADON = 1;
 11672  0090  0021               	movlb	1	; select bank1
 11673  0091  141D               	bsf	29,0	;volatile
 11674                           
 11675                           ;glucose_meter_main.c: 538: LATB5 = 0;
 11676  0092  0022               	movlb	2	; select bank2
 11677  0093  128D               	bcf	13,5	;volatile
 11678                           
 11679                           ;glucose_meter_main.c: 540: LCDInit();
 11680  0094  3190  20BD  3180   	fcall	i1_LCDInit
 11681                           
 11682                           ;glucose_meter_main.c: 541: __nop();
 11683  0097  0000               	nop
 11684                           
 11685                           ;glucose_meter_main.c: 542: gSleepMode = 0;
 11686  0098  0020               	movlb	0	; select bank0
 11687  0099  01E6               	clrf	_gSleepMode
 11688  009A                     i1l4638:	
 11689                           
 11690                           ;glucose_meter_main.c: 543: }
 11691                           ;glucose_meter_main.c: 545: if (INTCONbits.IOCIF == 1)
 11692  009A  1C0B               	btfss	11,0	;volatile
 11693  009B  28EF               	goto	i1l4682
 11694                           
 11695                           ;glucose_meter_main.c: 546: {
 11696                           ;glucose_meter_main.c: 547: INTCONbits.IOCIF = 0;
 11697  009C  100B               	bcf	11,0	;volatile
 11698                           
 11699                           ;glucose_meter_main.c: 548: if (IOCBFbits.IOCBF4)
 11700  009D  0027               	movlb	7	; select bank7
 11701  009E  1E16               	btfss	22,4	;volatile
 11702  009F  28C1               	goto	i1l4660
 11703                           
 11704                           ;glucose_meter_main.c: 549: {
 11705                           ;glucose_meter_main.c: 550: IOCBFbits.IOCBF4 = 0;
 11706  00A0  1216               	bcf	22,4	;volatile
 11707                           
 11708                           ;glucose_meter_main.c: 551: if (gMemorymode == 1)
 11709  00A1  0378               	decf	_gMemorymode,w
 11710  00A2  1D03               	btfss	3,2
 11711  00A3  28A9               	goto	i1l4650
 11712                           
 11713                           ;glucose_meter_main.c: 552: {
 11714                           ;glucose_meter_main.c: 553: gExitMemoryMode = 1;
 11715  00A4  0021               	movlb	1	; select bank1
 11716  00A5  01C6               	clrf	_gExitMemoryMode^(0+128)
 11717  00A6  0AC6               	incf	_gExitMemoryMode^(0+128),f
 11718                           
 11719                           ;glucose_meter_main.c: 554: gMemorymode = 0;
 11720  00A7  01F8               	clrf	_gMemorymode
 11721                           
 11722                           ;glucose_meter_main.c: 555: }
 11723  00A8  28B6               	goto	i1l577
 11724  00A9                     i1l4650:	
 11725                           
 11726                           ;glucose_meter_main.c: 556: else if (gSleepMode == 1)
 11727  00A9  0020               	movlb	0	; select bank0
 11728  00AA  0366               	decf	_gSleepMode,w
 11729  00AB  1D03               	btfss	3,2
 11730  00AC  28B2               	goto	i1l4656
 11731                           
 11732                           ;glucose_meter_main.c: 557: {
 11733                           ;glucose_meter_main.c: 558: gExitMemoryMode = 0;
 11734  00AD  0021               	movlb	1	; select bank1
 11735  00AE  01C6               	clrf	_gExitMemoryMode^(0+128)
 11736                           
 11737                           ;glucose_meter_main.c: 559: gMemorymode = 1;
 11738  00AF  01F8               	clrf	_gMemorymode
 11739  00B0  0AF8               	incf	_gMemorymode,f
 11740  00B1  28B5               	goto	L9
 11741  00B2                     i1l4656:	
 11742                           ;glucose_meter_main.c: 561: }
 11743                           
 11744                           ;glucose_meter_main.c: 560: gOneReadingDisplyed = 0;
 11745                           
 11746                           
 11747                           ;glucose_meter_main.c: 562: else
 11748                           ;glucose_meter_main.c: 563: {
 11749                           ;glucose_meter_main.c: 564: gExitMemoryMode = 0;
 11750  00B2  0021               	movlb	1	; select bank1
 11751  00B3  01C6               	clrf	_gExitMemoryMode^(0+128)
 11752                           
 11753                           ;glucose_meter_main.c: 565: gMemorymode = 0;
 11754  00B4  01F8               	clrf	_gMemorymode
 11755  00B5                     L9:	
 11756                           
 11757                           ;glucose_meter_main.c: 566: gOneReadingDisplyed = 0;
 11758  00B5  01F9               	clrf	_gOneReadingDisplyed
 11759  00B6                     i1l577:	
 11760                           
 11761                           ;glucose_meter_main.c: 567: }
 11762                           ;glucose_meter_main.c: 568: gDisplayPreviousReading = 0;
 11763  00B6  01C5               	clrf	_gDisplayPreviousReading^(0+128)
 11764                           
 11765                           ;glucose_meter_main.c: 569: _delay((unsigned long)((50)*(8000000/4000.0)));
 11766  00B7  3082               	movlw	130
 11767  00B8  0020               	movlb	0	; select bank0
 11768  00B9  00A1               	movwf	??_isr+1
 11769  00BA  30DD               	movlw	221
 11770  00BB  00A0               	movwf	??_isr
 11771  00BC                     u672_27:	
 11772  00BC  0BA0               	decfsz	??_isr,f
 11773  00BD  28BC               	goto	u672_27
 11774  00BE  0BA1               	decfsz	??_isr+1,f
 11775  00BF  28BC               	goto	u672_27
 11776  00C0  3200               	nop2
 11777  00C1                     i1l4660:	
 11778                           
 11779                           ;glucose_meter_main.c: 570: }
 11780                           ;glucose_meter_main.c: 571: if (IOCBFbits.IOCBF3 == 1)
 11781  00C1  0027               	movlb	7	; select bank7
 11782  00C2  1D96               	btfss	22,3	;volatile
 11783  00C3  28EF               	goto	i1l4682
 11784                           
 11785                           ;glucose_meter_main.c: 572: {
 11786                           ;glucose_meter_main.c: 573: IOCBFbits.IOCBF3 = 0;
 11787  00C4  1196               	bcf	22,3	;volatile
 11788                           
 11789                           ;glucose_meter_main.c: 575: if (gMemorymode == 1)
 11790  00C5  0378               	decf	_gMemorymode,w
 11791  00C6  1D03               	btfss	3,2
 11792  00C7  28D7               	goto	i1l4672
 11793                           
 11794                           ;glucose_meter_main.c: 576: {
 11795                           ;glucose_meter_main.c: 578: gDisplayPreviousReading = 1;
 11796  00C8  0021               	movlb	1	; select bank1
 11797  00C9  01C5               	clrf	_gDisplayPreviousReading^(0+128)
 11798  00CA  0AC5               	incf	_gDisplayPreviousReading^(0+128),f
 11799                           
 11800                           ;glucose_meter_main.c: 579: gSetDateTime = 0;
 11801  00CB  01CB               	clrf	_gSetDateTime^(0+128)
 11802                           
 11803                           ;glucose_meter_main.c: 580: _delay((unsigned long)((50)*(8000000/4000.0)));
 11804  00CC  3082               	movlw	130
 11805  00CD  0020               	movlb	0	; select bank0
 11806  00CE  00A1               	movwf	??_isr+1
 11807  00CF  30DD               	movlw	221
 11808  00D0  00A0               	movwf	??_isr
 11809  00D1                     u673_27:	
 11810  00D1  0BA0               	decfsz	??_isr,f
 11811  00D2  28D1               	goto	u673_27
 11812  00D3  0BA1               	decfsz	??_isr+1,f
 11813  00D4  28D1               	goto	u673_27
 11814  00D5  3200               	nop2
 11815                           
 11816                           ;glucose_meter_main.c: 581: }
 11817  00D6  28EF               	goto	i1l4682
 11818  00D7                     i1l4672:	
 11819                           
 11820                           ;glucose_meter_main.c: 582: else if (gSleepMode == 1)
 11821  00D7  0020               	movlb	0	; select bank0
 11822  00D8  0366               	decf	_gSleepMode,w
 11823  00D9  1D03               	btfss	3,2
 11824  00DA  28EC               	goto	i1l4680
 11825                           
 11826                           ;glucose_meter_main.c: 583: {
 11827                           ;glucose_meter_main.c: 584: gSetDateTime = 1;
 11828  00DB  0021               	movlb	1	; select bank1
 11829  00DC  01CB               	clrf	_gSetDateTime^(0+128)
 11830  00DD  0ACB               	incf	_gSetDateTime^(0+128),f
 11831                           
 11832                           ;glucose_meter_main.c: 585: gMemorymode = 0;
 11833  00DE  01F8               	clrf	_gMemorymode
 11834  00DF                     i1l584:	
 11835                           ;glucose_meter_main.c: 586: while(!(PORTB & 0x08));
 11836                           
 11837  00DF  0020               	movlb	0	; select bank0
 11838  00E0  1D8D               	btfss	13,3	;volatile
 11839  00E1  28DF               	goto	i1l584
 11840                           
 11841                           ;glucose_meter_main.c: 587: _delay((unsigned long)((50)*(8000000/4000.0)));
 11842  00E2  3082               	movlw	130
 11843  00E3  00A1               	movwf	??_isr+1
 11844  00E4  30DD               	movlw	221
 11845  00E5  00A0               	movwf	??_isr
 11846  00E6                     u674_27:	
 11847  00E6  0BA0               	decfsz	??_isr,f
 11848  00E7  28E6               	goto	u674_27
 11849  00E8  0BA1               	decfsz	??_isr+1,f
 11850  00E9  28E6               	goto	u674_27
 11851  00EA  3200               	nop2
 11852                           
 11853                           ;glucose_meter_main.c: 588: }
 11854  00EB  28EF               	goto	i1l4682
 11855  00EC                     i1l4680:	
 11856                           
 11857                           ;glucose_meter_main.c: 589: else
 11858                           ;glucose_meter_main.c: 590: {
 11859                           ;glucose_meter_main.c: 591: gSetDateTime = 0;
 11860  00EC  0021               	movlb	1	; select bank1
 11861  00ED  01CB               	clrf	_gSetDateTime^(0+128)
 11862                           
 11863                           ;glucose_meter_main.c: 592: gMemorymode = 0;
 11864  00EE  01F8               	clrf	_gMemorymode
 11865  00EF                     i1l4682:	
 11866                           
 11867                           ;glucose_meter_main.c: 593: }
 11868                           ;glucose_meter_main.c: 596: }
 11869                           ;glucose_meter_main.c: 597: }
 11870                           ;glucose_meter_main.c: 598: if (PIR1bits.ADIF == 1)
 11871  00EF  0020               	movlb	0	; select bank0
 11872  00F0  1F11               	btfss	17,6	;volatile
 11873  00F1  29E1               	goto	i1l602
 11874                           
 11875                           ;glucose_meter_main.c: 599: {
 11876                           ;glucose_meter_main.c: 600: PIR1bits.ADIF = 0;
 11877  00F2  1311               	bcf	17,6	;volatile
 11878                           
 11879                           ;glucose_meter_main.c: 602: if(ADRESH > 127){ADRESH = 0;ADRESL = 0;}
 11880  00F3  3080               	movlw	128
 11881  00F4  0021               	movlb	1	; select bank1
 11882  00F5  021C               	subwf	28,w	;volatile
 11883  00F6  1C03               	skipc
 11884  00F7  28FA               	goto	i1l4690
 11885  00F8  019C               	clrf	28	;volatile
 11886  00F9  019B               	clrf	27	;volatile
 11887  00FA                     i1l4690:	
 11888                           
 11889                           ;glucose_meter_main.c: 603: gReadData = ADRESL;
 11890  00FA  081B               	movf	27,w	;volatile
 11891  00FB  0020               	movlb	0	; select bank0
 11892  00FC  00A0               	movwf	??_isr
 11893  00FD  01A1               	clrf	??_isr+1
 11894  00FE  0820               	movf	??_isr,w
 11895  00FF  0021               	movlb	1	; select bank1
 11896  0100  00B4               	movwf	_gReadData^(0+128)
 11897  0101  0020               	movlb	0	; select bank0
 11898  0102  0821               	movf	??_isr+1,w
 11899  0103  0021               	movlb	1	; select bank1
 11900  0104  00B5               	movwf	(_gReadData+1)^(0+128)
 11901                           
 11902                           ;glucose_meter_main.c: 604: gReadData += ADRESH << 8;
 11903  0105  081C               	movf	28,w	;volatile
 11904  0106  0020               	movlb	0	; select bank0
 11905  0107  00A0               	movwf	??_isr
 11906  0108  01A1               	clrf	??_isr+1
 11907  0109  0820               	movf	??_isr,w
 11908  010A  00A1               	movwf	??_isr+1
 11909  010B  01A0               	clrf	??_isr
 11910  010C  0820               	movf	??_isr,w
 11911  010D  0021               	movlb	1	; select bank1
 11912  010E  07B4               	addwf	_gReadData^(0+128),f
 11913  010F  0020               	movlb	0	; select bank0
 11914  0110  0821               	movf	??_isr+1,w
 11915  0111  0021               	movlb	1	; select bank1
 11916  0112  3DB5               	addwfc	(_gReadData+1)^(0+128),f
 11917                           
 11918                           ;glucose_meter_main.c: 606: if(gReadData >= 900)
 11919  0113  0835               	movf	(_gReadData+1)^(0+128),w
 11920  0114  3A80               	xorlw	128
 11921  0115  0020               	movlb	0	; select bank0
 11922  0116  00A0               	movwf	??_isr
 11923  0117  3083               	movlw	131
 11924  0118  0220               	subwf	??_isr,w
 11925  0119  1D03               	skipz
 11926  011A  291E               	goto	u450_25
 11927  011B  3084               	movlw	132
 11928  011C  0021               	movlb	1	; select bank1
 11929  011D  0234               	subwf	_gReadData^(0+128),w
 11930  011E                     u450_25:	
 11931  011E  1C03               	skipc
 11932  011F  29A5               	goto	i1l4724
 11933                           
 11934                           ;glucose_meter_main.c: 607: {
 11935                           ;glucose_meter_main.c: 608: if (gcounter == 7992)
 11936  0120  3038               	movlw	56
 11937  0121  0021               	movlb	1	; select bank1
 11938  0122  0661               	xorwf	_gcounter^(0+128),w
 11939  0123  301F               	movlw	31
 11940  0124  1903               	skipnz
 11941  0125  0662               	xorwf	(_gcounter+1)^(0+128),w
 11942  0126  1D03               	btfss	3,2
 11943  0127  292A               	goto	i1l4700
 11944                           
 11945                           ;glucose_meter_main.c: 609: {
 11946                           ;glucose_meter_main.c: 610: LATCbits.LATC7 = 0;
 11947  0128  0022               	movlb	2	; select bank2
 11948  0129  138E               	bcf	14,7	;volatile
 11949  012A                     i1l4700:	
 11950                           
 11951                           ;glucose_meter_main.c: 611: }
 11952                           ;glucose_meter_main.c: 613: if(gcounter <= 0)
 11953  012A  0021               	movlb	1	; select bank1
 11954  012B  0862               	movf	(_gcounter+1)^(0+128),w
 11955  012C  3A80               	xorlw	128
 11956  012D  0020               	movlb	0	; select bank0
 11957  012E  00A0               	movwf	??_isr
 11958  012F  3080               	movlw	128
 11959  0130  0220               	subwf	??_isr,w
 11960  0131  1D03               	skipz
 11961  0132  2936               	goto	u452_25
 11962  0133  3001               	movlw	1
 11963  0134  0021               	movlb	1	; select bank1
 11964  0135  0261               	subwf	_gcounter^(0+128),w
 11965  0136                     u452_25:	
 11966  0136  1803               	skipnc
 11967  0137  293E               	goto	i1l4706
 11968                           
 11969                           ;glucose_meter_main.c: 614: {
 11970                           ;glucose_meter_main.c: 615: gcounter = 0;
 11971  0138  0021               	movlb	1	; select bank1
 11972  0139  01E1               	clrf	_gcounter^(0+128)
 11973  013A  01E2               	clrf	(_gcounter+1)^(0+128)
 11974                           
 11975                           ;glucose_meter_main.c: 616: LATCbits.LATC7 = 1;
 11976  013B  0022               	movlb	2	; select bank2
 11977  013C  178E               	bsf	14,7	;volatile
 11978                           
 11979                           ;glucose_meter_main.c: 617: }
 11980  013D  2943               	goto	i1l4708
 11981  013E                     i1l4706:	
 11982                           
 11983                           ;glucose_meter_main.c: 619: else
 11984                           ;glucose_meter_main.c: 620: gcounter--;
 11985  013E  30FF               	movlw	255
 11986  013F  0021               	movlb	1	; select bank1
 11987  0140  07E1               	addwf	_gcounter^(0+128),f
 11988  0141  30FF               	movlw	255
 11989  0142  3DE2               	addwfc	(_gcounter+1)^(0+128),f
 11990  0143                     i1l4708:	
 11991                           
 11992                           ;glucose_meter_main.c: 622: if(gcounter == 0)
 11993  0143  0021               	movlb	1	; select bank1
 11994  0144  0861               	movf	_gcounter^(0+128),w
 11995  0145  0462               	iorwf	(_gcounter+1)^(0+128),w
 11996  0146  1D03               	btfss	3,2
 11997  0147  29DC               	goto	i1l4734
 11998                           
 11999                           ;glucose_meter_main.c: 623: {
 12000                           ;glucose_meter_main.c: 624: if(gglucoseIndex <= 4096)
 12001  0148  0841               	movf	(_gglucoseIndex+1)^(0+128),w
 12002  0149  3A80               	xorlw	128
 12003  014A  0020               	movlb	0	; select bank0
 12004  014B  00A0               	movwf	??_isr
 12005  014C  3090               	movlw	144
 12006  014D  0220               	subwf	??_isr,w
 12007  014E  1D03               	skipz
 12008  014F  2953               	goto	u454_25
 12009  0150  3001               	movlw	1
 12010  0151  0021               	movlb	1	; select bank1
 12011  0152  0240               	subwf	_gglucoseIndex^(0+128),w
 12012  0153                     u454_25:	
 12013  0153  1803               	skipnc
 12014  0154  2997               	goto	i1l595
 12015                           
 12016                           ;glucose_meter_main.c: 625: {
 12017                           ;glucose_meter_main.c: 626: gSigmaGlucoseValue = (gSigmaGlucoseValue + gReadData)>>1;
 12018  0155  0021               	movlb	1	; select bank1
 12019  0156  0824               	movf	_gSigmaGlucoseValue^(0+128),w
 12020  0157  0020               	movlb	0	; select bank0
 12021  0158  00A0               	movwf	??_isr
 12022  0159  0021               	movlb	1	; select bank1
 12023  015A  0825               	movf	(_gSigmaGlucoseValue+1)^(0+128),w
 12024  015B  0020               	movlb	0	; select bank0
 12025  015C  00A1               	movwf	??_isr+1
 12026  015D  0021               	movlb	1	; select bank1
 12027  015E  0826               	movf	(_gSigmaGlucoseValue+2)^(0+128),w
 12028  015F  0020               	movlb	0	; select bank0
 12029  0160  00A2               	movwf	??_isr+2
 12030  0161  0021               	movlb	1	; select bank1
 12031  0162  0827               	movf	(_gSigmaGlucoseValue+3)^(0+128),w
 12032  0163  0020               	movlb	0	; select bank0
 12033  0164  00A3               	movwf	??_isr+3
 12034  0165  0021               	movlb	1	; select bank1
 12035  0166  0834               	movf	_gReadData^(0+128),w
 12036  0167  0020               	movlb	0	; select bank0
 12037  0168  00A4               	movwf	??_isr+4
 12038  0169  0021               	movlb	1	; select bank1
 12039  016A  0835               	movf	(_gReadData+1)^(0+128),w
 12040  016B  0020               	movlb	0	; select bank0
 12041  016C  00A5               	movwf	??_isr+5
 12042  016D  3000               	movlw	0
 12043  016E  1BA5               	btfsc	??_isr+5,7
 12044  016F  30FF               	movlw	255
 12045  0170  00A6               	movwf	??_isr+6
 12046  0171  00A7               	movwf	??_isr+7
 12047  0172  0824               	movf	??_isr+4,w
 12048  0173  07A0               	addwf	??_isr,f
 12049  0174  0825               	movf	??_isr+5,w
 12050  0175  3DA1               	addwfc	??_isr+1,f
 12051  0176  0826               	movf	??_isr+6,w
 12052  0177  3DA2               	addwfc	??_isr+2,f
 12053  0178  0827               	movf	??_isr+7,w
 12054  0179  3DA3               	addwfc	??_isr+3,f
 12055  017A  3001               	movlw	1
 12056  017B                     u455_25:	
 12057  017B  36A3               	lsrf	??_isr+3,f
 12058  017C  0CA2               	rrf	??_isr+2,f
 12059  017D  0CA1               	rrf	??_isr+1,f
 12060  017E  0CA0               	rrf	??_isr,f
 12061  017F  0B89               	decfsz	9,f
 12062  0180  297B               	goto	u455_25
 12063  0181  0823               	movf	??_isr+3,w
 12064  0182  0021               	movlb	1	; select bank1
 12065  0183  00A7               	movwf	(_gSigmaGlucoseValue+3)^(0+128)
 12066  0184  0020               	movlb	0	; select bank0
 12067  0185  0822               	movf	??_isr+2,w
 12068  0186  0021               	movlb	1	; select bank1
 12069  0187  00A6               	movwf	(_gSigmaGlucoseValue+2)^(0+128)
 12070  0188  0020               	movlb	0	; select bank0
 12071  0189  0821               	movf	??_isr+1,w
 12072  018A  0021               	movlb	1	; select bank1
 12073  018B  00A5               	movwf	(_gSigmaGlucoseValue+1)^(0+128)
 12074  018C  0020               	movlb	0	; select bank0
 12075  018D  0820               	movf	??_isr,w
 12076  018E  0021               	movlb	1	; select bank1
 12077  018F  00A4               	movwf	_gSigmaGlucoseValue^(0+128)
 12078                           
 12079                           ;glucose_meter_main.c: 627: gglucoseIndex++;
 12080  0190  3001               	movlw	1
 12081  0191  07C0               	addwf	_gglucoseIndex^(0+128),f
 12082  0192  3000               	movlw	0
 12083  0193  3DC1               	addwfc	(_gglucoseIndex+1)^(0+128),f
 12084                           
 12085                           ;glucose_meter_main.c: 628: LATAbits.LATA3 = 1;
 12086  0194  0022               	movlb	2	; select bank2
 12087  0195  158C               	bsf	12,3	;volatile
 12088                           
 12089                           ;glucose_meter_main.c: 629: }
 12090  0196  29DC               	goto	i1l4734
 12091  0197                     i1l595:	
 12092                           
 12093                           ;glucose_meter_main.c: 630: else
 12094                           ;glucose_meter_main.c: 631: {
 12095                           ;glucose_meter_main.c: 632: INTCONbits.PEIE = 1;
 12096  0197  170B               	bsf	11,6	;volatile
 12097                           
 12098                           ;glucose_meter_main.c: 633: PIE1bits.ADIE=1;
 12099  0198  0021               	movlb	1	; select bank1
 12100  0199  1711               	bsf	17,6	;volatile
 12101                           
 12102                           ;glucose_meter_main.c: 634: gglucDataReady = 1;
 12103  019A  01FC               	clrf	_gglucDataReady
 12104  019B  0AFC               	incf	_gglucDataReady,f
 12105                           
 12106                           ;glucose_meter_main.c: 635: gglucoseIndex = 0;
 12107  019C  01C0               	clrf	_gglucoseIndex^(0+128)
 12108  019D  01C1               	clrf	(_gglucoseIndex+1)^(0+128)
 12109                           
 12110                           ;glucose_meter_main.c: 636: gcounter = 8000;
 12111  019E  3040               	movlw	64
 12112  019F  00E1               	movwf	_gcounter^(0+128)
 12113  01A0  301F               	movlw	31
 12114  01A1  00E2               	movwf	(_gcounter^(0+128)+1)
 12115                           
 12116                           ;glucose_meter_main.c: 637: LATAbits.LATA3 = 0;
 12117  01A2  0022               	movlb	2	; select bank2
 12118  01A3  118C               	bcf	12,3	;volatile
 12119                           
 12120                           ;glucose_meter_main.c: 638: }
 12121                           ;glucose_meter_main.c: 639: }
 12122                           ;glucose_meter_main.c: 640: }
 12123  01A4  29DC               	goto	i1l4734
 12124  01A5                     i1l4724:	
 12125                           
 12126                           ;glucose_meter_main.c: 641: else
 12127                           ;glucose_meter_main.c: 642: {
 12128                           ;glucose_meter_main.c: 644: if(gcountIdleTime <= 1)
 12129  01A5  0021               	movlb	1	; select bank1
 12130  01A6  085A               	movf	(_gcountIdleTime+3)^(0+128),w
 12131  01A7  1D03               	btfss	3,2
 12132  01A8  29BC               	goto	i1l4728
 12133  01A9  0859               	movf	(_gcountIdleTime+2)^(0+128),w
 12134  01AA  1D03               	btfss	3,2
 12135  01AB  29BC               	goto	i1l4728
 12136  01AC  0858               	movf	(_gcountIdleTime+1)^(0+128),w
 12137  01AD  1D03               	btfss	3,2
 12138  01AE  29BC               	goto	i1l4728
 12139  01AF  3002               	movlw	2
 12140  01B0  0257               	subwf	_gcountIdleTime^(0+128),w
 12141  01B1  1803               	btfsc	3,0
 12142  01B2  29BC               	goto	i1l4728
 12143                           
 12144                           ;glucose_meter_main.c: 645: gcountIdleTime = 1;
 12145  01B3  3000               	movlw	0
 12146  01B4  00DA               	movwf	(_gcountIdleTime+3)^(0+128)
 12147  01B5  3000               	movlw	0
 12148  01B6  00D9               	movwf	(_gcountIdleTime+2)^(0+128)
 12149  01B7  3000               	movlw	0
 12150  01B8  00D8               	movwf	(_gcountIdleTime+1)^(0+128)
 12151  01B9  3001               	movlw	1
 12152  01BA  00D7               	movwf	_gcountIdleTime^(0+128)
 12153  01BB  29D4               	goto	i1l4730
 12154  01BC                     i1l4728:	
 12155                           
 12156                           ;glucose_meter_main.c: 647: else
 12157                           ;glucose_meter_main.c: 648: gcountIdleTime--;
 12158  01BC  3001               	movlw	1
 12159  01BD  0020               	movlb	0	; select bank0
 12160  01BE  00A0               	movwf	??_isr
 12161  01BF  3000               	movlw	0
 12162  01C0  00A1               	movwf	??_isr+1
 12163  01C1  3000               	movlw	0
 12164  01C2  00A2               	movwf	??_isr+2
 12165  01C3  3000               	movlw	0
 12166  01C4  00A3               	movwf	??_isr+3
 12167  01C5  0820               	movf	??_isr,w
 12168  01C6  0021               	movlb	1	; select bank1
 12169  01C7  02D7               	subwf	_gcountIdleTime^(0+128),f
 12170  01C8  0020               	movlb	0	; select bank0
 12171  01C9  0821               	movf	??_isr+1,w
 12172  01CA  0021               	movlb	1	; select bank1
 12173  01CB  3BD8               	subwfb	(_gcountIdleTime+1)^(0+128),f
 12174  01CC  0020               	movlb	0	; select bank0
 12175  01CD  0822               	movf	??_isr+2,w
 12176  01CE  0021               	movlb	1	; select bank1
 12177  01CF  3BD9               	subwfb	(_gcountIdleTime+2)^(0+128),f
 12178  01D0  0020               	movlb	0	; select bank0
 12179  01D1  0823               	movf	??_isr+3,w
 12180  01D2  0021               	movlb	1	; select bank1
 12181  01D3  3BDA               	subwfb	(_gcountIdleTime+3)^(0+128),f
 12182  01D4                     i1l4730:	
 12183                           
 12184                           ;glucose_meter_main.c: 650: if(gcountIdleTime == 1)
 12185  01D4  0357               	decf	_gcountIdleTime^(0+128),w
 12186  01D5  0458               	iorwf	(_gcountIdleTime+1)^(0+128),w
 12187  01D6  0459               	iorwf	(_gcountIdleTime+2)^(0+128),w
 12188  01D7  045A               	iorwf	(_gcountIdleTime+3)^(0+128),w
 12189  01D8  1D03               	btfss	3,2
 12190  01D9  29DC               	goto	i1l4734
 12191                           
 12192                           ;glucose_meter_main.c: 651: {
 12193                           ;glucose_meter_main.c: 652: gBloodNotInsetrted=1;
 12194  01DA  01C3               	clrf	_gBloodNotInsetrted^(0+128)
 12195  01DB  0AC3               	incf	_gBloodNotInsetrted^(0+128),f
 12196  01DC                     i1l4734:	
 12197                           
 12198                           ;glucose_meter_main.c: 653: }
 12199                           ;glucose_meter_main.c: 654: }
 12200                           ;glucose_meter_main.c: 656: if (gglucDataReady == 0)
 12201  01DC  087C               	movf	_gglucDataReady,w
 12202  01DD  1D03               	btfss	3,2
 12203  01DE  29E1               	goto	i1l602
 12204                           
 12205                           ;glucose_meter_main.c: 657: ADCON0bits.ADGO = 1;
 12206  01DF  0021               	movlb	1	; select bank1
 12207  01E0  149D               	bsf	29,1	;volatile
 12208  01E1                     i1l602:	
 12209  01E1  0020               	movlb	0	; select bank0
 12210  01E2  0828               	movf	??_isr+8,w
 12211  01E3  00FF               	movwf	127
 12212  01E4  107E               	bcf	126,0	;clear compiler interrupt flag (level 1)
 12213  01E5  0009               	retfie
 12214  01E6                     __end_of_isr:	
 12215                           
 12216                           	psect	text44
 12217  10BD                     __ptext44:	
 12218 ;; *************** function i1_LCDInit *****************
 12219 ;; Defined at:
 12220 ;;		line 234 in file "Nokia5110/Nokia.c"
 12221 ;; Parameters:    Size  Location     Type
 12222 ;;		None
 12223 ;; Auto vars:     Size  Location     Type
 12224 ;;		None
 12225 ;; Return value:  Size  Location     Type
 12226 ;;                  1    wreg      void 
 12227 ;; Registers used:
 12228 ;;		wreg, status,2, status,0, pclath, cstack
 12229 ;; Tracked objects:
 12230 ;;		On entry : 0/0
 12231 ;;		On exit  : 0/0
 12232 ;;		Unchanged: 0/0
 12233 ;; Data sizes:     COMMON   BANK0   BANK1   BANK2   BANK3   BANK4   BANK5   BANK6   BANK7   BANK8   BANK9  BANK10  BANK1
      +1  BANK12
 12234 ;;      Params:         0       0       0       0       0       0       0       0       0       0       0       0       
      +0       0
 12235 ;;      Locals:         0       0       0       0       0       0       0       0       0       0       0       0       
      +0       0
 12236 ;;      Temps:          2       0       0       0       0       0       0       0       0       0       0       0       
      +0       0
 12237 ;;      Totals:         2       0       0       0       0       0       0       0       0       0       0       0       
      +0       0
 12238 ;;Total ram usage:        2 bytes
 12239 ;; Hardware stack levels used:    1
 12240 ;; Hardware stack levels required when called:    1
 12241 ;; This function calls:
 12242 ;;		i1_LCDWrite
 12243 ;; This function is called by:
 12244 ;;		_isr
 12245 ;; This function uses a non-reentrant model
 12246 ;;
 12247                           
 12248                           
 12249                           ;psect for function i1_LCDInit
 12250  10BD                     i1_LCDInit:	
 12251                           
 12252                           ;Nokia.c: 236: TRISCbits.TRISC3=0;
 12253                           
 12254                           ;incstack = 0
 12255                           ; Regs used in i1_LCDInit: [wreg+status,2+status,0+pclath+cstack]
 12256  10BD  0021               	movlb	1	; select bank1
 12257  10BE  118E               	bcf	14,3	;volatile
 12258                           
 12259                           ;Nokia.c: 237: TRISCbits.TRISC4=0;
 12260  10BF  120E               	bcf	14,4	;volatile
 12261                           
 12262                           ;Nokia.c: 238: TRISCbits.TRISC5=0;
 12263  10C0  128E               	bcf	14,5	;volatile
 12264                           
 12265                           ;Nokia.c: 239: TRISCbits.TRISC6=0;
 12266  10C1  130E               	bcf	14,6	;volatile
 12267                           
 12268                           ;Nokia.c: 240: TRISCbits.TRISC7=0;
 12269  10C2  138E               	bcf	14,7	;volatile
 12270                           
 12271                           ;Nokia.c: 242: LATCbits.LATC4=0;
 12272  10C3  0022               	movlb	2	; select bank2
 12273  10C4  120E               	bcf	14,4	;volatile
 12274                           
 12275                           ;Nokia.c: 243: LATCbits.LATC5=0;
 12276  10C5  128E               	bcf	14,5	;volatile
 12277                           
 12278                           ;Nokia.c: 244: LATCbits.LATC3=0;
 12279  10C6  118E               	bcf	14,3	;volatile
 12280                           
 12281                           ;Nokia.c: 247: LATCbits.LATC7=0;
 12282  10C7  138E               	bcf	14,7	;volatile
 12283                           
 12284                           ;Nokia.c: 248: _delay((unsigned long)((10)*(800000/4000.0)));
 12285  10C8  3003               	movlw	3
 12286  10C9  00F6               	movwf	??i1_LCDInit+1
 12287  10CA  3097               	movlw	151
 12288  10CB  00F5               	movwf	??i1_LCDInit
 12289  10CC                     u675_27:	
 12290  10CC  0BF5               	decfsz	??i1_LCDInit,f
 12291  10CD  28CC               	goto	u675_27
 12292  10CE  0BF6               	decfsz	??i1_LCDInit+1,f
 12293  10CF  28CC               	goto	u675_27
 12294  10D0  3200               	nop2
 12295                           
 12296                           ;Nokia.c: 249: LATCbits.LATC7=1;
 12297  10D1  0022               	movlb	2	; select bank2
 12298  10D2  178E               	bsf	14,7	;volatile
 12299                           
 12300                           ;Nokia.c: 251: LCDWrite(0, 0x21);
 12301  10D3  3021               	movlw	33
 12302  10D4  00F5               	movwf	??i1_LCDInit
 12303  10D5  0875               	movf	??i1_LCDInit,w
 12304  10D6  00F0               	movwf	i1LCDWrite@data
 12305  10D7  3000               	movlw	0
 12306  10D8  319F  2729  3190   	fcall	i1_LCDWrite
 12307                           
 12308                           ;Nokia.c: 252: LCDWrite(0, 0xBB);
 12309  10DB  30BB               	movlw	187
 12310  10DC  00F5               	movwf	??i1_LCDInit
 12311  10DD  0875               	movf	??i1_LCDInit,w
 12312  10DE  00F0               	movwf	i1LCDWrite@data
 12313  10DF  3000               	movlw	0
 12314  10E0  319F  2729  3190   	fcall	i1_LCDWrite
 12315                           
 12316                           ;Nokia.c: 253: LCDWrite(0, 0x04);
 12317  10E3  3004               	movlw	4
 12318  10E4  00F5               	movwf	??i1_LCDInit
 12319  10E5  0875               	movf	??i1_LCDInit,w
 12320  10E6  00F0               	movwf	i1LCDWrite@data
 12321  10E7  3000               	movlw	0
 12322  10E8  319F  2729  3190   	fcall	i1_LCDWrite
 12323                           
 12324                           ;Nokia.c: 254: LCDWrite(0, 0x14);
 12325  10EB  3014               	movlw	20
 12326  10EC  00F5               	movwf	??i1_LCDInit
 12327  10ED  0875               	movf	??i1_LCDInit,w
 12328  10EE  00F0               	movwf	i1LCDWrite@data
 12329  10EF  3000               	movlw	0
 12330  10F0  319F  2729  3190   	fcall	i1_LCDWrite
 12331                           
 12332                           ;Nokia.c: 256: LCDWrite(0, 0x20);
 12333  10F3  3020               	movlw	32
 12334  10F4  00F5               	movwf	??i1_LCDInit
 12335  10F5  0875               	movf	??i1_LCDInit,w
 12336  10F6  00F0               	movwf	i1LCDWrite@data
 12337  10F7  3000               	movlw	0
 12338  10F8  319F  2729  3190   	fcall	i1_LCDWrite
 12339                           
 12340                           ;Nokia.c: 257: LCDWrite(0, 0x0C);
 12341  10FB  300C               	movlw	12
 12342  10FC  00F5               	movwf	??i1_LCDInit
 12343  10FD  0875               	movf	??i1_LCDInit,w
 12344  10FE  00F0               	movwf	i1LCDWrite@data
 12345  10FF  3000               	movlw	0
 12346  1100  319F  2729         	fcall	i1_LCDWrite
 12347  1102  0008               	return
 12348  1103                     __end_ofi1_LCDInit:	
 12349                           
 12350                           	psect	text45
 12351  1F29                     __ptext45:	
 12352 ;; *************** function i1_LCDWrite *****************
 12353 ;; Defined at:
 12354 ;;		line 263 in file "Nokia5110/Nokia.c"
 12355 ;; Parameters:    Size  Location     Type
 12356 ;;  data_or_comm    1    wreg     unsigned char 
 12357 ;;  data            1    0[COMMON] unsigned char 
 12358 ;; Auto vars:     Size  Location     Type
 12359 ;;  data_or_comm    1    2[COMMON] unsigned char 
 12360 ;;  LCDWrite        1    4[COMMON] unsigned char 
 12361 ;;  LCDWrite        1    3[COMMON] unsigned char 
 12362 ;; Return value:  Size  Location     Type
 12363 ;;                  1    wreg      void 
 12364 ;; Registers used:
 12365 ;;		wreg, status,2, status,0
 12366 ;; Tracked objects:
 12367 ;;		On entry : 0/0
 12368 ;;		On exit  : 0/0
 12369 ;;		Unchanged: 0/0
 12370 ;; Data sizes:     COMMON   BANK0   BANK1   BANK2   BANK3   BANK4   BANK5   BANK6   BANK7   BANK8   BANK9  BANK10  BANK1
      +1  BANK12
 12371 ;;      Params:         1       0       0       0       0       0       0       0       0       0       0       0       
      +0       0
 12372 ;;      Locals:         3       0       0       0       0       0       0       0       0       0       0       0       
      +0       0
 12373 ;;      Temps:          1       0       0       0       0       0       0       0       0       0       0       0       
      +0       0
 12374 ;;      Totals:         5       0       0       0       0       0       0       0       0       0       0       0       
      +0       0
 12375 ;;Total ram usage:        5 bytes
 12376 ;; Hardware stack levels used:    1
 12377 ;; This function calls:
 12378 ;;		Nothing
 12379 ;; This function is called by:
 12380 ;;		i1_LCDInit
 12381 ;; This function uses a non-reentrant model
 12382 ;;
 12383                           
 12384                           
 12385                           ;psect for function i1_LCDWrite
 12386  1F29                     i1_LCDWrite:	
 12387                           
 12388                           ;incstack = 0
 12389                           ; Regs used in i1_LCDWrite: [wreg+status,2+status,0]
 12390                           ;i1LCDWrite@data_or_command stored from wreg
 12391  1F29  00F2               	movwf	i1LCDWrite@data_or_command
 12392                           
 12393                           ;Nokia.c: 264: char i,d;
 12394                           ;Nokia.c: 265: d=data;
 12395  1F2A  0870               	movf	i1LCDWrite@data,w
 12396  1F2B  00F1               	movwf	??i1_LCDWrite
 12397  1F2C  0871               	movf	??i1_LCDWrite,w
 12398  1F2D  00F3               	movwf	i1LCDWrite@d
 12399                           
 12400                           ;Nokia.c: 266: if(data_or_command==0)LATCbits.LATC3=0;
 12401  1F2E  0872               	movf	i1LCDWrite@data_or_command,w
 12402  1F2F  1D03               	btfss	3,2
 12403  1F30  2F34               	goto	i1l648
 12404  1F31  0022               	movlb	2	; select bank2
 12405  1F32  118E               	bcf	14,3	;volatile
 12406  1F33  2F36               	goto	i1l649
 12407  1F34                     i1l648:	
 12408                           
 12409                           ;Nokia.c: 267: else LATCbits.LATC3=1;
 12410  1F34  0022               	movlb	2	; select bank2
 12411  1F35  158E               	bsf	14,3	;volatile
 12412  1F36                     i1l649:	
 12413                           
 12414                           ;Nokia.c: 270: LATCbits.LATC6=0;
 12415  1F36  130E               	bcf	14,6	;volatile
 12416                           
 12417                           ;Nokia.c: 272: for(i=0;i<8;i++) {
 12418  1F37  01F4               	clrf	i1LCDWrite@i
 12419  1F38  3008               	movlw	8
 12420  1F39  0274               	subwf	i1LCDWrite@i,w
 12421  1F3A  1803               	btfsc	3,0
 12422  1F3B  2F4C               	goto	i1l651
 12423  1F3C                     i1l650:	
 12424                           
 12425                           ;Nokia.c: 273: LATCbits.LATC4=0;
 12426  1F3C  120E               	bcf	14,4	;volatile
 12427                           
 12428                           ;Nokia.c: 274: if(d&0x80)LATCbits.LATC4=1;
 12429  1F3D  1FF3               	btfss	i1LCDWrite@d,7
 12430  1F3E  2F40               	goto	i1l652
 12431  1F3F  160E               	bsf	14,4	;volatile
 12432  1F40                     i1l652:	
 12433                           
 12434                           ;Nokia.c: 275: LATCbits.LATC5=1;
 12435  1F40  168E               	bsf	14,5	;volatile
 12436                           
 12437                           ;Nokia.c: 276: d<<=1;
 12438  1F41  1003               	clrc
 12439  1F42  0DF3               	rlf	i1LCDWrite@d,f
 12440                           
 12441                           ;Nokia.c: 277: LATCbits.LATC5=0;
 12442  1F43  128E               	bcf	14,5	;volatile
 12443  1F44  3001               	movlw	1
 12444  1F45  00F1               	movwf	??i1_LCDWrite
 12445  1F46  0871               	movf	??i1_LCDWrite,w
 12446  1F47  07F4               	addwf	i1LCDWrite@i,f
 12447  1F48  3008               	movlw	8
 12448  1F49  0274               	subwf	i1LCDWrite@i,w
 12449  1F4A  1C03               	skipc
 12450  1F4B  2F3C               	goto	i1l650
 12451  1F4C                     i1l651:	
 12452                           
 12453                           ;Nokia.c: 278: }
 12454                           ;Nokia.c: 279: LATCbits.LATC6=1;
 12455  1F4C  170E               	bsf	14,6	;volatile
 12456  1F4D  0008               	return
 12457  1F4E                     __end_ofi1_LCDWrite:	
 12458  007E                     btemp	set	126	;btemp
 12459  007E                     int$flags	set	126
 12460  007E                     wtemp	set	126
 12461  007E                     wtemp0	set	126
 12462  0080                     wtemp1	set	128
 12463  0082                     wtemp2	set	130
 12464  0084                     wtemp3	set	132
 12465  0086                     wtemp4	set	134
 12466  0088                     wtemp5	set	136
 12467  007F                     wtemp6	set	127
 12468  007E                     ttemp	set	126
 12469  007E                     ttemp0	set	126
 12470  0081                     ttemp1	set	129
 12471  0084                     ttemp2	set	132
 12472  0087                     ttemp3	set	135
 12473  007F                     ttemp4	set	127
 12474  007E                     ltemp	set	126
 12475  007E                     ltemp0	set	126
 12476  0082                     ltemp1	set	130
 12477  0086                     ltemp2	set	134
 12478  0080                     ltemp3	set	128


Data Sizes:
    Strings     278
    Constant    750
    Data        23
    BSS         72
    Persistent  0
    Stack       0

Auto Spaces:
    Space          Size  Autos    Used
    COMMON           14      7      14
    BANK0            80     62      71
    BANK1            80      6      73
    BANK2            80     29      41
    BANK3            80      0       0
    BANK4            80      0       0
    BANK5            80      0       0
    BANK6            80      0       0
    BANK7            80      0       0
    BANK8            68      0       0
    BANK9             0      0       0
    BANK10            0      0       0
    BANK11            0      0       0
    BANK12            0      0       0

Pointer List with Targets:

    sprintf@f	PTR const unsigned char  size(2) Largest target is 27
		 -> STR_14(CODE[19]), STR_10(CODE[27]), STR_9(CODE[22]), STR_8(CODE[13]), 
		 -> STR_7(CODE[24]), 

    sprintf@ap	PTR void [1] size(1) Largest target is 2
		 -> ?_sprintf(BANK0[2]), ?_printf(BANK0[2]), 

    sprintf@wh	PTR unsigned char  size(2) Largest target is 4096
		 -> RAM(DATA[4096]), 

    pb.func	PTR FTN(unsigned char ,)void  size(2) Largest target is 1
		 -> putch(), Absolute function(), 

    pb.ptr	PTR unsigned char  size(2) Largest target is 4096
		 -> NULL(NULL[0]), RAM(DATA[4096]), 

    printf@f	PTR const unsigned char  size(2) Largest target is 15
		 -> STR_1(CODE[15]), 

    printf@ap	PTR void [1] size(1) Largest target is 2
		 -> ?_sprintf(BANK0[2]), ?_printf(BANK0[2]), 

    pb.func	PTR FTN(unsigned char ,)void  size(2) Largest target is 1
		 -> putch(), Absolute function(), 

    pb.ptr	PTR unsigned char  size(2) Largest target is 4096
		 -> NULL(NULL[0]), RAM(DATA[4096]), 

    _doprnt@ap	PTR PTR void  size(1) Largest target is 1
		 -> sprintf@ap(BANK0[1]), printf@ap(BANK0[1]), 

    _doprnt@f	PTR const unsigned char  size(2) Largest target is 27
		 -> STR_14(CODE[19]), STR_10(CODE[27]), STR_9(CODE[22]), STR_8(CODE[13]), 
		 -> STR_7(CODE[24]), STR_1(CODE[15]), 

    S1233__prbuf$func	PTR FTN(unsigned char ,)void  size(2) Largest target is 1
		 -> putch(), Absolute function(), 

    _doprnt@pb.func	PTR FTN(unsigned char ,)void  size(2) Largest target is 1
		 -> putch(), Absolute function(), 

    S1233__prbuf$ptr	PTR unsigned char  size(2) Largest target is 4096
		 -> NULL(NULL[0]), RAM(DATA[4096]), 

    _doprnt@pb.ptr	PTR unsigned char  size(2) Largest target is 4096
		 -> NULL(NULL[0]), RAM(DATA[4096]), 

    _doprnt@pb	PTR struct __prbuf size(1) Largest target is 4
		 -> sprintf@pb(BANK0[4]), printf@pb(BANK0[4]), 

    LCDString@characters	PTR unsigned char  size(2) Largest target is 4096
		 -> STR_19(CODE[17]), STR_18(CODE[17]), STR_17(CODE[17]), STR_16(CODE[17]), 
		 -> STR_15(CODE[18]), STR_13(CODE[18]), STR_12(CODE[17]), STR_11(CODE[17]), 
		 -> RAM(DATA[4096]), STR_6(CODE[11]), STR_5(CODE[10]), STR_4(CODE[7]), 
		 -> STR_3(CODE[3]), STR_2(CODE[6]), 


Critical Paths under _main in COMMON

    None.

Critical Paths under _isr in COMMON

    _isr->i1_LCDInit
    i1_LCDInit->i1_LCDWrite

Critical Paths under _main in BANK0

    _main->_SenseTestStrip
    ___lbtoft->___ftpack
    ___ftneg->___lbtoft
    ___ftdiv->___ftpack
    _SetTime->_printf
    _printf->__doprnt
    _SenseTestStrip->_sprintf
    _sprintf->__doprnt
    __doprnt->___lwmod
    ___lwmod->___lwdiv
    _LCDString->_LCDCharacter
    _LCDCharacter->_LCDWrite
    _SaveGlucoReading->_eeprom_write
    _ReadSavedGlucoReading->_eeprom_read
    _HwInit->_LCDInit
    _LCDInit->_LCDWrite
    _DisplaySavedGlucoReading->___ftmul
    _LCDClear->_gotoXY
    _gotoXY->_LCDWrite
    _LCDWrite->___wmul
    _CalcGlucose->___ftmul
    ___ftmul->___ftadd
    ___ftadd->___ftneg
    ___awtoft->___awdiv

Critical Paths under _isr in BANK0

    None.

Critical Paths under _main in BANK1

    _main->_DisplaySavedGlucoReading

Critical Paths under _isr in BANK1

    None.

Critical Paths under _main in BANK2

    _main->_SetTime

Critical Paths under _isr in BANK2

    None.

Critical Paths under _main in BANK3

    None.

Critical Paths under _isr in BANK3

    None.

Critical Paths under _main in BANK4

    None.

Critical Paths under _isr in BANK4

    None.

Critical Paths under _main in BANK5

    None.

Critical Paths under _isr in BANK5

    None.

Critical Paths under _main in BANK6

    None.

Critical Paths under _isr in BANK6

    None.

Critical Paths under _main in BANK7

    None.

Critical Paths under _isr in BANK7

    None.

Critical Paths under _main in BANK8

    None.

Critical Paths under _isr in BANK8

    None.

Critical Paths under _main in BANK9

    None.

Critical Paths under _isr in BANK9

    None.

Critical Paths under _main in BANK10

    None.

Critical Paths under _isr in BANK10

    None.

Critical Paths under _main in BANK11

    None.

Critical Paths under _isr in BANK11

    None.

Critical Paths under _main in BANK12

    None.

Critical Paths under _isr in BANK12

    None.

Call Graph Tables:

 ---------------------------------------------------------------------------------
 (Depth) Function   	        Calls       Base Space   Used Autos Params    Refs
 ---------------------------------------------------------------------------------
 (0) _main                                                11    11      0   98889
                                              5 BANK1      1     1      0
                                             19 BANK2     10    10      0
                        _CalcGlucose
                     _Delay_1_Second
           _DisplaySavedGlucoReading
                     _EnterDeepSleep
                             _HwInit
                           _LCDClear
                            _LCDInit
                          _LCDString
                           _LCDWrite
              _ReadSavedGlucoReading
                   _SaveGlucoReading
                     _SenseTestStrip
                            _SetTime
                            ___ftadd
                            ___ftdiv
                            ___ftmul
                            ___ftneg
                            ___fttol
                           ___lbtoft
                             _gotoXY
                            _sprintf
 ---------------------------------------------------------------------------------
 (1) ___lbtoft                                             8     5      3    2555
                                             17 BANK0      8     5      3
                           ___ftpack
 ---------------------------------------------------------------------------------
 (1) ___ftneg                                              3     0      3     142
                                             25 BANK0      3     0      3
                           ___lbtoft (ARG)
 ---------------------------------------------------------------------------------
 (1) ___ftdiv                                             16    10      6    3098
                                             17 BANK0     16    10      6
                           ___ftpack
 ---------------------------------------------------------------------------------
 (1) _SetTime                                             22    22      0   16603
                                             48 BANK0      3     3      0
                                              0 BANK2     19    19      0
                           _LCDClear
                            _LCDInit
                        _SW1_pressed
                        _SW3_pressed
                             ___bmul
                             _gotoXY
                             _printf
 ---------------------------------------------------------------------------------
 (2) _printf                                              10     6      4    4374
                                             38 BANK0     10     6      4
                            __doprnt
 ---------------------------------------------------------------------------------
 (2) ___bmul                                               4     3      1     906
                                              9 BANK0      4     3      1
 ---------------------------------------------------------------------------------
 (2) _SW3_pressed                                          2     2      0      37
                                              9 BANK0      2     2      0
 ---------------------------------------------------------------------------------
 (2) _SW1_pressed                                          2     2      0      37
                                              9 BANK0      2     2      0
 ---------------------------------------------------------------------------------
 (1) _SenseTestStrip                                      10    10      0   17475
                                             56 BANK0      6     6      0
                                              0 BANK1      4     4      0
                     _EnterDeepSleep
                            _InitADC
                           _LCDClear
                          _LCDString
                             _gotoXY
                            _sprintf
 ---------------------------------------------------------------------------------
 (1) _sprintf                                             18     6     12    5143
                                             38 BANK0     18     6     12
                            __doprnt
 ---------------------------------------------------------------------------------
 (2) __doprnt                                             23    20      3    4065
                                             23 BANK0     15    12      3
                   Absolute function *
                            ___lwdiv
                            ___lwmod
                             ___wmul
                            _isdigit
                              _putch *
 ---------------------------------------------------------------------------------
 (3) _putch                                                1     0      1     324
                                              9 BANK0      1     0      1
 ---------------------------------------------------------------------------------
 (3) _isdigit                                              2     2      0      99
                                              9 BANK0      2     2      0
 ---------------------------------------------------------------------------------
 (3) ___lwmod                                              6     2      4     386
                                             17 BANK0      6     2      4
                            ___lwdiv (ARG)
 ---------------------------------------------------------------------------------
 (3) ___lwdiv                                              8     4      4     395
                                              9 BANK0      8     4      4
 ---------------------------------------------------------------------------------
 (3) Absolute function(Fake)                               1     0      1       0
                                              9 BANK0      1     0      1
 ---------------------------------------------------------------------------------
 (2) _LCDString                                            3     1      2    3809
                                             28 BANK0      3     1      2
                       _LCDCharacter
 ---------------------------------------------------------------------------------
 (3) _LCDCharacter                                         8     8      0    2358
                                             20 BANK0      8     8      0
                           _LCDWrite
                             ___wmul
 ---------------------------------------------------------------------------------
 (3) ___wmul                                               6     2      4     598
                                              9 BANK0      6     2      4
 ---------------------------------------------------------------------------------
 (2) _EnterDeepSleep                                       0     0      0       0
 ---------------------------------------------------------------------------------
 (1) _SaveGlucoReading                                     2     2      0     678
                                             13 BANK0      2     2      0
                       _eeprom_write
 ---------------------------------------------------------------------------------
 (2) _eeprom_write                                         4     3      1     678
                                              9 BANK0      4     3      1
 ---------------------------------------------------------------------------------
 (1) _ReadSavedGlucoReading                                3     3      0      62
                                             13 BANK0      3     3      0
                        _eeprom_read
 ---------------------------------------------------------------------------------
 (2) _eeprom_read                                          4     4      0      31
                                              9 BANK0      4     4      0
 ---------------------------------------------------------------------------------
 (1) _HwInit                                               0     0      0    1630
                _ConfigureOscillator
                            _InitADC
                            _InitApp
                         _InitTimer1
                            _LCDInit
 ---------------------------------------------------------------------------------
 (2) _LCDInit                                              2     2      0    1630
                                             20 BANK0      2     2      0
                           _LCDWrite
 ---------------------------------------------------------------------------------
 (2) _InitTimer1                                           0     0      0       0
 ---------------------------------------------------------------------------------
 (2) _InitApp                                              0     0      0       0
 ---------------------------------------------------------------------------------
 (2) _InitADC                                              0     0      0       0
 ---------------------------------------------------------------------------------
 (2) _ConfigureOscillator                                  0     0      0       0
 ---------------------------------------------------------------------------------
 (1) _DisplaySavedGlucoReading                             7     7      0   16110
                                             57 BANK0      2     2      0
                                              0 BANK1      5     5      0
                           _LCDClear
                            ___awdiv
                           ___awtoft
                            ___ftmul
                            ___fttol
                             _gotoXY
 ---------------------------------------------------------------------------------
 (1) ___fttol                                             14    10      4     679
                                              9 BANK0     14    10      4
 ---------------------------------------------------------------------------------
 (2) ___awdiv                                              9     5      4     599
                                              9 BANK0      9     5      4
 ---------------------------------------------------------------------------------
 (2) _LCDClear                                             3     3      0    5007
                                             23 BANK0      3     3      0
                           _LCDWrite
                             _gotoXY
 ---------------------------------------------------------------------------------
 (1) _gotoXY                                               3     2      1    3309
                                             20 BANK0      3     2      1
                           _LCDWrite
 ---------------------------------------------------------------------------------
 (2) _LCDWrite                                             5     4      1    1630
                                             15 BANK0      5     4      1
                             ___wmul (ARG)
 ---------------------------------------------------------------------------------
 (1) _Delay_1_Second                                       3     3      0       0
                                              9 BANK0      3     3      0
 ---------------------------------------------------------------------------------
 (1) _CalcGlucose                                          0     0      0   11116
                           ___awtoft
                            ___ftadd
                             ___ftge
                            ___ftmul
 ---------------------------------------------------------------------------------
 (1) ___ftmul                                             16    10      6    3628
                                             41 BANK0     16    10      6
                            ___ftadd (ARG)
                            ___ftneg (ARG)
                           ___ftpack
                           ___lbtoft (ARG)
 ---------------------------------------------------------------------------------
 (2) ___ftge                                               9     3      6     352
                                              9 BANK0      9     3      6
 ---------------------------------------------------------------------------------
 (1) ___ftadd                                             13     7      6    4325
                                             28 BANK0     13     7      6
                            ___ftneg (ARG)
                           ___ftpack
                           ___ftpack (ARG)
                           ___lbtoft (ARG)
 ---------------------------------------------------------------------------------
 (2) ___awtoft                                             6     3      3    2811
                                             18 BANK0      6     3      3
                            ___awdiv (ARG)
                           ___ftpack
 ---------------------------------------------------------------------------------
 (2) ___ftpack                                             8     3      5    2524
                                              9 BANK0      8     3      5
 ---------------------------------------------------------------------------------
 Estimated maximum stack depth 3
 ---------------------------------------------------------------------------------
 (Depth) Function   	        Calls       Base Space   Used Autos Params    Refs
 ---------------------------------------------------------------------------------
 (5) _isr                                                  9     9      0     270
                                              0 BANK0      9     9      0
                          i1_LCDInit
 ---------------------------------------------------------------------------------
 (6) i1_LCDInit                                            2     2      0     270
                                              5 COMMON     2     2      0
                         i1_LCDWrite
 ---------------------------------------------------------------------------------
 (7) i1_LCDWrite                                           5     4      1     270
                                              0 COMMON     5     4      1
 ---------------------------------------------------------------------------------
 Estimated maximum stack depth 7
 ---------------------------------------------------------------------------------

 Call Graph Graphs:

 _main (ROOT)
   _CalcGlucose
     ___awtoft
       ___awdiv (ARG)
       ___ftpack (ARG)
     ___ftadd
       ___ftneg (ARG)
         ___lbtoft (ARG)
           ___ftpack
       ___ftpack (ARG)
       ___ftpack (ARG)
       ___lbtoft (ARG)
         ___ftpack
     ___ftge
     ___ftmul
       ___ftadd (ARG)
         ___ftneg (ARG)
           ___lbtoft (ARG)
             ___ftpack
         ___ftpack (ARG)
         ___ftpack (ARG)
         ___lbtoft (ARG)
           ___ftpack
       ___ftneg (ARG)
         ___lbtoft (ARG)
           ___ftpack
       ___ftpack (ARG)
       ___lbtoft (ARG)
         ___ftpack
   _Delay_1_Second
   _DisplaySavedGlucoReading
     _LCDClear
       _LCDWrite
         ___wmul (ARG)
       _gotoXY
         _LCDWrite
           ___wmul (ARG)
     ___awdiv
     ___awtoft
       ___awdiv (ARG)
       ___ftpack (ARG)
     ___ftmul
       ___ftadd (ARG)
         ___ftneg (ARG)
           ___lbtoft (ARG)
             ___ftpack
         ___ftpack (ARG)
         ___ftpack (ARG)
         ___lbtoft (ARG)
           ___ftpack
       ___ftneg (ARG)
         ___lbtoft (ARG)
           ___ftpack
       ___ftpack (ARG)
       ___lbtoft (ARG)
         ___ftpack
     ___fttol
     _gotoXY
       _LCDWrite
         ___wmul (ARG)
   _EnterDeepSleep
   _HwInit
     _ConfigureOscillator
     _InitADC
     _InitApp
     _InitTimer1
     _LCDInit
       _LCDWrite
         ___wmul (ARG)
   _LCDClear
     _LCDWrite
       ___wmul (ARG)
     _gotoXY
       _LCDWrite
         ___wmul (ARG)
   _LCDInit
     _LCDWrite
       ___wmul (ARG)
   _LCDString
     _LCDCharacter
       _LCDWrite
         ___wmul (ARG)
       ___wmul
   _LCDWrite
     ___wmul (ARG)
   _ReadSavedGlucoReading
     _eeprom_read
   _SaveGlucoReading
     _eeprom_write
   _SenseTestStrip
     _EnterDeepSleep
     _InitADC
     _LCDClear
       _LCDWrite
         ___wmul (ARG)
       _gotoXY
         _LCDWrite
           ___wmul (ARG)
     _LCDString
       _LCDCharacter
         _LCDWrite
           ___wmul (ARG)
         ___wmul
     _gotoXY
       _LCDWrite
         ___wmul (ARG)
     _sprintf
       __doprnt
         Absolute function(Fake) *
         ___lwdiv *
         ___lwmod *
           ___lwdiv (ARG)
         ___wmul *
         _isdigit *
         _putch *
   _SetTime
     _LCDClear
       _LCDWrite
         ___wmul (ARG)
       _gotoXY
         _LCDWrite
           ___wmul (ARG)
     _LCDInit
       _LCDWrite
         ___wmul (ARG)
     _SW1_pressed
     _SW3_pressed
     ___bmul
     _gotoXY
       _LCDWrite
         ___wmul (ARG)
     _printf
       __doprnt
         Absolute function(Fake) *
         ___lwdiv *
         ___lwmod *
           ___lwdiv (ARG)
         ___wmul *
         _isdigit *
         _putch *
   ___ftadd
     ___ftneg (ARG)
       ___lbtoft (ARG)
         ___ftpack
     ___ftpack (ARG)
     ___ftpack (ARG)
     ___lbtoft (ARG)
       ___ftpack
   ___ftdiv
     ___ftpack
   ___ftmul
     ___ftadd (ARG)
       ___ftneg (ARG)
         ___lbtoft (ARG)
           ___ftpack
       ___ftpack (ARG)
       ___ftpack (ARG)
       ___lbtoft (ARG)
         ___ftpack
     ___ftneg (ARG)
       ___lbtoft (ARG)
         ___ftpack
     ___ftpack (ARG)
     ___lbtoft (ARG)
       ___ftpack
   ___ftneg
     ___lbtoft (ARG)
       ___ftpack
   ___fttol
   ___lbtoft
     ___ftpack
   _gotoXY
     _LCDWrite
       ___wmul (ARG)
   _sprintf
     __doprnt
       Absolute function(Fake) *
       ___lwdiv *
       ___lwmod *
         ___lwdiv (ARG)
       ___wmul *
       _isdigit *
       _putch *

 _isr (ROOT)
   i1_LCDInit
     i1_LCDWrite

 Address spaces:
Name               Size   Autos  Total    Cost      Usage
BIGRAM             3F0      0       0       0        0.0%
EEDATA             100      0       0       0        0.0%
NULL                 0      0       0       0        0.0%
CODE                 0      0       0       0        0.0%
BITCOMMON            E      0       0       1        0.0%
BITSFR0              0      0       0       1        0.0%
SFR0                 0      0       0       1        0.0%
COMMON               E      7       E       2      100.0%
BITSFR1              0      0       0       2        0.0%
SFR1                 0      0       0       2        0.0%
BITSFR2              0      0       0       3        0.0%
SFR2                 0      0       0       3        0.0%
STACK                0      0       0       3        0.0%
BITBANK0            50      0       0       4        0.0%
BITSFR3              0      0       0       4        0.0%
SFR3                 0      0       0       4        0.0%
BANK0               50     3E      47       5       88.8%
BITSFR4              0      0       0       5        0.0%
SFR4                 0      0       0       5        0.0%
BITBANK1            50      0       0       6        0.0%
BITSFR5              0      0       0       6        0.0%
SFR5                 0      0       0       6        0.0%
BANK1               50      6      49       7       91.3%
BITSFR6              0      0       0       7        0.0%
SFR6                 0      0       0       7        0.0%
BITBANK2            50      0       0       8        0.0%
BITSFR7              0      0       0       8        0.0%
SFR7                 0      0       0       8        0.0%
BANK2               50     1D      29       9       51.3%
BITSFR8              0      0       0       9        0.0%
SFR8                 0      0       0       9        0.0%
BITBANK3            50      0       0      10        0.0%
BITSFR9              0      0       0      10        0.0%
SFR9                 0      0       0      10        0.0%
BANK3               50      0       0      11        0.0%
BITSFR10             0      0       0      11        0.0%
SFR10                0      0       0      11        0.0%
BITBANK4            50      0       0      12        0.0%
BITSFR11             0      0       0      12        0.0%
SFR11                0      0       0      12        0.0%
BANK4               50      0       0      13        0.0%
BITSFR12             0      0       0      13        0.0%
SFR12                0      0       0      13        0.0%
BITBANK5            50      0       0      14        0.0%
BITSFR13             0      0       0      14        0.0%
SFR13                0      0       0      14        0.0%
BANK5               50      0       0      15        0.0%
BITSFR14             0      0       0      15        0.0%
SFR14                0      0       0      15        0.0%
BITBANK6            50      0       0      16        0.0%
BITSFR15             0      0       0      16        0.0%
SFR15                0      0       0      16        0.0%
BANK6               50      0       0      17        0.0%
BITSFR16             0      0       0      17        0.0%
SFR16                0      0       0      17        0.0%
BITBANK7            50      0       0      18        0.0%
BITSFR17             0      0       0      18        0.0%
SFR17                0      0       0      18        0.0%
BANK7               50      0       0      19        0.0%
BITSFR18             0      0       0      19        0.0%
SFR18                0      0       0      19        0.0%
BITSFR19             0      0       0      20        0.0%
SFR19                0      0       0      20        0.0%
ABS                  0      0      C7      20        0.0%
BITBANK8            50      0       0      21        0.0%
BITSFR20             0      0       0      21        0.0%
SFR20                0      0       0      21        0.0%
BANK8               44      0       0      22        0.0%
BITSFR21             0      0       0      22        0.0%
SFR21                0      0       0      22        0.0%
BITBANK9            50      0       0      23        0.0%
BITSFR22             0      0       0      23        0.0%
SFR22                0      0       0      23        0.0%
BITSFR23             0      0       0      24        0.0%
SFR23                0      0       0      24        0.0%
BANK9                0      0       0      24        0.0%
BITBANK10           50      0       0      25        0.0%
BITSFR24             0      0       0      25        0.0%
SFR24                0      0       0      25        0.0%
BITSFR25             0      0       0      26        0.0%
SFR25                0      0       0      26        0.0%
BANK10               0      0       0      26        0.0%
BITBANK11           50      0       0      27        0.0%
BITSFR26             0      0       0      27        0.0%
SFR26                0      0       0      27        0.0%
BITSFR27             0      0       0      28        0.0%
SFR27                0      0       0      28        0.0%
BANK11               0      0       0      28        0.0%
BITBANK12           30      0       0      29        0.0%
BITSFR28             0      0       0      29        0.0%
SFR28                0      0       0      29        0.0%
BITSFR29             0      0       0      30        0.0%
SFR29                0      0       0      30        0.0%
BANK12               0      0       0      30        0.0%
BITSFR30             0      0       0      31        0.0%
SFR30                0      0       0      31        0.0%
DATA                 0      0      C7      31        0.0%
BITSFR31             0      0       0      32        0.0%
SFR31                0      0       0      32        0.0%


Microchip Technology PIC Macro Assembler V1.37 build -260352376 
Symbol Table                                                                                   Wed Aug 17 12:08:12 2016

                                    pc 0002                         ___bmul@product 002B  
                          _SW3_pressed 1E1D                            __CFG_CP$OFF 0000  
                                   _RD 0CA8                                     _WR 0CA9  
                         ___awdiv@sign 002F                                     _gY 00AB  
                  ___wmul@multiplicand 002B                           ___ftadd@exp1 0048  
                         ___ftadd@exp2 0047                           ___ftadd@sign 0046  
                        _gglucoseIndex 00C0                                    l151 0C2F  
                                  l160 1E17                                    l148 0C2C  
                                  l168 1E2A                                    l520 0FDA  
                                  l513 0F8A                                    l531 0660  
                                  l516 0FA9                          LCDClear@index 0038  
                                  l536 06FD                                    l545 07D3  
                                  l650 1FE6                                    l730 1EEA  
                                  l651 1FFD                                    l652 1FED  
                                  l493 0D22                                    l648 1FDD  
                                  l752 1F7A                                    l672 15FF  
                                  l649 1FDF                                    l842 1E97  
                                  l690 16A9                                    _GIE 005F  
                         __CFG_CPD$OFF 0000                                    _isr 0004  
                          _CalcGlucose 1479                           __CFG_BORV$LO 0000  
                       ??_LCDCharacter 0034                           _gSetDateTime 00CB  
                                  wreg 0009                                   S6330 1814  
                                 S6328 1800                       _SaveGlucoReading 123C  
                      __end_of_LCDInit 1197                           __CFG_LVP$OFF 0000  
                         ___ftdiv@cntr 003B                           ___ftdiv@sign 0040  
                                 l1010 12E6                                   l1011 12EE  
                                 l1003 12D3                                   l1034 0987  
                                 l1094 145F                                   l5000 172B  
                                 l5002 1731                                   l5020 1784  
                                 l5012 1761                                   l5004 1735  
                                 l5014 176A                                   l5032 17E5  
                                 l5008 174B                                   l5024 179A  
                                 l5040 17FC                                   l5052 12B0  
                                 l5036 179F                                   l6012 1539  
                                 l5062 12D8                                   l5054 12BA  
                                 l5038 15B7                                   l6006 1523  
                                 l5064 12E0                                   l5056 12BF  
                                 l5048 12A9                                   l6034 1593  
                                 l6026 157A                                   l6122 0D41  
                                 l5420 0917                                   l6132 0D48  
                                 l6116 0D19                                   l5406 1F12  
                                 l5342 1DFB                                   l6142 0D61  
                                 l5416 0910                                   l5512 0861  
                                 l5192 1F5C                                   l5272 1E45  
                                 l6160 0D8F                                   l6152 0D7E  
                                 l5450 0966                                   l5426 0926  
                                 l5506 084B                                   l5362 11A2  
                                 l5346 1E01                                   l5444 0953  
                                 l5540 08C0                                   l5524 089C  
                                 l5380 11C1                                   l5462 0999  
                                 l5446 095D                                   l5438 0940  
                                 l5198 1F72                                   l5390 11DC  
                                 l4910 1236                                   l5702 0B18  
                                 l6190 0DED                                   l6158 0D88  
                                 l5456 0979                                   l5448 0962  
                                 l5536 08B8                                   l5528 08A4  
                                 l5368 11AD                                   l4904 11FE  
                                 l4920 15E4                                   l5712 0B37  
                                 l6264 0FF9                                   l6248 0FB2  
                                 l6168 0D99                                   l6096 0D9D  
                                 l5466 09AB                                   l5458 0983  
                                 l5394 11E4                                   l5386 11D3  
                                 l5378 11B5                                   l4834 1E91  
                                 l4930 1604                                   l5722 0B56  
                                 l5706 0B1F                                   l5650 0A2F  
                                 l6098 0D09                                   l5476 09C6  
                                 l5484 1056                                   l5556 140B  
                                 l4828 1DE6                                   l4932 160D  
                                 l4924 15FB                                   l5724 0B5C  
                                 l5716 0B3E                                   l5652 0A41  
                                 l5582 1456                                   l5574 143B  
                                 l5902 068F                                   l5734 0B7D  
                                 l5726 0B5E                                   l5654 0A53  
                                 l5662 0A89                                   l5488 106C  
                                 l5584 1462                                   l5576 1449  
                                 l4864 1031                                   l4856 1013  
                                 l4880 1FAB                                   l4936 161A  
                                 l5680 0ACD                                   l5736 0B80  
                                 l5656 0A65                                   l5664 0A94  
                                 l4858 101F                                   l4882 1FB7  
                                 l4890 1FCC                                   l4962 167E  
                                 l4946 1648                                   l5922 071C  
                                 l5770 0C14                                   l5738 0B8E  
                                 l5658 0A77                                   l5588 1470  
                                 l4868 103A                                   l4956 1678  
                                 l4948 1660                                   l5692 0AFA  
                                 l5684 0AD5                                   l5676 0ABE  
                                 l5668 0AA3                                   ?_isr 0070  
                                 l4886 1FC3                                   l4990 16FA  
                                 l5950 0757                                   l5774 0C17  
                                 l4976 16C5                                   l4968 169D  
                                 l5928 0722                                   l5696 0B01  
                                 l5784 0A15                                   l4986 16E4  
                                 l4978 16C8                                   l4996 1715  
                                 l5972 0792                                   l5964 0775  
                                 l5892 0668                                   l5884 0659  
                                 l5974 07AA                                   l5986 07F2  
                                 l5998 14DA                                   STR_1 05F8  
                                 STR_2 0630                                   STR_3 0636  
                                 STR_4 0629                                   STR_5 061F  
                                 STR_6 0614                                   STR_7 053E  
                                 STR_8 0607                                   STR_9 0556  
                                 u5215 12F5                                   u5135 12B5  
                                 u5321 1EE9                                   u5155 12CE  
                                 u5235 1F5A                                   u6035 1244  
                                 u6115 06B1                                   u5245 1F70  
                                 u6045 137F                                   u5175 12DB  
                                 u5415 11C2                                   u5425 11CC  
                                 u5435 11D4                                   u6235 154B  
                                 u4725 1016                                   u6245 155B  
                                 u4815 1FBD                                   u6255 157B  
                                 u5625 0967                                   u4745 1020  
                                 u4825 1FC4                                   u6265 158A  
                                 u6425 0DE8                                   u5395 11B8  
                                 u4755 102A                                   u6275 1594  
                                 u5565 0941                                   u4685 1E98  
                                 u4845 11FC                                   u4765 1032  
                                 u4925 1693                                   u6517 0C55  
                                 u5655 097A                                   u4695 1E9D  
                                 u4855 1234                                   u6607 0BD9  
                                 u6527 0CBD                                   u5825 08C1  
                                 u6617 0BE6                                   u6537 0CDF  
                                 u5595 0954                                   u5835 08C7  
                                 u5755 086D                                   u6707 10A9  
                                 u4795 1FAE                                   u6627 0BF3  
                                 u6547 0D01                                   u5765 087D  
                                 u6717 10B6                                   u5925 1457  
                                 u4965 16B8                                   u6637 0C00  
                                 u6557 0A9B                                   u6647 0C0D  
                                 u6567 0AB6                                   u5785 08A5  
                                 u5865 1412                                   u6657 065C  
                                 u6577 0BB2                                   u5795 08AB  
                                 u6667 115A                                   u6587 0BBF  
                                 u6677 1082                                   u6597 0BCC  
                                 u6687 108F                                   u5895 143C  
                                 u6697 109C                            ?i1_LCDWrite 0070  
                                 _WREN 0CAA                         ??_eeprom_write 002A  
                                 _Days 005E                           __CFG_WRT$OFF 0000  
                                 _Year 0062                                   _main 0C3C  
                         ___ftpack@arg 0029                           ___ftpack@exp 002C  
                                 fsr0h 0005                                   fsr1h 0007  
                                 fsr0l 0004                                   indf0 0000  
                                 indf1 0001                                   fsr1l 0006  
                                 btemp 007E                           _gMinutesRead 00C8  
                                 ltemp 007E                                   start 01E6  
                                 ttemp 007E                                   wtemp 007E  
                        __CFG_IESO$OFF 0000                     __size_of_LCDString 0017  
                 SW1_pressed@SW1_press 002A                      ___bmul@multiplier 002C  
                        __CFG_MCLRE$ON 0000                           ___ftmul@cntr 0057  
                         ___ftmul@sign 0058                        __end_of_InitADC 0800  
                      __end_of_InitApp 114A                     __size_ofi1_LCDInit 0046  
                     __end_of_LCDClear 1F78                           ___fttol@exp1 0036  
                         ___fttol@lval 0032                                  ??_isr 0020  
                     __end_of_LARGEnum 0519                        __end_of_SetTime 0C3C  
                     __end_of_LCDWrite 2000      DisplaySavedGlucoReading@read_mgdl 00E5  
                                ?_main 0070                        __end_of___awdiv 11E9  
                                _EEADR 0191                        __end_of___ftadd 09DE  
                                STR_10 0523                                  STR_11 05C5  
                                STR_12 05B4                                  STR_13 057F  
                                STR_14 056C                                  STR_15 0591  
                                STR_16 05E7                                  STR_17 05A3  
                        __CFG_WDTE$OFF 0000                                  STR_18 05D6  
                                STR_19 05A3                                  _CARRY 0018  
                      __end_of___ftdiv 15B5                                  _ASCII 0235  
                      __end_of___ftneg 100A                        __end_of___ftmul 08E8  
                      ___awdiv@divisor 0029                        __end_of___fttol 1479  
                                _LATB1 0869                                  _LATB5 086D  
                      __end_of___lwdiv 103F                        __end_of___lwmod 1FD1  
                                i1l602 01E1                                  i1l650 1F3C  
                                i1l651 1F4C                                  i1l563 0062  
                                i1l652 1F40                                  i1l648 1F34  
                                i1l584 00DF                                  i1l649 1F36  
                                i1l577 00B6                                  i1l595 0197  
                      ___awdiv@counter 002E                                  _TMR1H 0017  
                                _PORTB 000D                        __end_of__doprnt 1800  
                                _TRISA 008C                                  _TRISB 008D  
                                _TRISC 008E                    _ConfigureOscillator 1DAC  
                       __CFG_FCMEN$OFF 0000                                  _Hours 005F  
                                _Month 0061                                  _gXadc 00D0  
                                _gTemp 00A8                                  _gYint 00DF  
                        ___awtoft@sign 0037                        __end_of_dpowers 0523  
                      __end_of_isdigit 1DE8                          ___ftpack@sign 002D  
                                _putch 0002                         __CFG_BOREN$OFF 0000  
                  SenseTestStrip@index 00E6                                  pclath 000A  
                  _gOneReadingDisplyed 0079                                  ltemp0 007E  
                                ltemp1 0082                                  ltemp2 0086  
                                ltemp3 0080                                  ttemp0 007E  
                                ttemp1 0081                                  ttemp2 0084  
                                ttemp3 0087                                  ttemp4 007F  
                                status 0003                                  wtemp0 007E  
                                wtemp1 0080                                  wtemp2 0082  
                                wtemp3 0084                                  wtemp4 0086  
                                wtemp5 0088                                  wtemp6 007F  
                      __end_of_sprintf 1EC7                  _ReadSavedGlucoReading 137A  
                 ?_ConfigureOscillator 0070                        __initialization 01E8  
                           _InitTimer1 1DB6                           __end_of_main 1000  
                       _SenseTestStrip 0639                      LCDCharacter@index 003A  
                       __CFG_LPBOR$OFF 0000                    __size_ofi1_LCDWrite 0025  
                               ??_main 0133                          ___fttol@sign1 0031  
                            ??_LCDInit 0034                        _gAverageGlucose 00A0  
                       __CFG_PLLEN$OFF 0000                      __end_of_LCDString 1E5C  
           ??_DisplaySavedGlucoReading 0059                          SetTime@tMonth 0120  
              LCDWrite@data_or_command 0031                                 _ADCON0 009D  
                               _ADCON1 009E                                 _ADCON2 009F  
                        SetTime@hour_1 012F                          SetTime@hour_2 012A  
                               _ADRESH 009C                                 _ADRESL 009B  
                               _EEDATA 0193                                 _EEADRS 0064  
                               _EECON1 0195                                 _EECON2 0196  
                     ___awdiv@dividend 002B                      __end_ofi1_LCDInit 1103  
                        SetTime@year_1 012C                          SetTime@year_2 0127  
                     __end_of___awtoft 1F29                                 _ANSELA 018C  
                               ?_putch 0029                                 _ANSELB 018D  
                     __end_of___ftpack 1305                       __end_of___lbtoft 1E8E  
                               i1l4700 012A                                 i1l4730 01D4  
                               i1l4706 013E                                 i1l4650 00A9  
                               i1l4708 0143                                 i1l4724 01A5  
                               i1l4660 00C1                                 i1l4572 003C  
                               i1l4734 01DC                                 i1l4638 009A  
                               i1l4728 01BC                                 i1l4680 00EC  
                               i1l4672 00D7                                 i1l4656 00B2  
                               i1l4576 0044                                 i1l4690 00FA  
                               i1l4682 00EF                                 i1l4586 0058  
                               i1l4588 005C                                 i1l4596 006C  
   ReadSavedGlucoReading@reading_count 002F                       ??_Delay_1_Second 0029  
                               u450_25 011E                                 u452_25 0136  
                               u454_25 0153                                 u455_25 017B  
                               _OSCCON 0099                                 u672_27 00BC  
                               u673_27 00D1                                 u674_27 00E6  
                               u675_27 10CC                              ??_InitADC 0029  
                            ??_InitApp 0029                  ??_ConfigureOscillator 0029  
                               _HwInit 1EC7                         __CFG_PWRTE$OFF 0000  
            i1LCDWrite@data_or_command 0072                 __end_of_SenseTestStrip 07F8  
                            ??_SetTime 0050                   __end_of_LCDCharacter 123C  
                 __size_of_eeprom_read 0021                                 ___bmul 1DF8  
                               ___ftge 103F                                 _gYint2 00BC  
                               ___wmul 1E8E                              ??___awdiv 002D  
                            ??___ftadd 0042                         __CFG_STVREN$ON 0000  
                               _gYmmol 00AE                              ??___ftdiv 0037  
                            ??___ftneg 003C                              ??___ftmul 004F  
                            ??___fttol 002D                              ??___lwdiv 002D  
                            ??___lwmod 0035                                 _gotoXY 1E30  
                            ??__doprnt 003A                       ___awdiv@quotient 0030  
                 __end_of_eeprom_write 1FA4                           __doprnt@flag 0041  
                               _printf 1E5C                       ??_EnterDeepSleep 0029  
                         __doprnt@prec 003E                  ___ftmul@f3_as_product 0054  
                         LCDWrite@data 002F                           __pdataCOMMON 007D  
                            ??_isdigit 0029                                 putch@c 0029  
                            ??_sprintf 0052                       main@lcdFormatted 00E8  
                           _gReadCount 00CA                              ?_LCDClear 0070  
               ?_ReadSavedGlucoReading 0070                __end_of__initialization 0231  
                      eeprom_read@addr 002C                             ___ftadd@f1 003C  
                           ___ftadd@f2 003F                             ___ftge@ff1 0029  
                           ___ftge@ff2 002C                              ?_LCDWrite 002F  
                           _gHoursRead 00C7                          __end_of_ASCII 0415  
                           ___ftdiv@f1 0034                             ___ftdiv@f2 0031  
                           ___ftdiv@f3 003C                  LCDCharacter@character 0039  
                           ___ftneg@f1 0039                             ___awtoft@c 0032  
                           ___lbtoft@c 0038                    ___bmul@multiplicand 0029  
                      ?_SenseTestStrip 0070                             ___ftmul@f1 0049  
                           ___ftmul@f2 004C                           ?_SW1_pressed 0070  
                           ___fttol@f1 0029                            ?_InitTimer1 0070  
                       __pcstackCOMMON 0070                             _gMonthRead 00C9  
                         __pidataBANK0 1DB0                           __pidataBANK1 1DE8  
             __end_of_SaveGlucoReading 12A0                             _gSleepMode 0066  
                         ?_SW3_pressed 0070                              LCDWrite@d 0032  
                            LCDWrite@i 0033                          __end_of_putch 0003  
                          SetTime@tDay 0121                            SetTime@tMin 0124  
                        _gtimeOutCount 00DB                         _OPTION_REGbits 0095  
                         ?_CalcGlucose 0070                         i1LCDWrite@data 0070  
                    eeprom_write@value 0029                             __doprnt@ap 0039  
                           __doprnt@pb 0045                                ??_putch 002A  
                           __pbssBANK0 0064                             __pbssBANK1 00A0  
                           __pbssBANK2 013D                           ??i1_LCDWrite 0071  
                           _gYmmolRead 00CF                             ??_LCDClear 0037  
                           _gYmmolchar 0063                             ??_LCDWrite 0030  
                          _RedingCount 0077                                ?_HwInit 0070  
                           __pmaintext 0C3C                                ?___bmul 0029  
                              ?___ftge 0029                                ?___wmul 0029  
                           __pintentry 0004                                _DACCON1 0119  
                              ?_gotoXY 0034                              ?___awtoft 0032  
                       SetTime@month_1 012D                         SetTime@month_2 0128  
                            ?___ftpack 0029                              ?___lbtoft 0031  
                              ?_printf 0046                     __end_ofi1_LCDWrite 1F4E  
                              _LCDInit 114A                       SetTime@sw1_count 0132  
                  __size_of_InitTimer1 000B                           _lcdFormatted 013D  
                __size_of_LCDCharacter 0053                                _InitADC 07F8  
                              _InitApp 1103                        __size_of_HwInit 001F  
                              _Minutes 0060                                _Seconds 00C2  
                              _SetTime 09DE             SenseTestStrip@lcdFormatted 00E3  
                __size_of_eeprom_write 002C                        __size_of___bmul 0012  
                      __size_of___ftge 003C                                ___awdiv 1197  
                              ___ftadd 08E8                                ___ftdiv 150C  
                              ___ftneg 1001                        __size_of___wmul 001C  
                              ___ftmul 0834                                ___fttol 13F2  
                              ___lwdiv 100A                                ___lwmod 1FA4  
                              __doprnt 15B5                        __size_of_gotoXY 0015  
                           ??___awtoft 0035                             ??___ftpack 002E  
                           ??___lbtoft 0034                                __ptext1 1E73  
                              __ptext2 1001                                __ptext3 150C  
                              __ptext4 09DE                                __ptext5 1E5C  
                              __ptext6 1DF8                                __ptext7 1E1D  
                              __ptext8 1E0A                                __ptext9 0639  
                      __size_of_printf 0017                              _T1CONbits 0018  
                              _dpowers 0519                                _isdigit 1DD9  
                         __size_of_isr 01E2                              _IOCBFbits 0396  
                            _IOCBNbits 0395                           _LCDCharacter 11E9  
                              _sprintf 1EAA                                clrloop0 1DCE  
                        __doprnt@width 0042                              _LCDString 1E45  
                 end_of_initialization 0231                                gotoXY@x 0036  
                              gotoXY@y 0034                                init_ram 1DC1  
                         _eeprom_write 1F78                                initloop 1DC2  
                            i1_LCDInit 10BD                          _gStripRemoved 007B  
                              printf@f 0046                           __pstringtext 0235  
                 __size_of_SW1_pressed 0013                   __size_of_SW3_pressed 0013  
                     __CFG_FOSC$INTOSC 0000                              _TRISAbits 008C  
                            _TRISBbits 008D                              _TRISCbits 008E  
                    _gYmmoldecimalchar 007D                   __size_of_CalcGlucose 0093  
              ??_ReadSavedGlucoReading 002D                            _DACCON0bits 0118  
                          _gMemorymode 0078                             ?_LCDString 003C  
          __end_of_ConfigureOscillator 1DB0                       ??_SenseTestStrip 0058  
                          ___ftdiv@exp 003F                             ?i1_LCDInit 0070  
                        ??_eeprom_read 0029                      __size_of_LCDClear 002A  
    __size_of_DisplaySavedGlucoReading 0075                      __size_of_LCDWrite 002F  
                        _gYmmoldecimal 00B1              ?_DisplaySavedGlucoReading 0070  
                          ___ftmul@exp 0053                         __end_of_HwInit 1EE6  
                         ??_InitTimer1 0029                      ?_SaveGlucoReading 0070  
                       __end_of___bmul 1E0A                         __end_of___ftge 107B  
                       __end_of___wmul 1EAA                          __pidataCOMMON 0003  
                   ??_SaveGlucoReading 002D                         __end_of_gotoXY 1E45  
                       __end_of_printf 1E73                    start_initialization 01E8  
                          __end_of_isr 01E6               SetTime@pre_confirm_count 0125  
                   __end_of_InitTimer1 1DC1                           SetTime@day_1 012E  
                         SetTime@day_2 0129                           SetTime@tHour 0123  
                         SetTime@min_1 0130                           SetTime@min_2 012B  
                         SetTime@tYear 0122                               ??_HwInit 0036  
                             ??___bmul 002A                               ??___ftge 002F  
                            _gDaysRead 00C4                               ??___wmul 002D  
              __size_of_Delay_1_Second 0042                    __end_of_eeprom_read 1F07  
                          __doprnt@val 003F                            __pdataBANK0 005E  
                          __pdataBANK1 00D3                               ??_gotoXY 0035  
                             ??_printf 004A                              _gReadData 00B4  
                            _gReadTemp 00B6                      __size_of___awtoft 0022  
                             ?_LCDInit 0070                      __size_of___ftpack 0065  
                    __size_of___lbtoft 001B                            __pbssBIGRAM 22C4  
                          __pbssCOMMON 0077                              ___latbits 0002  
                        __pcstackBANK0 0020                          __pcstackBANK1 00E3  
                        __pcstackBANK2 0120                           _isdigit$1478 0029  
                            _gTempint2 00BA                              _gYearRead 00CD  
                          ??_LCDString 003E                __size_of_EnterDeepSleep 0033  
                     eeprom_write@addr 002C                              __doprnt@c 0044  
                            __doprnt@f 0037                            ??i1_LCDInit 0075  
                             ?_InitADC 0070                               ?_InitApp 0070  
                          i1LCDWrite@d 0073                            i1LCDWrite@i 0074  
                             ?_SetTime 0070                       ___lwdiv@dividend 002B  
                 SetTime@confirm_count 0131                               ?___awdiv 0029  
                             ?___ftadd 003C                               ?___ftdiv 0031  
                             ?___ftneg 0039                               ?___ftmul 0049  
                             ?___fttol 0029                               ?___lwdiv 0029  
                             ?___lwmod 0031                               ?__doprnt 0037  
                            __pswtext1 1800                              __pswtext2 1814  
                             ?_isdigit 0070                       ___lwdiv@quotient 002F  
                             ?_sprintf 0046                         __size_of_putch 0001  
                             _LCDClear 1F4E                               _LARGEnum 0415  
                       ___wmul@product 002D                               _LATAbits 010C  
                             _LATBbits 010D                               _LATCbits 010E  
                             _LCDWrite 1FD1                              clear_ram0 1DCD  
                          _eeprom_read 1EE6                               _PIE1bits 0091  
                             _PIR1bits 0011                   SW3_pressed@SW3_press 002A  
                             _GO_nDONE 04E9                             _ADCON0bits 009D  
                    ___wmul@multiplier 0029                       __size_of_LCDInit 004D  
                      _gSenseTestStrip 007A                            _OPA1CONbits 0511  
     __end_of_DisplaySavedGlucoReading 137A         __size_of_ReadSavedGlucoReading 0078  
        __end_of_ReadSavedGlucoReading 13F2                       __size_of_InitADC 0008  
                     __size_of_InitApp 0047                          ??_SW1_pressed 0029  
                     __size_of_SetTime 025E                         _Delay_1_Second 107B  
                        ??_SW3_pressed 0029                       __size_of___awdiv 0052  
                     __size_of___ftadd 00F6                       __size_of___ftdiv 00A9  
                     __size_of___ftneg 0009                       __size_of___ftmul 00B4  
                     __size_of___fttol 0087                       __size_of___lwdiv 0035  
                     __size_of___lwmod 002D                               ___awtoft 1F07  
                             ___ftpack 12A0                               ___lbtoft 1E73  
                     __size_of__doprnt 024B                               _gTempint 00B8  
                           _ANSELAbits 018C                             _ANSELBbits 018D  
                        ??_CalcGlucose 0059                       __size_of_isdigit 000F  
                      ___lwdiv@divisor 0029                        ___lwdiv@counter 002E  
                             __ptext10 1EAA                               __ptext11 15B5  
                             __ptext20 123C                               __ptext12 0002  
                             __ptext21 1F78                               __ptext13 1DD9  
                             __ptext30 1305                               __ptext22 137A  
                             __ptext14 1FA4                               __ptext31 13F2  
                             __ptext23 1EE6                               __ptext15 100A  
                             __ptext40 08E8                               __ptext32 1197  
                             __ptext24 1EC7                               __ptext16 1E45  
                             __ptext41 1F07                               __ptext33 1F4E  
                             __ptext25 114A                               __ptext17 11E9  
                             __ptext42 12A0                               __ptext34 1E30  
                             __ptext26 1DB6                               __ptext18 1E8E  
                             __ptext35 1FD1                               __ptext27 1103  
                             __ptext19 0801                               __ptext44 10BD  
                             __ptext36 107B                               __ptext28 07F8  
                             __ptext45 1F29                               __ptext37 1479  
                             __ptext29 1DAC                               __ptext38 0834  
                             __ptext39 103F              __size_of_SaveGlucoReading 0064  
                       _EnterDeepSleep 0801                         _gglucDataReady 007C  
DisplaySavedGlucoReading@read_mgdl_int 00E3                               _gcounter 00E1  
                     __size_of_sprintf 001D                          __size_of_main 03C4  
         __size_of_ConfigureOscillator 0004                 __end_of_Delay_1_Second 10BD  
                             int$flags 007E                    __end_of_SW1_pressed 1E1D  
                       _gStripIdleTime 00D3                        _gExitMemoryMode 00C6  
                  __end_of_SW3_pressed 1E30                             _INTCONbits 000B  
                           _FVRCONbits 0117                 __end_of_EnterDeepSleep 0834  
                             isdigit@c 002A                       _gcaptured2SValue 00BE  
                       _gStripInserted 00CC                    __end_of_CalcGlucose 150C  
                       _gcountIdleTime 00D7                               intlevel1 0000  
                            sprintf@ap 0053                              sprintf@pb 0054  
                            sprintf@wh 0046                             i1_LCDWrite 1F29  
                     ___lwmod@dividend 0033               _DisplaySavedGlucoReading 1305  
               SenseTestStrip@temp_adc 00E4                      __CFG_CLKOUTEN$OFF 0000  
                      ?_Delay_1_Second 0070                               printf@ap 004B  
                             printf@pb 004C                          _gGlucoseValue 22C4  
              __size_of_SenseTestStrip 01BF                    LCDString@characters 003C  
                           _OPTION_REG 0095                               sprintf@f 0048  
                    _gYmmolDecimalRead 00CE                        ___lwmod@divisor 0031  
                      ___lwmod@counter 0036              SetTime@set_time_date_loop 0126  
                        ?_LCDCharacter 0070                        ?_EnterDeepSleep 0070  
                          _VREGCONbits 0197                       _gSavedReadingCnt 0065  
                   _gSigmaGlucoseValue 00A4                _gDisplayPreviousReading 00C5  
                        ?_eeprom_write 0029                           ?_eeprom_read 0070  
                   _gBloodNotInsetrted 00C3                            _SW1_pressed 1E0A  
